---
triple:          'arm64-apple-darwin'
binary-path:     '/Users/xudianhuan/Documents/dev/MetalLearning/bin/Debug-macosx-x86_64/MetalLearning/MetalLearning.app/Contents/MacOS/MetalLearning'
relocations:
  - { offset: 0x27, size: 0x8, addend: 0x0, symName: __ZN3MEL11ApplicationC2Ev, symObjAddr: 0x0, symBinAddr: 0x100001010, symSize: 0x24 }
  - { offset: 0x3C41, size: 0x8, addend: 0x0, symName: __ZN3MEL11ApplicationC2Ev, symObjAddr: 0x0, symBinAddr: 0x100001010, symSize: 0x24 }
  - { offset: 0x3C6B, size: 0x8, addend: 0x0, symName: __ZN3MEL11ApplicationC1Ev, symObjAddr: 0x24, symBinAddr: 0x100001034, symSize: 0x2C }
  - { offset: 0x3C95, size: 0x8, addend: 0x0, symName: __ZN3MEL11ApplicationD2Ev, symObjAddr: 0x50, symBinAddr: 0x100001060, symSize: 0x14 }
  - { offset: 0x3CBF, size: 0x8, addend: 0x0, symName: __ZN3MEL11ApplicationD1Ev, symObjAddr: 0x64, symBinAddr: 0x100001074, symSize: 0x2C }
  - { offset: 0x3CE9, size: 0x8, addend: 0x0, symName: __ZN3MEL11ApplicationD0Ev, symObjAddr: 0x90, symBinAddr: 0x1000010A0, symSize: 0x30 }
  - { offset: 0x3D13, size: 0x8, addend: 0x0, symName: __ZN3MEL11Application7OnEventERNS_5EventE, symObjAddr: 0xC0, symBinAddr: 0x1000010D0, symSize: 0x14 }
  - { offset: 0x3D47, size: 0x8, addend: 0x0, symName: __ZN3MEL11Application3RunEv, symObjAddr: 0xD4, symBinAddr: 0x1000010E4, symSize: 0x30 }
  - { offset: 0x8FC7, size: 0x8, addend: 0x0, symName: __ZNSt3__124__put_character_sequenceB8de190102IcNS_11char_traitsIcEEEERNS_13basic_ostreamIT_T0_EES7_PKS4_m, symObjAddr: 0x2578, symBinAddr: 0x10000368C, symSize: 0x1E4 }
  - { offset: 0x9B8D, size: 0x8, addend: 0x0, symName: __ZNSt3__118__constexpr_strlenB8de190102IcEEmPKT_, symObjAddr: 0xE6C, symBinAddr: 0x100001F80, symSize: 0x24 }
  - { offset: 0xA305, size: 0x8, addend: 0x0, symName: __ZNSt3__1lsB8de190102INS_11char_traitsIcEEEERNS_13basic_ostreamIcT_EES6_PKc, symObjAddr: 0xF8C, symBinAddr: 0x1000020A0, symSize: 0x48 }
  - { offset: 0xA357, size: 0x8, addend: 0x0, symName: __ZNSt3__112__to_addressB8de190102IKcEEPT_S3_, symObjAddr: 0x2014, symBinAddr: 0x100003128, symSize: 0x14 }
  - { offset: 0xA3BF, size: 0x8, addend: 0x0, symName: __ZNSt3__116__is_valid_rangeB8de190102IcEEbPKT_S3_, symObjAddr: 0x214C, symBinAddr: 0x100003260, symSize: 0x38 }
  - { offset: 0xA47A, size: 0x8, addend: 0x0, symName: __ZNSt3__13maxB8de190102IPcEERKT_S4_S4_, symObjAddr: 0x238C, symBinAddr: 0x1000034A0, symSize: 0x2C }
  - { offset: 0xA4BD, size: 0x8, addend: 0x0, symName: __ZNSt3__13maxB8de190102IPcNS_6__lessIvvEEEERKT_S6_S6_T0_, symObjAddr: 0x24F4, symBinAddr: 0x100003608, symSize: 0x54 }
  - { offset: 0xA517, size: 0x8, addend: 0x0, symName: __ZNSt3__116__pad_and_outputB8de190102IcNS_11char_traitsIcEEEENS_19ostreambuf_iteratorIT_T0_EES6_PKS4_S8_S8_RNS_8ios_baseES4_, symObjAddr: 0x2778, symBinAddr: 0x10000388C, symSize: 0x214 }
  - { offset: 0xA5E6, size: 0x8, addend: 0x0, symName: __ZNSt3__19use_facetB8de190102INS_5ctypeIcEEEERKT_RKNS_6localeE, symObjAddr: 0x2D10, symBinAddr: 0x100003E24, symSize: 0x2C }
  - { offset: 0xAAB4, size: 0x8, addend: 0x0, symName: __ZNSt3__18distanceB8de190102IPcEENS_15iterator_traitsIT_E15difference_typeES3_S3_, symObjAddr: 0x30E8, symBinAddr: 0x1000041FC, symSize: 0x2C }
  - { offset: 0xAAF8, size: 0x8, addend: 0x0, symName: __ZNSt3__110__distanceB8de190102IPcEENS_15iterator_traitsIT_E15difference_typeES3_S3_NS_26random_access_iterator_tagE, symObjAddr: 0x32E8, symBinAddr: 0x1000043FC, symSize: 0x20 }
  - { offset: 0xAB46, size: 0x8, addend: 0x0, symName: __ZNSt3__119__allocate_at_leastB8de190102INS_9allocatorIcEEEENS_19__allocation_resultINS_16allocator_traitsIT_E7pointerEEERS5_m, symObjAddr: 0x34A4, symBinAddr: 0x1000045B8, symSize: 0x40 }
  - { offset: 0xAB8A, size: 0x8, addend: 0x0, symName: __ZNSt3__112__to_addressB8de190102IcEEPT_S2_, symObjAddr: 0x36E0, symBinAddr: 0x1000047F4, symSize: 0x14 }
  - { offset: 0xADCC, size: 0x8, addend: 0x0, symName: __ZNSt3__120__throw_length_errorB8de190102EPKc, symObjAddr: 0x37C8, symBinAddr: 0x1000048DC, symSize: 0x64 }
  - { offset: 0xAE27, size: 0x8, addend: 0x0, symName: __ZNSt3__117__libcpp_allocateB8de190102Emm, symObjAddr: 0x3978, symBinAddr: 0x100004A8C, symSize: 0x28 }
  - { offset: 0xAE64, size: 0x8, addend: 0x0, symName: __ZNSt3__121__libcpp_operator_newB8de190102IJmEEEPvDpT_, symObjAddr: 0x39A0, symBinAddr: 0x100004AB4, symSize: 0x24 }
  - { offset: 0xAE9F, size: 0x8, addend: 0x0, symName: __ZNSt3__121__is_pointer_in_rangeB8de190102IccLi0EEEbPKT_S3_PKT0_, symObjAddr: 0x3A8C, symBinAddr: 0x100004BA0, symSize: 0x80 }
  - { offset: 0xAEFF, size: 0x8, addend: 0x0, symName: __ZNSt3__119__constexpr_memmoveB8de190102IcKcLi0EEEPT_S3_PT0_NS_15__element_countE, symObjAddr: 0x3B0C, symBinAddr: 0x100004C20, symSize: 0x60 }
  - { offset: 0xAF6F, size: 0x8, addend: 0x0, symName: __ZNSt3__119__libcpp_deallocateB8de190102EPvmm, symObjAddr: 0x3BAC, symBinAddr: 0x100004CC0, symSize: 0x30 }
  - { offset: 0xAFB8, size: 0x8, addend: 0x0, symName: __ZNSt3__127__do_deallocate_handle_sizeB8de190102IJEEEvPvmDpT_, symObjAddr: 0x3BDC, symBinAddr: 0x100004CF0, symSize: 0x28 }
  - { offset: 0xAFF8, size: 0x8, addend: 0x0, symName: __ZNSt3__124__libcpp_operator_deleteB8de190102IJPvEEEvDpT_, symObjAddr: 0x3C04, symBinAddr: 0x100004D18, symSize: 0x24 }
  - { offset: 0xBD86, size: 0x8, addend: 0x0, symName: __ZSt28__throw_bad_array_new_lengthB8de190102v, symObjAddr: 0x3944, symBinAddr: 0x100004A58, symSize: 0x34 }
  - { offset: 0x106F2, size: 0x8, addend: 0x0, symName: '-[Window initWithFrame:styleMask:title:]', symObjAddr: 0x0, symBinAddr: 0x100001114, symSize: 0xE0 }
  - { offset: 0x10754, size: 0x8, addend: 0x0, symName: '-[Window keyDown:]', symObjAddr: 0xE0, symBinAddr: 0x1000011F4, symSize: 0xF8 }
  - { offset: 0x107E0, size: 0x8, addend: 0x0, symName: __ZN3MEL15KeyPressedEventC1Eii, symObjAddr: 0x1D8, symBinAddr: 0x1000012EC, symSize: 0x3C }
  - { offset: 0x10834, size: 0x8, addend: 0x0, symName: __ZN3MEL13KeyTypedEventC1Ei, symObjAddr: 0x214, symBinAddr: 0x100001328, symSize: 0x34 }
  - { offset: 0x1086A, size: 0x8, addend: 0x0, symName: __ZN3MEL13KeyTypedEventD1Ev, symObjAddr: 0x248, symBinAddr: 0x10000135C, symSize: 0x2C }
  - { offset: 0x10894, size: 0x8, addend: 0x0, symName: __ZN3MEL15KeyPressedEventD1Ev, symObjAddr: 0x274, symBinAddr: 0x100001388, symSize: 0x2C }
  - { offset: 0x108BF, size: 0x8, addend: 0x0, symName: '-[Window keyUp:]', symObjAddr: 0x2A0, symBinAddr: 0x1000013B4, symSize: 0x7C }
  - { offset: 0x1091E, size: 0x8, addend: 0x0, symName: __ZN3MEL16KeyReleasedEventC1Ei, symObjAddr: 0x31C, symBinAddr: 0x100001430, symSize: 0x34 }
  - { offset: 0x10954, size: 0x8, addend: 0x0, symName: __ZN3MEL16KeyReleasedEventD1Ev, symObjAddr: 0x350, symBinAddr: 0x100001464, symSize: 0x2C }
  - { offset: 0x1097F, size: 0x8, addend: 0x0, symName: '-[Window mouseDown:]', symObjAddr: 0x37C, symBinAddr: 0x100001490, symSize: 0x70 }
  - { offset: 0x109ED, size: 0x8, addend: 0x0, symName: __ZN3MEL23MouseButtonPressedEventC1Ei, symObjAddr: 0x3EC, symBinAddr: 0x100001500, symSize: 0x34 }
  - { offset: 0x10A23, size: 0x8, addend: 0x0, symName: __ZN3MEL23MouseButtonPressedEventD1Ev, symObjAddr: 0x420, symBinAddr: 0x100001534, symSize: 0x2C }
  - { offset: 0x10A4E, size: 0x8, addend: 0x0, symName: '-[Window mouseUp:]', symObjAddr: 0x44C, symBinAddr: 0x100001560, symSize: 0x70 }
  - { offset: 0x10AAD, size: 0x8, addend: 0x0, symName: __ZN3MEL24MouseButtonReleasedEventC1Ei, symObjAddr: 0x4BC, symBinAddr: 0x1000015D0, symSize: 0x34 }
  - { offset: 0x10AE3, size: 0x8, addend: 0x0, symName: __ZN3MEL24MouseButtonReleasedEventD1Ev, symObjAddr: 0x4F0, symBinAddr: 0x100001604, symSize: 0x2C }
  - { offset: 0x10B0E, size: 0x8, addend: 0x0, symName: '-[Window mouseMoved:]', symObjAddr: 0x51C, symBinAddr: 0x100001630, symSize: 0x90 }
  - { offset: 0x10B7C, size: 0x8, addend: 0x0, symName: __ZN3MEL15MouseMovedEventC1Eff, symObjAddr: 0x5AC, symBinAddr: 0x1000016C0, symSize: 0x3C }
  - { offset: 0x10BC0, size: 0x8, addend: 0x0, symName: __ZN3MEL15MouseMovedEventD1Ev, symObjAddr: 0x5E8, symBinAddr: 0x1000016FC, symSize: 0x2C }
  - { offset: 0x10BEB, size: 0x8, addend: 0x0, symName: '-[Window scrollWheel:]', symObjAddr: 0x614, symBinAddr: 0x100001728, symSize: 0xD8 }
  - { offset: 0x10C68, size: 0x8, addend: 0x0, symName: __ZN3MEL18MouseScrolledEventC1Eff, symObjAddr: 0x6EC, symBinAddr: 0x100001800, symSize: 0x3C }
  - { offset: 0x10CAC, size: 0x8, addend: 0x0, symName: __ZN3MEL18MouseScrolledEventD1Ev, symObjAddr: 0x728, symBinAddr: 0x10000183C, symSize: 0x2C }
  - { offset: 0x10CD7, size: 0x8, addend: 0x0, symName: '-[Window windowDidResize:]', symObjAddr: 0x754, symBinAddr: 0x100001868, symSize: 0xCC }
  - { offset: 0x10D45, size: 0x8, addend: 0x0, symName: __ZN3MEL17WindowResizeEventC1Ejj, symObjAddr: 0x820, symBinAddr: 0x100001934, symSize: 0x3C }
  - { offset: 0x10D89, size: 0x8, addend: 0x0, symName: __ZN3MEL17WindowResizeEventD1Ev, symObjAddr: 0x85C, symBinAddr: 0x100001970, symSize: 0x2C }
  - { offset: 0x10DB4, size: 0x8, addend: 0x0, symName: '-[Window windowWillClose:]', symObjAddr: 0x888, symBinAddr: 0x10000199C, symSize: 0x6C }
  - { offset: 0x10E13, size: 0x8, addend: 0x0, symName: __ZN3MEL16WindowCloseEventC1Ev, symObjAddr: 0x8F4, symBinAddr: 0x100001A08, symSize: 0x2C }
  - { offset: 0x10E3B, size: 0x8, addend: 0x0, symName: __ZN3MEL16WindowCloseEventD1Ev, symObjAddr: 0x920, symBinAddr: 0x100001A34, symSize: 0x2C }
  - { offset: 0x10E66, size: 0x8, addend: 0x0, symName: '-[Window dispatchEvent:]', symObjAddr: 0x94C, symBinAddr: 0x100001A60, symSize: 0x54 }
  - { offset: 0x10EA7, size: 0x8, addend: 0x0, symName: '-[Window eventCallback]', symObjAddr: 0x9A0, symBinAddr: 0x100001AB4, symSize: 0x24 }
  - { offset: 0x10EDE, size: 0x8, addend: 0x0, symName: '-[Window setEventCallback:]', symObjAddr: 0x9C4, symBinAddr: 0x100001AD8, symSize: 0x2C }
  - { offset: 0x10F1E, size: 0x8, addend: 0x0, symName: __ZN3MEL15KeyPressedEventC2Eii, symObjAddr: 0x9F0, symBinAddr: 0x100001B04, symSize: 0x50 }
  - { offset: 0x10F63, size: 0x8, addend: 0x0, symName: __ZN3MEL8KeyEventC2Ei, symObjAddr: 0xA40, symBinAddr: 0x100001B54, symSize: 0x48 }
  - { offset: 0x10F9A, size: 0x8, addend: 0x0, symName: __ZNK3MEL15KeyPressedEvent12GetEventTypeEv, symObjAddr: 0xA88, symBinAddr: 0x100001B9C, symSize: 0x20 }
  - { offset: 0x10FBF, size: 0x8, addend: 0x0, symName: __ZNK3MEL15KeyPressedEvent7GetNameEv, symObjAddr: 0xAA8, symBinAddr: 0x100001BBC, symSize: 0x18 }
  - { offset: 0x10FE4, size: 0x8, addend: 0x0, symName: __ZNK3MEL8KeyEvent16GetCategoryFlagsEv, symObjAddr: 0xAC0, symBinAddr: 0x100001BD4, symSize: 0x14 }
  - { offset: 0x11009, size: 0x8, addend: 0x0, symName: __ZNK3MEL15KeyPressedEvent8ToStringEv, symObjAddr: 0xAD4, symBinAddr: 0x100001BE8, symSize: 0x100 }
  - { offset: 0x1103D, size: 0x8, addend: 0x0, symName: __ZN3MEL15KeyPressedEventD0Ev, symObjAddr: 0xBD4, symBinAddr: 0x100001CE8, symSize: 0x30 }
  - { offset: 0x11067, size: 0x8, addend: 0x0, symName: __ZN3MEL5EventC2Ev, symObjAddr: 0xC04, symBinAddr: 0x100001D18, symSize: 0x28 }
  - { offset: 0x11092, size: 0x8, addend: 0x0, symName: __ZNK3MEL5Event8ToStringEv, symObjAddr: 0xC2C, symBinAddr: 0x100001D40, symSize: 0x40 }
  - { offset: 0x110B6, size: 0x8, addend: 0x0, symName: __ZN3MEL8KeyEventD1Ev, symObjAddr: 0xC6C, symBinAddr: 0x100001D80, symSize: 0x14 }
  - { offset: 0x110E0, size: 0x8, addend: 0x0, symName: __ZN3MEL8KeyEventD0Ev, symObjAddr: 0xC80, symBinAddr: 0x100001D94, symSize: 0xC }
  - { offset: 0x1110B, size: 0x8, addend: 0x0, symName: __ZN3MEL5EventD1Ev, symObjAddr: 0xC8C, symBinAddr: 0x100001DA0, symSize: 0x14 }
  - { offset: 0x11134, size: 0x8, addend: 0x0, symName: __ZN3MEL5EventD0Ev, symObjAddr: 0xCA0, symBinAddr: 0x100001DB4, symSize: 0xC }
  - { offset: 0x11162, size: 0x8, addend: 0x0, symName: __ZNSt3__112basic_stringIcNS_11char_traitsIcEENS_9allocatorIcEEEC1B8de190102ILi0EEEPKc, symObjAddr: 0xCAC, symBinAddr: 0x100001DC0, symSize: 0x34 }
  - { offset: 0x111A0, size: 0x8, addend: 0x0, symName: __ZNSt3__112basic_stringIcNS_11char_traitsIcEENS_9allocatorIcEEEC2B8de190102ILi0EEEPKc, symObjAddr: 0xCE0, symBinAddr: 0x100001DF4, symSize: 0x70 }
  - { offset: 0x111E3, size: 0x8, addend: 0x0, symName: __ZNSt3__117__compressed_pairINS_12basic_stringIcNS_11char_traitsIcEENS_9allocatorIcEEE5__repES5_EC1B8de190102INS_18__default_init_tagESA_EEOT_OT0_, symObjAddr: 0xD50, symBinAddr: 0x100001E64, symSize: 0x3C }
  - { offset: 0x1123A, size: 0x8, addend: 0x0, symName: __ZNSt3__111char_traitsIcE6lengthB8de190102EPKc, symObjAddr: 0xD8C, symBinAddr: 0x100001EA0, symSize: 0x24 }
  - { offset: 0x1125D, size: 0x8, addend: 0x0, symName: __ZNSt3__117__compressed_pairINS_12basic_stringIcNS_11char_traitsIcEENS_9allocatorIcEEE5__repES5_EC2B8de190102INS_18__default_init_tagESA_EEOT_OT0_, symObjAddr: 0xDB0, symBinAddr: 0x100001EC4, symSize: 0x3C }
  - { offset: 0x112B4, size: 0x8, addend: 0x0, symName: __ZNSt3__122__compressed_pair_elemINS_12basic_stringIcNS_11char_traitsIcEENS_9allocatorIcEEE5__repELi0ELb0EEC2B8de190102ENS_18__default_init_tagE, symObjAddr: 0xDEC, symBinAddr: 0x100001F00, symSize: 0x14 }
  - { offset: 0x112E8, size: 0x8, addend: 0x0, symName: __ZNSt3__122__compressed_pair_elemINS_9allocatorIcEELi1ELb1EEC2B8de190102ENS_18__default_init_tagE, symObjAddr: 0xE00, symBinAddr: 0x100001F14, symSize: 0x2C }
  - { offset: 0x1131C, size: 0x8, addend: 0x0, symName: __ZNSt3__19allocatorIcEC2B8de190102Ev, symObjAddr: 0xE2C, symBinAddr: 0x100001F40, symSize: 0x2C }
  - { offset: 0x11345, size: 0x8, addend: 0x0, symName: __ZNSt3__116__non_trivial_ifILb1ENS_9allocatorIcEEEC2B8de190102Ev, symObjAddr: 0xE58, symBinAddr: 0x100001F6C, symSize: 0x14 }
  - { offset: 0x1136E, size: 0x8, addend: 0x0, symName: __ZN3MEL15KeyPressedEvent13GetStaticTypeEv, symObjAddr: 0xE90, symBinAddr: 0x100001FA4, symSize: 0x8 }
  - { offset: 0x11447, size: 0x8, addend: 0x0, symName: __ZNSt3__118basic_stringstreamIcNS_11char_traitsIcEENS_9allocatorIcEEEC1B8de190102Ev, symObjAddr: 0xE98, symBinAddr: 0x100001FAC, symSize: 0xF4 }
  - { offset: 0x11470, size: 0x8, addend: 0x0, symName: __ZNKSt3__118basic_stringstreamIcNS_11char_traitsIcEENS_9allocatorIcEEE3strB8de190102Ev, symObjAddr: 0xFD4, symBinAddr: 0x1000020E8, symSize: 0x30 }
  - { offset: 0x11499, size: 0x8, addend: 0x0, symName: __ZNSt3__118basic_stringstreamIcNS_11char_traitsIcEENS_9allocatorIcEEED1Ev, symObjAddr: 0x1004, symBinAddr: 0x100002118, symSize: 0x40 }
  - { offset: 0x114C4, size: 0x8, addend: 0x0, symName: __ZNSt3__19basic_iosIcNS_11char_traitsIcEEEC2B8de190102Ev, symObjAddr: 0x1044, symBinAddr: 0x100002158, symSize: 0x3C }
  - { offset: 0x114ED, size: 0x8, addend: 0x0, symName: __ZNSt3__114basic_iostreamIcNS_11char_traitsIcEEEC2B8de190102EPNS_15basic_streambufIcS2_EE, symObjAddr: 0x1080, symBinAddr: 0x100002194, symSize: 0xAC }
  - { offset: 0x11531, size: 0x8, addend: 0x0, symName: __ZNSt3__115basic_stringbufIcNS_11char_traitsIcEENS_9allocatorIcEEEC1B8de190102Ej, symObjAddr: 0x112C, symBinAddr: 0x100002240, symSize: 0x34 }
  - { offset: 0x11568, size: 0x8, addend: 0x0, symName: __ZNSt3__118basic_stringstreamIcNS_11char_traitsIcEENS_9allocatorIcEEED0Ev, symObjAddr: 0x1160, symBinAddr: 0x100002274, symSize: 0x30 }
  - { offset: 0x11593, size: 0x8, addend: 0x0, symName: __ZThn16_NSt3__118basic_stringstreamIcNS_11char_traitsIcEENS_9allocatorIcEEED1Ev, symObjAddr: 0x1190, symBinAddr: 0x1000022A4, symSize: 0x1C }
  - { offset: 0x115A9, size: 0x8, addend: 0x0, symName: __ZThn16_NSt3__118basic_stringstreamIcNS_11char_traitsIcEENS_9allocatorIcEEED0Ev, symObjAddr: 0x11AC, symBinAddr: 0x1000022C0, symSize: 0x18 }
  - { offset: 0x115BF, size: 0x8, addend: 0x0, symName: __ZTv0_n24_NSt3__118basic_stringstreamIcNS_11char_traitsIcEENS_9allocatorIcEEED1Ev, symObjAddr: 0x11C4, symBinAddr: 0x1000022D8, symSize: 0x28 }
  - { offset: 0x115D5, size: 0x8, addend: 0x0, symName: __ZTv0_n24_NSt3__118basic_stringstreamIcNS_11char_traitsIcEENS_9allocatorIcEEED0Ev, symObjAddr: 0x11EC, symBinAddr: 0x100002300, symSize: 0x20 }
  - { offset: 0x115EB, size: 0x8, addend: 0x0, symName: __ZNSt3__18ios_baseC2B8de190102Ev, symObjAddr: 0x120C, symBinAddr: 0x100002320, symSize: 0x28 }
  - { offset: 0x11614, size: 0x8, addend: 0x0, symName: __ZNSt3__113basic_istreamIcNS_11char_traitsIcEEEC2B8de190102EPNS_15basic_streambufIcS2_EE, symObjAddr: 0x1234, symBinAddr: 0x100002348, symSize: 0x64 }
  - { offset: 0x11657, size: 0x8, addend: 0x0, symName: __ZNSt3__113basic_ostreamIcNS_11char_traitsIcEEEC2B8de190102Ev, symObjAddr: 0x1298, symBinAddr: 0x1000023AC, symSize: 0x34 }
  - { offset: 0x1168C, size: 0x8, addend: 0x0, symName: __ZNSt3__19basic_iosIcNS_11char_traitsIcEEE4initB8de190102EPNS_15basic_streambufIcS2_EE, symObjAddr: 0x12CC, symBinAddr: 0x1000023E0, symSize: 0x40 }
  - { offset: 0x116C0, size: 0x8, addend: 0x0, symName: __ZNSt3__118_SentinelValueFillINS_11char_traitsIcEEE6__initB8de190102Ev, symObjAddr: 0x130C, symBinAddr: 0x100002420, symSize: 0x30 }
  - { offset: 0x116E5, size: 0x8, addend: 0x0, symName: __ZNSt3__111char_traitsIcE3eofB8de190102Ev, symObjAddr: 0x133C, symBinAddr: 0x100002450, symSize: 0x8 }
  - { offset: 0x116F9, size: 0x8, addend: 0x0, symName: __ZNSt3__115basic_stringbufIcNS_11char_traitsIcEENS_9allocatorIcEEEC2B8de190102Ej, symObjAddr: 0x1344, symBinAddr: 0x100002458, symSize: 0x58 }
  - { offset: 0x11731, size: 0x8, addend: 0x0, symName: __ZNSt3__112basic_stringIcNS_11char_traitsIcEENS_9allocatorIcEEEC1B8de190102Ev, symObjAddr: 0x139C, symBinAddr: 0x1000024B0, symSize: 0x2C }
  - { offset: 0x1175E, size: 0x8, addend: 0x0, symName: __ZNSt3__115basic_stringbufIcNS_11char_traitsIcEENS_9allocatorIcEEED1Ev, symObjAddr: 0x13C8, symBinAddr: 0x1000024DC, symSize: 0x2C }
  - { offset: 0x11788, size: 0x8, addend: 0x0, symName: __ZNSt3__115basic_stringbufIcNS_11char_traitsIcEENS_9allocatorIcEEED0Ev, symObjAddr: 0x13F4, symBinAddr: 0x100002508, symSize: 0x30 }
  - { offset: 0x117B3, size: 0x8, addend: 0x0, symName: __ZNSt3__115basic_stringbufIcNS_11char_traitsIcEENS_9allocatorIcEEE7seekoffExNS_8ios_base7seekdirEj, symObjAddr: 0x1424, symBinAddr: 0x100002538, symSize: 0x2FC }
  - { offset: 0x11823, size: 0x8, addend: 0x0, symName: __ZNSt3__115basic_stringbufIcNS_11char_traitsIcEENS_9allocatorIcEEE7seekposENS_4fposI11__mbstate_tEEj, symObjAddr: 0x1720, symBinAddr: 0x100002834, symSize: 0x60 }
  - { offset: 0x11867, size: 0x8, addend: 0x0, symName: __ZNSt3__115basic_stringbufIcNS_11char_traitsIcEENS_9allocatorIcEEE9underflowEv, symObjAddr: 0x1780, symBinAddr: 0x100002894, symSize: 0x108 }
  - { offset: 0x1188C, size: 0x8, addend: 0x0, symName: __ZNSt3__115basic_stringbufIcNS_11char_traitsIcEENS_9allocatorIcEEE9pbackfailEi, symObjAddr: 0x1888, symBinAddr: 0x10000299C, symSize: 0x198 }
  - { offset: 0x118C0, size: 0x8, addend: 0x0, symName: __ZNSt3__115basic_stringbufIcNS_11char_traitsIcEENS_9allocatorIcEEE8overflowEi, symObjAddr: 0x1A20, symBinAddr: 0x100002B34, symSize: 0x26C }
  - { offset: 0x1196E, size: 0x8, addend: 0x0, symName: __ZNSt3__112basic_stringIcNS_11char_traitsIcEENS_9allocatorIcEEEC2B8de190102Ev, symObjAddr: 0x1C8C, symBinAddr: 0x100002DA0, symSize: 0x48 }
  - { offset: 0x1199C, size: 0x8, addend: 0x0, symName: __ZNSt3__117__compressed_pairINS_12basic_stringIcNS_11char_traitsIcEENS_9allocatorIcEEE5__repES5_EC1B8de190102INS_16__value_init_tagENS_18__default_init_tagEEEOT_OT0_, symObjAddr: 0x1CD4, symBinAddr: 0x100002DE8, symSize: 0x3C }
  - { offset: 0x119F3, size: 0x8, addend: 0x0, symName: __ZNKSt3__112basic_stringIcNS_11char_traitsIcEENS_9allocatorIcEEE14__annotate_newB8de190102Em, symObjAddr: 0x1D20, symBinAddr: 0x100002E34, symSize: 0x14 }
  - { offset: 0x11A27, size: 0x8, addend: 0x0, symName: __ZNSt3__117__compressed_pairINS_12basic_stringIcNS_11char_traitsIcEENS_9allocatorIcEEE5__repES5_EC2B8de190102INS_16__value_init_tagENS_18__default_init_tagEEEOT_OT0_, symObjAddr: 0x1D34, symBinAddr: 0x100002E48, symSize: 0x3C }
  - { offset: 0x11A7E, size: 0x8, addend: 0x0, symName: __ZNSt3__122__compressed_pair_elemINS_12basic_stringIcNS_11char_traitsIcEENS_9allocatorIcEEE5__repELi0ELb0EEC2B8de190102ENS_16__value_init_tagE, symObjAddr: 0x1D70, symBinAddr: 0x100002E84, symSize: 0x20 }
  - { offset: 0x11AB1, size: 0x8, addend: 0x0, symName: __ZNSt3__115basic_stringbufIcNS_11char_traitsIcEENS_9allocatorIcEEED2Ev, symObjAddr: 0x1D90, symBinAddr: 0x100002EA4, symSize: 0x48 }
  - { offset: 0x11ADC, size: 0x8, addend: 0x0, symName: __ZNKSt3__115basic_streambufIcNS_11char_traitsIcEEE4pptrB8de190102Ev, symObjAddr: 0x1DD8, symBinAddr: 0x100002EEC, symSize: 0x18 }
  - { offset: 0x11B01, size: 0x8, addend: 0x0, symName: __ZNSt3__14fposI11__mbstate_tEC1B8de190102Ex, symObjAddr: 0x1DF0, symBinAddr: 0x100002F04, symSize: 0x34 }
  - { offset: 0x11B38, size: 0x8, addend: 0x0, symName: __ZNKSt3__112basic_stringIcNS_11char_traitsIcEENS_9allocatorIcEEE4dataB8de190102Ev, symObjAddr: 0x1E24, symBinAddr: 0x100002F38, symSize: 0x28 }
  - { offset: 0x11B5D, size: 0x8, addend: 0x0, symName: __ZNKSt3__115basic_streambufIcNS_11char_traitsIcEEE4gptrB8de190102Ev, symObjAddr: 0x1E4C, symBinAddr: 0x100002F60, symSize: 0x18 }
  - { offset: 0x11B82, size: 0x8, addend: 0x0, symName: __ZNKSt3__115basic_streambufIcNS_11char_traitsIcEEE5ebackB8de190102Ev, symObjAddr: 0x1E64, symBinAddr: 0x100002F78, symSize: 0x18 }
  - { offset: 0x11BA7, size: 0x8, addend: 0x0, symName: __ZNKSt3__115basic_streambufIcNS_11char_traitsIcEEE5pbaseB8de190102Ev, symObjAddr: 0x1E7C, symBinAddr: 0x100002F90, symSize: 0x18 }
  - { offset: 0x11BCC, size: 0x8, addend: 0x0, symName: __ZNSt3__115basic_streambufIcNS_11char_traitsIcEEE4setgB8de190102EPcS4_S4_, symObjAddr: 0x1E94, symBinAddr: 0x100002FA8, symSize: 0xA0 }
  - { offset: 0x11C1B, size: 0x8, addend: 0x0, symName: __ZNSt3__115basic_streambufIcNS_11char_traitsIcEEE4setpB8de190102EPcS4_, symObjAddr: 0x1F34, symBinAddr: 0x100003048, symSize: 0x60 }
  - { offset: 0x11C5E, size: 0x8, addend: 0x0, symName: __ZNKSt3__115basic_streambufIcNS_11char_traitsIcEEE5epptrB8de190102Ev, symObjAddr: 0x1F94, symBinAddr: 0x1000030A8, symSize: 0x18 }
  - { offset: 0x11C83, size: 0x8, addend: 0x0, symName: __ZNSt3__115basic_streambufIcNS_11char_traitsIcEEE7__pbumpB8de190102El, symObjAddr: 0x1FAC, symBinAddr: 0x1000030C0, symSize: 0x28 }
  - { offset: 0x11CB6, size: 0x8, addend: 0x0, symName: __ZNSt3__14fposI11__mbstate_tEC2B8de190102Ex, symObjAddr: 0x1FD4, symBinAddr: 0x1000030E8, symSize: 0x40 }
  - { offset: 0x11CED, size: 0x8, addend: 0x0, symName: __ZNKSt3__112basic_stringIcNS_11char_traitsIcEENS_9allocatorIcEEE13__get_pointerB8de190102Ev, symObjAddr: 0x2028, symBinAddr: 0x10000313C, symSize: 0x54 }
  - { offset: 0x11D12, size: 0x8, addend: 0x0, symName: __ZNKSt3__112basic_stringIcNS_11char_traitsIcEENS_9allocatorIcEEE9__is_longB8de190102Ev, symObjAddr: 0x207C, symBinAddr: 0x100003190, symSize: 0x34 }
  - { offset: 0x11D37, size: 0x8, addend: 0x0, symName: __ZNKSt3__112basic_stringIcNS_11char_traitsIcEENS_9allocatorIcEEE18__get_long_pointerB8de190102Ev, symObjAddr: 0x20B0, symBinAddr: 0x1000031C4, symSize: 0x28 }
  - { offset: 0x11D5C, size: 0x8, addend: 0x0, symName: __ZNKSt3__112basic_stringIcNS_11char_traitsIcEENS_9allocatorIcEEE19__get_short_pointerB8de190102Ev, symObjAddr: 0x20D8, symBinAddr: 0x1000031EC, symSize: 0x28 }
  - { offset: 0x11D81, size: 0x8, addend: 0x0, symName: __ZNKSt3__117__compressed_pairINS_12basic_stringIcNS_11char_traitsIcEENS_9allocatorIcEEE5__repES5_E5firstB8de190102Ev, symObjAddr: 0x2100, symBinAddr: 0x100003214, symSize: 0x24 }
  - { offset: 0x11DA6, size: 0x8, addend: 0x0, symName: __ZNKSt3__122__compressed_pair_elemINS_12basic_stringIcNS_11char_traitsIcEENS_9allocatorIcEEE5__repELi0ELb0EE5__getB8de190102Ev, symObjAddr: 0x2124, symBinAddr: 0x100003238, symSize: 0x14 }
  - { offset: 0x11DCB, size: 0x8, addend: 0x0, symName: __ZNSt3__114pointer_traitsIPKcE10pointer_toB8de190102ERS1_, symObjAddr: 0x2138, symBinAddr: 0x10000324C, symSize: 0x14 }
  - { offset: 0x11E02, size: 0x8, addend: 0x0, symName: __ZNKSt3__16__lessIvvEclB8de190102IPKcS4_EEbRKT_RKT0_, symObjAddr: 0x2184, symBinAddr: 0x100003298, symSize: 0x30 }
  - { offset: 0x11E55, size: 0x8, addend: 0x0, symName: __ZNKSt3__14fposI11__mbstate_tEcvxB8de190102Ev, symObjAddr: 0x21B4, symBinAddr: 0x1000032C8, symSize: 0x18 }
  - { offset: 0x11E7A, size: 0x8, addend: 0x0, symName: __ZNKSt3__115basic_streambufIcNS_11char_traitsIcEEE5egptrB8de190102Ev, symObjAddr: 0x21CC, symBinAddr: 0x1000032E0, symSize: 0x18 }
  - { offset: 0x11E9F, size: 0x8, addend: 0x0, symName: __ZNSt3__111char_traitsIcE11to_int_typeB8de190102Ec, symObjAddr: 0x21E4, symBinAddr: 0x1000032F8, symSize: 0x14 }
  - { offset: 0x11EC3, size: 0x8, addend: 0x0, symName: __ZNSt3__111char_traitsIcE11eq_int_typeB8de190102Eii, symObjAddr: 0x21F8, symBinAddr: 0x10000330C, symSize: 0x24 }
  - { offset: 0x11EF6, size: 0x8, addend: 0x0, symName: __ZNSt3__111char_traitsIcE7not_eofB8de190102Ei, symObjAddr: 0x221C, symBinAddr: 0x100003330, symSize: 0x5C }
  - { offset: 0x11F1A, size: 0x8, addend: 0x0, symName: __ZNSt3__111char_traitsIcE2eqEcc, symObjAddr: 0x2278, symBinAddr: 0x10000338C, symSize: 0x24 }
  - { offset: 0x11F4B, size: 0x8, addend: 0x0, symName: __ZNSt3__111char_traitsIcE12to_char_typeB8de190102Ei, symObjAddr: 0x229C, symBinAddr: 0x1000033B0, symSize: 0x18 }
  - { offset: 0x11F6F, size: 0x8, addend: 0x0, symName: __ZNSt3__112basic_stringIcNS_11char_traitsIcEENS_9allocatorIcEEE6resizeB8de190102Em, symObjAddr: 0x22B4, symBinAddr: 0x1000033C8, symSize: 0x30 }
  - { offset: 0x11FA3, size: 0x8, addend: 0x0, symName: __ZNKSt3__112basic_stringIcNS_11char_traitsIcEENS_9allocatorIcEEE8capacityB8de190102Ev, symObjAddr: 0x22E4, symBinAddr: 0x1000033F8, symSize: 0x54 }
  - { offset: 0x11FC8, size: 0x8, addend: 0x0, symName: __ZNKSt3__112basic_stringIcNS_11char_traitsIcEENS_9allocatorIcEEE4sizeB8de190102Ev, symObjAddr: 0x2338, symBinAddr: 0x10000344C, symSize: 0x54 }
  - { offset: 0x11FED, size: 0x8, addend: 0x0, symName: __ZNSt3__115basic_streambufIcNS_11char_traitsIcEEE5sputcB8de190102Ec, symObjAddr: 0x23B8, symBinAddr: 0x1000034CC, symSize: 0x8C }
  - { offset: 0x12020, size: 0x8, addend: 0x0, symName: __ZNKSt3__112basic_stringIcNS_11char_traitsIcEENS_9allocatorIcEEE14__get_long_capB8de190102Ev, symObjAddr: 0x2444, symBinAddr: 0x100003558, symSize: 0x30 }
  - { offset: 0x12045, size: 0x8, addend: 0x0, symName: __ZNKSt3__112basic_stringIcNS_11char_traitsIcEENS_9allocatorIcEEE15__get_long_sizeB8de190102Ev, symObjAddr: 0x2474, symBinAddr: 0x100003588, symSize: 0x28 }
  - { offset: 0x1206A, size: 0x8, addend: 0x0, symName: __ZNKSt3__112basic_stringIcNS_11char_traitsIcEENS_9allocatorIcEEE16__get_short_sizeB8de190102Ev, symObjAddr: 0x249C, symBinAddr: 0x1000035B0, symSize: 0x58 }
  - { offset: 0x12099, size: 0x8, addend: 0x0, symName: __ZNKSt3__16__lessIvvEclB8de190102IPcS3_EEbRKT_RKT0_, symObjAddr: 0x2548, symBinAddr: 0x10000365C, symSize: 0x30 }
  - { offset: 0x1210A, size: 0x8, addend: 0x0, symName: __ZNKSt3__113basic_ostreamIcNS_11char_traitsIcEEE6sentrycvbB8de190102Ev, symObjAddr: 0x275C, symBinAddr: 0x100003870, symSize: 0x1C }
  - { offset: 0x1212F, size: 0x8, addend: 0x0, symName: __ZNSt3__119ostreambuf_iteratorIcNS_11char_traitsIcEEEC1B8de190102ERNS_13basic_ostreamIcS2_EE, symObjAddr: 0x298C, symBinAddr: 0x100003AA0, symSize: 0x34 }
  - { offset: 0x12166, size: 0x8, addend: 0x0, symName: __ZNKSt3__18ios_base5flagsB8de190102Ev, symObjAddr: 0x29C0, symBinAddr: 0x100003AD4, symSize: 0x18 }
  - { offset: 0x1218D, size: 0x8, addend: 0x0, symName: __ZNKSt3__19basic_iosIcNS_11char_traitsIcEEE4fillB8de190102Ev, symObjAddr: 0x29D8, symBinAddr: 0x100003AEC, symSize: 0x64 }
  - { offset: 0x121B2, size: 0x8, addend: 0x0, symName: __ZNKSt3__119ostreambuf_iteratorIcNS_11char_traitsIcEEE6failedB8de190102Ev, symObjAddr: 0x2A3C, symBinAddr: 0x100003B50, symSize: 0x20 }
  - { offset: 0x121D7, size: 0x8, addend: 0x0, symName: __ZNSt3__19basic_iosIcNS_11char_traitsIcEEE8setstateB8de190102Ej, symObjAddr: 0x2A5C, symBinAddr: 0x100003B70, symSize: 0x2C }
  - { offset: 0x1220B, size: 0x8, addend: 0x0, symName: __ZNKSt3__18ios_base5widthB8de190102Ev, symObjAddr: 0x2A88, symBinAddr: 0x100003B9C, symSize: 0x18 }
  - { offset: 0x12232, size: 0x8, addend: 0x0, symName: __ZNSt3__115basic_streambufIcNS_11char_traitsIcEEE5sputnB8de190102EPKcl, symObjAddr: 0x2AA0, symBinAddr: 0x100003BB4, symSize: 0x3C }
  - { offset: 0x12273, size: 0x8, addend: 0x0, symName: __ZNSt3__112basic_stringIcNS_11char_traitsIcEENS_9allocatorIcEEEC1B8de190102Emc, symObjAddr: 0x2ADC, symBinAddr: 0x100003BF0, symSize: 0x3C }
  - { offset: 0x122BA, size: 0x8, addend: 0x0, symName: __ZNSt3__18ios_base5widthB8de190102El, symObjAddr: 0x2B18, symBinAddr: 0x100003C2C, symSize: 0x2C }
  - { offset: 0x122FF, size: 0x8, addend: 0x0, symName: __ZNSt3__112basic_stringIcNS_11char_traitsIcEENS_9allocatorIcEEEC2B8de190102Emc, symObjAddr: 0x2B44, symBinAddr: 0x100003C58, symSize: 0x4C }
  - { offset: 0x12346, size: 0x8, addend: 0x0, symName: __ZNSt3__119ostreambuf_iteratorIcNS_11char_traitsIcEEEC2B8de190102ERNS_13basic_ostreamIcS2_EE, symObjAddr: 0x2B90, symBinAddr: 0x100003CA4, symSize: 0x54 }
  - { offset: 0x1237D, size: 0x8, addend: 0x0, symName: __ZNKSt3__19basic_iosIcNS_11char_traitsIcEEE5rdbufB8de190102Ev, symObjAddr: 0x2BE4, symBinAddr: 0x100003CF8, symSize: 0x24 }
  - { offset: 0x123A2, size: 0x8, addend: 0x0, symName: __ZNKSt3__18ios_base5rdbufB8de190102Ev, symObjAddr: 0x2C08, symBinAddr: 0x100003D1C, symSize: 0x18 }
  - { offset: 0x123C7, size: 0x8, addend: 0x0, symName: __ZNKSt3__118_SentinelValueFillINS_11char_traitsIcEEE8__is_setB8de190102Ev, symObjAddr: 0x2C20, symBinAddr: 0x100003D34, symSize: 0x38 }
  - { offset: 0x123EC, size: 0x8, addend: 0x0, symName: __ZNKSt3__19basic_iosIcNS_11char_traitsIcEEE5widenB8de190102Ec, symObjAddr: 0x2C58, symBinAddr: 0x100003D6C, symSize: 0x80 }
  - { offset: 0x12420, size: 0x8, addend: 0x0, symName: __ZNSt3__118_SentinelValueFillINS_11char_traitsIcEEEaSB8de190102Ei, symObjAddr: 0x2CD8, symBinAddr: 0x100003DEC, symSize: 0x20 }
  - { offset: 0x12454, size: 0x8, addend: 0x0, symName: __ZNKSt3__118_SentinelValueFillINS_11char_traitsIcEEE5__getB8de190102Ev, symObjAddr: 0x2CF8, symBinAddr: 0x100003E0C, symSize: 0x18 }
  - { offset: 0x124AB, size: 0x8, addend: 0x0, symName: __ZNKSt3__15ctypeIcE5widenB8de190102Ec, symObjAddr: 0x2D3C, symBinAddr: 0x100003E50, symSize: 0x34 }
  - { offset: 0x124DF, size: 0x8, addend: 0x0, symName: __ZNSt3__18ios_base8setstateB8de190102Ej, symObjAddr: 0x2D70, symBinAddr: 0x100003E84, symSize: 0x34 }
  - { offset: 0x12515, size: 0x8, addend: 0x0, symName: __ZNKSt3__115basic_stringbufIcNS_11char_traitsIcEENS_9allocatorIcEEE3strEv, symObjAddr: 0x2DA4, symBinAddr: 0x100003EB8, symSize: 0x114 }
  - { offset: 0x1253A, size: 0x8, addend: 0x0, symName: __ZNKSt3__112basic_stringIcNS_11char_traitsIcEENS_9allocatorIcEEE13get_allocatorB8de190102Ev, symObjAddr: 0x2EB8, symBinAddr: 0x100003FCC, symSize: 0x24 }
  - { offset: 0x1255F, size: 0x8, addend: 0x0, symName: __ZNSt3__112basic_stringIcNS_11char_traitsIcEENS_9allocatorIcEEEC1B8de190102IPcLi0EEET_S8_RKS4_, symObjAddr: 0x2EDC, symBinAddr: 0x100003FF0, symSize: 0x44 }
  - { offset: 0x125C4, size: 0x8, addend: 0x0, symName: __ZNSt3__112basic_stringIcNS_11char_traitsIcEENS_9allocatorIcEEEC1B8de190102ERKS4_, symObjAddr: 0x2F20, symBinAddr: 0x100004034, symSize: 0x34 }
  - { offset: 0x125FC, size: 0x8, addend: 0x0, symName: __ZNKSt3__112basic_stringIcNS_11char_traitsIcEENS_9allocatorIcEEE7__allocB8de190102Ev, symObjAddr: 0x2F54, symBinAddr: 0x100004068, symSize: 0x24 }
  - { offset: 0x12621, size: 0x8, addend: 0x0, symName: __ZNKSt3__117__compressed_pairINS_12basic_stringIcNS_11char_traitsIcEENS_9allocatorIcEEE5__repES5_E6secondB8de190102Ev, symObjAddr: 0x2F78, symBinAddr: 0x10000408C, symSize: 0x24 }
  - { offset: 0x12646, size: 0x8, addend: 0x0, symName: __ZNKSt3__122__compressed_pair_elemINS_9allocatorIcEELi1ELb1EE5__getB8de190102Ev, symObjAddr: 0x2F9C, symBinAddr: 0x1000040B0, symSize: 0x14 }
  - { offset: 0x1266B, size: 0x8, addend: 0x0, symName: __ZNSt3__112basic_stringIcNS_11char_traitsIcEENS_9allocatorIcEEEC2B8de190102IPcLi0EEET_S8_RKS4_, symObjAddr: 0x2FB0, symBinAddr: 0x1000040C4, symSize: 0x50 }
  - { offset: 0x126D0, size: 0x8, addend: 0x0, symName: __ZNSt3__117__compressed_pairINS_12basic_stringIcNS_11char_traitsIcEENS_9allocatorIcEEE5__repES5_EC1B8de190102INS_18__default_init_tagERKS5_EEOT_OT0_, symObjAddr: 0x3000, symBinAddr: 0x100004114, symSize: 0x3C }
  - { offset: 0x12727, size: 0x8, addend: 0x0, symName: __ZNSt3__112basic_stringIcNS_11char_traitsIcEENS_9allocatorIcEEE6__initIPcLi0EEEvT_S8_, symObjAddr: 0x303C, symBinAddr: 0x100004150, symSize: 0x54 }
  - { offset: 0x12788, size: 0x8, addend: 0x0, symName: __ZNSt3__117__compressed_pairINS_12basic_stringIcNS_11char_traitsIcEENS_9allocatorIcEEE5__repES5_EC2B8de190102INS_18__default_init_tagERKS5_EEOT_OT0_, symObjAddr: 0x3090, symBinAddr: 0x1000041A4, symSize: 0x40 }
  - { offset: 0x127DF, size: 0x8, addend: 0x0, symName: __ZNSt3__122__compressed_pair_elemINS_9allocatorIcEELi1ELb1EEC2B8de190102IRKS2_Li0EEEOT_, symObjAddr: 0x30D0, symBinAddr: 0x1000041E4, symSize: 0x18 }
  - { offset: 0x12825, size: 0x8, addend: 0x0, symName: __ZNSt3__112basic_stringIcNS_11char_traitsIcEENS_9allocatorIcEEE16__init_with_sizeB8de190102IPcS7_EEvT_T0_m, symObjAddr: 0x3114, symBinAddr: 0x100004228, symSize: 0x1D4 }
  - { offset: 0x128D4, size: 0x8, addend: 0x0, symName: __ZNKSt3__112basic_stringIcNS_11char_traitsIcEENS_9allocatorIcEEE8max_sizeB8de190102Ev, symObjAddr: 0x3308, symBinAddr: 0x10000441C, symSize: 0xA8 }
  - { offset: 0x12926, size: 0x8, addend: 0x0, symName: __ZNKSt3__112basic_stringIcNS_11char_traitsIcEENS_9allocatorIcEEE20__throw_length_errorB8de190102Ev, symObjAddr: 0x33B0, symBinAddr: 0x1000044C4, symSize: 0x1C }
  - { offset: 0x1294B, size: 0x8, addend: 0x0, symName: __ZNSt3__112basic_stringIcNS_11char_traitsIcEENS_9allocatorIcEEE13__fits_in_ssoB8de190102Em, symObjAddr: 0x33CC, symBinAddr: 0x1000044E0, symSize: 0x1C }
  - { offset: 0x1296F, size: 0x8, addend: 0x0, symName: __ZNSt3__112basic_stringIcNS_11char_traitsIcEENS_9allocatorIcEEE16__set_short_sizeB8de190102Em, symObjAddr: 0x33E8, symBinAddr: 0x1000044FC, symSize: 0x94 }
  - { offset: 0x129A3, size: 0x8, addend: 0x0, symName: __ZNSt3__112basic_stringIcNS_11char_traitsIcEENS_9allocatorIcEEE19__get_short_pointerB8de190102Ev, symObjAddr: 0x347C, symBinAddr: 0x100004590, symSize: 0x28 }
  - { offset: 0x129C8, size: 0x8, addend: 0x0, symName: __ZNSt3__112basic_stringIcNS_11char_traitsIcEENS_9allocatorIcEEE7__allocB8de190102Ev, symObjAddr: 0x34E4, symBinAddr: 0x1000045F8, symSize: 0x24 }
  - { offset: 0x129ED, size: 0x8, addend: 0x0, symName: __ZNSt3__112basic_stringIcNS_11char_traitsIcEENS_9allocatorIcEEE11__recommendB8de190102Em, symObjAddr: 0x3508, symBinAddr: 0x10000461C, symSize: 0x84 }
  - { offset: 0x12A2F, size: 0x8, addend: 0x0, symName: __ZNSt3__112basic_stringIcNS_11char_traitsIcEENS_9allocatorIcEEE16__begin_lifetimeB8de190102EPcm, symObjAddr: 0x358C, symBinAddr: 0x1000046A0, symSize: 0x14 }
  - { offset: 0x12A62, size: 0x8, addend: 0x0, symName: __ZNSt3__112basic_stringIcNS_11char_traitsIcEENS_9allocatorIcEEE18__set_long_pointerB8de190102EPc, symObjAddr: 0x35A0, symBinAddr: 0x1000046B4, symSize: 0x38 }
  - { offset: 0x12A96, size: 0x8, addend: 0x0, symName: __ZNSt3__112basic_stringIcNS_11char_traitsIcEENS_9allocatorIcEEE14__set_long_capB8de190102Em, symObjAddr: 0x35D8, symBinAddr: 0x1000046EC, symSize: 0x70 }
  - { offset: 0x12ACA, size: 0x8, addend: 0x0, symName: __ZNSt3__112basic_stringIcNS_11char_traitsIcEENS_9allocatorIcEEE15__set_long_sizeB8de190102Em, symObjAddr: 0x3648, symBinAddr: 0x10000475C, symSize: 0x38 }
  - { offset: 0x12AFE, size: 0x8, addend: 0x0, symName: __ZNSt3__112basic_stringIcNS_11char_traitsIcEENS_9allocatorIcEEE28__copy_non_overlapping_rangeB8de190102IPcS7_EES7_T_T0_S7_, symObjAddr: 0x3680, symBinAddr: 0x100004794, symSize: 0x60 }
  - { offset: 0x12B52, size: 0x8, addend: 0x0, symName: __ZNSt3__111char_traitsIcE6assignB8de190102ERcRKc, symObjAddr: 0x36F4, symBinAddr: 0x100004808, symSize: 0x24 }
  - { offset: 0x12B83, size: 0x8, addend: 0x0, symName: __ZNSt3__116allocator_traitsINS_9allocatorIcEEE10deallocateB8de190102ERS2_Pcm, symObjAddr: 0x3718, symBinAddr: 0x10000482C, symSize: 0x34 }
  - { offset: 0x12BC5, size: 0x8, addend: 0x0, symName: __ZNSt3__112basic_stringIcNS_11char_traitsIcEENS_9allocatorIcEEE18__get_long_pointerB8de190102Ev, symObjAddr: 0x374C, symBinAddr: 0x100004860, symSize: 0x28 }
  - { offset: 0x12BF4, size: 0x8, addend: 0x0, symName: __ZNSt3__116allocator_traitsINS_9allocatorIcEEE8max_sizeB8de190102IS2_Li0EEEmRKS2_, symObjAddr: 0x3774, symBinAddr: 0x100004888, symSize: 0x24 }
  - { offset: 0x12C27, size: 0x8, addend: 0x0, symName: __ZNSt3__114numeric_limitsImE3maxB8de190102Ev, symObjAddr: 0x3798, symBinAddr: 0x1000048AC, symSize: 0x14 }
  - { offset: 0x12C3B, size: 0x8, addend: 0x0, symName: __ZNKSt3__19allocatorIcE8max_sizeB8de190102Ev, symObjAddr: 0x37AC, symBinAddr: 0x1000048C0, symSize: 0x14 }
  - { offset: 0x12C60, size: 0x8, addend: 0x0, symName: __ZNSt3__123__libcpp_numeric_limitsImLb1EE3maxB8de190102Ev, symObjAddr: 0x37C0, symBinAddr: 0x1000048D4, symSize: 0x8 }
  - { offset: 0x12C74, size: 0x8, addend: 0x0, symName: __ZNSt12length_errorC1B8de190102EPKc, symObjAddr: 0x382C, symBinAddr: 0x100004940, symSize: 0x34 }
  - { offset: 0x12CAB, size: 0x8, addend: 0x0, symName: __ZNSt12length_errorC2B8de190102EPKc, symObjAddr: 0x3860, symBinAddr: 0x100004974, symSize: 0x44 }
  - { offset: 0x12CE2, size: 0x8, addend: 0x0, symName: __ZNSt3__117__compressed_pairINS_12basic_stringIcNS_11char_traitsIcEENS_9allocatorIcEEE5__repES5_E5firstB8de190102Ev, symObjAddr: 0x38A4, symBinAddr: 0x1000049B8, symSize: 0x24 }
  - { offset: 0x12D07, size: 0x8, addend: 0x0, symName: __ZNSt3__122__compressed_pair_elemINS_12basic_stringIcNS_11char_traitsIcEENS_9allocatorIcEEE5__repELi0ELb0EE5__getB8de190102Ev, symObjAddr: 0x38C8, symBinAddr: 0x1000049DC, symSize: 0x14 }
  - { offset: 0x12D2C, size: 0x8, addend: 0x0, symName: __ZNSt3__114pointer_traitsIPcE10pointer_toB8de190102ERc, symObjAddr: 0x38DC, symBinAddr: 0x1000049F0, symSize: 0x14 }
  - { offset: 0x12D4F, size: 0x8, addend: 0x0, symName: __ZNSt3__19allocatorIcE8allocateB8de190102Em, symObjAddr: 0x38F0, symBinAddr: 0x100004A04, symSize: 0x54 }
  - { offset: 0x12D82, size: 0x8, addend: 0x0, symName: __ZNSt3__117__compressed_pairINS_12basic_stringIcNS_11char_traitsIcEENS_9allocatorIcEEE5__repES5_E6secondB8de190102Ev, symObjAddr: 0x39C4, symBinAddr: 0x100004AD8, symSize: 0x24 }
  - { offset: 0x12DA7, size: 0x8, addend: 0x0, symName: __ZNSt3__122__compressed_pair_elemINS_9allocatorIcEELi1ELb1EE5__getB8de190102Ev, symObjAddr: 0x39E8, symBinAddr: 0x100004AFC, symSize: 0x14 }
  - { offset: 0x12DCC, size: 0x8, addend: 0x0, symName: __ZNSt3__112basic_stringIcNS_11char_traitsIcEENS_9allocatorIcEEE10__align_itB8de190102ILm8EEEmm, symObjAddr: 0x39FC, symBinAddr: 0x100004B10, symSize: 0x1C }
  - { offset: 0x12DFA, size: 0x8, addend: 0x0, symName: __ZNSt3__111char_traitsIcE4copyB8de190102EPcPKcm, symObjAddr: 0x3A18, symBinAddr: 0x100004B2C, symSize: 0x74 }
  - { offset: 0x12E39, size: 0x8, addend: 0x0, symName: __ZNSt3__19allocatorIcE10deallocateB8de190102EPcm, symObjAddr: 0x3B6C, symBinAddr: 0x100004C80, symSize: 0x40 }
  - { offset: 0x12E7A, size: 0x8, addend: 0x0, symName: __ZNSt3__112basic_stringIcNS_11char_traitsIcEENS_9allocatorIcEEEC2B8de190102ERKS4_, symObjAddr: 0x3C28, symBinAddr: 0x100004D3C, symSize: 0x4C }
  - { offset: 0x12EB2, size: 0x8, addend: 0x0, symName: __ZNSt3__117__compressed_pairINS_12basic_stringIcNS_11char_traitsIcEENS_9allocatorIcEEE5__repES5_EC1B8de190102INS_16__value_init_tagERKS5_EEOT_OT0_, symObjAddr: 0x3C74, symBinAddr: 0x100004D88, symSize: 0x3C }
  - { offset: 0x12F09, size: 0x8, addend: 0x0, symName: __ZNSt3__117__compressed_pairINS_12basic_stringIcNS_11char_traitsIcEENS_9allocatorIcEEE5__repES5_EC2B8de190102INS_16__value_init_tagERKS5_EEOT_OT0_, symObjAddr: 0x3CB0, symBinAddr: 0x100004DC4, symSize: 0x40 }
  - { offset: 0x12F5F, size: 0x8, addend: 0x0, symName: __ZNSt3__118basic_stringstreamIcNS_11char_traitsIcEENS_9allocatorIcEEED2Ev, symObjAddr: 0x3CF0, symBinAddr: 0x100004E04, symSize: 0x6C }
  - { offset: 0x12F96, size: 0x8, addend: 0x0, symName: __ZN3MEL13KeyTypedEventC2Ei, symObjAddr: 0x3D5C, symBinAddr: 0x100004E70, symSize: 0x44 }
  - { offset: 0x12FCD, size: 0x8, addend: 0x0, symName: __ZNK3MEL13KeyTypedEvent12GetEventTypeEv, symObjAddr: 0x3DA0, symBinAddr: 0x100004EB4, symSize: 0x20 }
  - { offset: 0x12FF2, size: 0x8, addend: 0x0, symName: __ZNK3MEL13KeyTypedEvent7GetNameEv, symObjAddr: 0x3DC0, symBinAddr: 0x100004ED4, symSize: 0x18 }
  - { offset: 0x13017, size: 0x8, addend: 0x0, symName: __ZNK3MEL13KeyTypedEvent8ToStringEv, symObjAddr: 0x3DD8, symBinAddr: 0x100004EEC, symSize: 0xB8 }
  - { offset: 0x1304A, size: 0x8, addend: 0x0, symName: __ZN3MEL13KeyTypedEventD0Ev, symObjAddr: 0x3E90, symBinAddr: 0x100004FA4, symSize: 0x30 }
  - { offset: 0x13075, size: 0x8, addend: 0x0, symName: __ZN3MEL13KeyTypedEvent13GetStaticTypeEv, symObjAddr: 0x3EC0, symBinAddr: 0x100004FD4, symSize: 0x8 }
  - { offset: 0x13088, size: 0x8, addend: 0x0, symName: __ZN3MEL13KeyTypedEventD2Ev, symObjAddr: 0x3EC8, symBinAddr: 0x100004FDC, symSize: 0x2C }
  - { offset: 0x130B2, size: 0x8, addend: 0x0, symName: __ZN3MEL8KeyEventD2Ev, symObjAddr: 0x3EF4, symBinAddr: 0x100005008, symSize: 0x2C }
  - { offset: 0x130DD, size: 0x8, addend: 0x0, symName: __ZN3MEL5EventD2Ev, symObjAddr: 0x3F20, symBinAddr: 0x100005034, symSize: 0x14 }
  - { offset: 0x13105, size: 0x8, addend: 0x0, symName: __ZN3MEL15KeyPressedEventD2Ev, symObjAddr: 0x3F34, symBinAddr: 0x100005048, symSize: 0x2C }
  - { offset: 0x13130, size: 0x8, addend: 0x0, symName: __ZN3MEL16KeyReleasedEventC2Ei, symObjAddr: 0x3F60, symBinAddr: 0x100005074, symSize: 0x44 }
  - { offset: 0x13167, size: 0x8, addend: 0x0, symName: __ZNK3MEL16KeyReleasedEvent12GetEventTypeEv, symObjAddr: 0x3FA4, symBinAddr: 0x1000050B8, symSize: 0x20 }
  - { offset: 0x1318C, size: 0x8, addend: 0x0, symName: __ZNK3MEL16KeyReleasedEvent7GetNameEv, symObjAddr: 0x3FC4, symBinAddr: 0x1000050D8, symSize: 0x18 }
  - { offset: 0x131B1, size: 0x8, addend: 0x0, symName: __ZNK3MEL16KeyReleasedEvent8ToStringEv, symObjAddr: 0x3FDC, symBinAddr: 0x1000050F0, symSize: 0xB8 }
  - { offset: 0x131E4, size: 0x8, addend: 0x0, symName: __ZN3MEL16KeyReleasedEventD0Ev, symObjAddr: 0x4094, symBinAddr: 0x1000051A8, symSize: 0x30 }
  - { offset: 0x1320F, size: 0x8, addend: 0x0, symName: __ZN3MEL16KeyReleasedEvent13GetStaticTypeEv, symObjAddr: 0x40C4, symBinAddr: 0x1000051D8, symSize: 0x8 }
  - { offset: 0x13222, size: 0x8, addend: 0x0, symName: __ZN3MEL16KeyReleasedEventD2Ev, symObjAddr: 0x40CC, symBinAddr: 0x1000051E0, symSize: 0x2C }
  - { offset: 0x1324D, size: 0x8, addend: 0x0, symName: __ZN3MEL23MouseButtonPressedEventC2Ei, symObjAddr: 0x40F8, symBinAddr: 0x10000520C, symSize: 0x44 }
  - { offset: 0x13284, size: 0x8, addend: 0x0, symName: __ZN3MEL16MouseButtonEventC2Ei, symObjAddr: 0x413C, symBinAddr: 0x100005250, symSize: 0x48 }
  - { offset: 0x132BB, size: 0x8, addend: 0x0, symName: __ZNK3MEL23MouseButtonPressedEvent12GetEventTypeEv, symObjAddr: 0x4184, symBinAddr: 0x100005298, symSize: 0x20 }
  - { offset: 0x132E0, size: 0x8, addend: 0x0, symName: __ZNK3MEL23MouseButtonPressedEvent7GetNameEv, symObjAddr: 0x41A4, symBinAddr: 0x1000052B8, symSize: 0x18 }
  - { offset: 0x13305, size: 0x8, addend: 0x0, symName: __ZNK3MEL16MouseButtonEvent16GetCategoryFlagsEv, symObjAddr: 0x41BC, symBinAddr: 0x1000052D0, symSize: 0x14 }
  - { offset: 0x1332A, size: 0x8, addend: 0x0, symName: __ZNK3MEL23MouseButtonPressedEvent8ToStringEv, symObjAddr: 0x41D0, symBinAddr: 0x1000052E4, symSize: 0xB8 }
  - { offset: 0x1335D, size: 0x8, addend: 0x0, symName: __ZN3MEL23MouseButtonPressedEventD0Ev, symObjAddr: 0x4288, symBinAddr: 0x10000539C, symSize: 0x30 }
  - { offset: 0x13387, size: 0x8, addend: 0x0, symName: __ZN3MEL16MouseButtonEventD1Ev, symObjAddr: 0x42B8, symBinAddr: 0x1000053CC, symSize: 0x14 }
  - { offset: 0x133B1, size: 0x8, addend: 0x0, symName: __ZN3MEL16MouseButtonEventD0Ev, symObjAddr: 0x42CC, symBinAddr: 0x1000053E0, symSize: 0xC }
  - { offset: 0x133DC, size: 0x8, addend: 0x0, symName: __ZN3MEL23MouseButtonPressedEvent13GetStaticTypeEv, symObjAddr: 0x42D8, symBinAddr: 0x1000053EC, symSize: 0x8 }
  - { offset: 0x133EF, size: 0x8, addend: 0x0, symName: __ZN3MEL23MouseButtonPressedEventD2Ev, symObjAddr: 0x42E0, symBinAddr: 0x1000053F4, symSize: 0x2C }
  - { offset: 0x13419, size: 0x8, addend: 0x0, symName: __ZN3MEL16MouseButtonEventD2Ev, symObjAddr: 0x430C, symBinAddr: 0x100005420, symSize: 0x2C }
  - { offset: 0x13444, size: 0x8, addend: 0x0, symName: __ZN3MEL24MouseButtonReleasedEventC2Ei, symObjAddr: 0x4338, symBinAddr: 0x10000544C, symSize: 0x44 }
  - { offset: 0x1347B, size: 0x8, addend: 0x0, symName: __ZNK3MEL24MouseButtonReleasedEvent12GetEventTypeEv, symObjAddr: 0x437C, symBinAddr: 0x100005490, symSize: 0x20 }
  - { offset: 0x134A0, size: 0x8, addend: 0x0, symName: __ZNK3MEL24MouseButtonReleasedEvent7GetNameEv, symObjAddr: 0x439C, symBinAddr: 0x1000054B0, symSize: 0x18 }
  - { offset: 0x134C5, size: 0x8, addend: 0x0, symName: __ZNK3MEL24MouseButtonReleasedEvent8ToStringEv, symObjAddr: 0x43B4, symBinAddr: 0x1000054C8, symSize: 0xB8 }
  - { offset: 0x134F8, size: 0x8, addend: 0x0, symName: __ZN3MEL24MouseButtonReleasedEventD0Ev, symObjAddr: 0x446C, symBinAddr: 0x100005580, symSize: 0x30 }
  - { offset: 0x13523, size: 0x8, addend: 0x0, symName: __ZN3MEL24MouseButtonReleasedEvent13GetStaticTypeEv, symObjAddr: 0x449C, symBinAddr: 0x1000055B0, symSize: 0x8 }
  - { offset: 0x13536, size: 0x8, addend: 0x0, symName: __ZN3MEL24MouseButtonReleasedEventD2Ev, symObjAddr: 0x44A4, symBinAddr: 0x1000055B8, symSize: 0x2C }
  - { offset: 0x13561, size: 0x8, addend: 0x0, symName: __ZN3MEL15MouseMovedEventC2Eff, symObjAddr: 0x44D0, symBinAddr: 0x1000055E4, symSize: 0x54 }
  - { offset: 0x135A6, size: 0x8, addend: 0x0, symName: __ZNK3MEL15MouseMovedEvent12GetEventTypeEv, symObjAddr: 0x4524, symBinAddr: 0x100005638, symSize: 0x20 }
  - { offset: 0x135CB, size: 0x8, addend: 0x0, symName: __ZNK3MEL15MouseMovedEvent7GetNameEv, symObjAddr: 0x4544, symBinAddr: 0x100005658, symSize: 0x18 }
  - { offset: 0x135F0, size: 0x8, addend: 0x0, symName: __ZNK3MEL15MouseMovedEvent16GetCategoryFlagsEv, symObjAddr: 0x455C, symBinAddr: 0x100005670, symSize: 0x14 }
  - { offset: 0x13615, size: 0x8, addend: 0x0, symName: __ZNK3MEL15MouseMovedEvent8ToStringEv, symObjAddr: 0x4570, symBinAddr: 0x100005684, symSize: 0xE8 }
  - { offset: 0x13649, size: 0x8, addend: 0x0, symName: __ZN3MEL15MouseMovedEventD0Ev, symObjAddr: 0x4658, symBinAddr: 0x10000576C, symSize: 0x30 }
  - { offset: 0x13674, size: 0x8, addend: 0x0, symName: __ZN3MEL15MouseMovedEvent13GetStaticTypeEv, symObjAddr: 0x4688, symBinAddr: 0x10000579C, symSize: 0x8 }
  - { offset: 0x13687, size: 0x8, addend: 0x0, symName: __ZN3MEL15MouseMovedEventD2Ev, symObjAddr: 0x4690, symBinAddr: 0x1000057A4, symSize: 0x2C }
  - { offset: 0x136B2, size: 0x8, addend: 0x0, symName: __ZN3MEL18MouseScrolledEventC2Eff, symObjAddr: 0x46BC, symBinAddr: 0x1000057D0, symSize: 0x54 }
  - { offset: 0x136F7, size: 0x8, addend: 0x0, symName: __ZNK3MEL18MouseScrolledEvent12GetEventTypeEv, symObjAddr: 0x4710, symBinAddr: 0x100005824, symSize: 0x20 }
  - { offset: 0x1371C, size: 0x8, addend: 0x0, symName: __ZNK3MEL18MouseScrolledEvent7GetNameEv, symObjAddr: 0x4730, symBinAddr: 0x100005844, symSize: 0x18 }
  - { offset: 0x13741, size: 0x8, addend: 0x0, symName: __ZNK3MEL18MouseScrolledEvent16GetCategoryFlagsEv, symObjAddr: 0x4748, symBinAddr: 0x10000585C, symSize: 0x14 }
  - { offset: 0x13766, size: 0x8, addend: 0x0, symName: __ZNK3MEL18MouseScrolledEvent8ToStringEv, symObjAddr: 0x475C, symBinAddr: 0x100005870, symSize: 0x100 }
  - { offset: 0x1379A, size: 0x8, addend: 0x0, symName: __ZN3MEL18MouseScrolledEventD0Ev, symObjAddr: 0x485C, symBinAddr: 0x100005970, symSize: 0x30 }
  - { offset: 0x137C5, size: 0x8, addend: 0x0, symName: __ZN3MEL18MouseScrolledEvent13GetStaticTypeEv, symObjAddr: 0x488C, symBinAddr: 0x1000059A0, symSize: 0x8 }
  - { offset: 0x137D9, size: 0x8, addend: 0x0, symName: __ZNK3MEL18MouseScrolledEvent10GetXOffsetEv, symObjAddr: 0x4894, symBinAddr: 0x1000059A8, symSize: 0x18 }
  - { offset: 0x137FE, size: 0x8, addend: 0x0, symName: __ZNK3MEL18MouseScrolledEvent10GetYOffsetEv, symObjAddr: 0x48AC, symBinAddr: 0x1000059C0, symSize: 0x18 }
  - { offset: 0x13822, size: 0x8, addend: 0x0, symName: __ZN3MEL18MouseScrolledEventD2Ev, symObjAddr: 0x48C4, symBinAddr: 0x1000059D8, symSize: 0x2C }
  - { offset: 0x1384D, size: 0x8, addend: 0x0, symName: __ZN3MEL17WindowResizeEventC2Ejj, symObjAddr: 0x48F0, symBinAddr: 0x100005A04, symSize: 0x54 }
  - { offset: 0x13892, size: 0x8, addend: 0x0, symName: __ZNK3MEL17WindowResizeEvent12GetEventTypeEv, symObjAddr: 0x4944, symBinAddr: 0x100005A58, symSize: 0x20 }
  - { offset: 0x138B7, size: 0x8, addend: 0x0, symName: __ZNK3MEL17WindowResizeEvent7GetNameEv, symObjAddr: 0x4964, symBinAddr: 0x100005A78, symSize: 0x18 }
  - { offset: 0x138DC, size: 0x8, addend: 0x0, symName: __ZNK3MEL17WindowResizeEvent16GetCategoryFlagsEv, symObjAddr: 0x497C, symBinAddr: 0x100005A90, symSize: 0x14 }
  - { offset: 0x13901, size: 0x8, addend: 0x0, symName: __ZNK3MEL17WindowResizeEvent8ToStringEv, symObjAddr: 0x4990, symBinAddr: 0x100005AA4, symSize: 0xE8 }
  - { offset: 0x13935, size: 0x8, addend: 0x0, symName: __ZN3MEL17WindowResizeEventD0Ev, symObjAddr: 0x4A78, symBinAddr: 0x100005B8C, symSize: 0x30 }
  - { offset: 0x13960, size: 0x8, addend: 0x0, symName: __ZN3MEL17WindowResizeEvent13GetStaticTypeEv, symObjAddr: 0x4AA8, symBinAddr: 0x100005BBC, symSize: 0x8 }
  - { offset: 0x13973, size: 0x8, addend: 0x0, symName: __ZN3MEL17WindowResizeEventD2Ev, symObjAddr: 0x4AB0, symBinAddr: 0x100005BC4, symSize: 0x2C }
  - { offset: 0x1399E, size: 0x8, addend: 0x0, symName: __ZN3MEL16WindowCloseEventC2Ev, symObjAddr: 0x4ADC, symBinAddr: 0x100005BF0, symSize: 0x3C }
  - { offset: 0x139C7, size: 0x8, addend: 0x0, symName: __ZNK3MEL16WindowCloseEvent12GetEventTypeEv, symObjAddr: 0x4B18, symBinAddr: 0x100005C2C, symSize: 0x20 }
  - { offset: 0x139EC, size: 0x8, addend: 0x0, symName: __ZNK3MEL16WindowCloseEvent7GetNameEv, symObjAddr: 0x4B38, symBinAddr: 0x100005C4C, symSize: 0x18 }
  - { offset: 0x13A11, size: 0x8, addend: 0x0, symName: __ZNK3MEL16WindowCloseEvent16GetCategoryFlagsEv, symObjAddr: 0x4B50, symBinAddr: 0x100005C64, symSize: 0x14 }
  - { offset: 0x13A35, size: 0x8, addend: 0x0, symName: __ZN3MEL16WindowCloseEventD0Ev, symObjAddr: 0x4B64, symBinAddr: 0x100005C78, symSize: 0x30 }
  - { offset: 0x13A60, size: 0x8, addend: 0x0, symName: __ZN3MEL16WindowCloseEvent13GetStaticTypeEv, symObjAddr: 0x4B94, symBinAddr: 0x100005CA8, symSize: 0x8 }
  - { offset: 0x13A73, size: 0x8, addend: 0x0, symName: __ZN3MEL16WindowCloseEventD2Ev, symObjAddr: 0x4B9C, symBinAddr: 0x100005CB0, symSize: 0x2C }
  - { offset: 0x15E87, size: 0x8, addend: 0x0, symName: '-[WindowManager initWithFrame:title:]', symObjAddr: 0x0, symBinAddr: 0x100005CDC, symSize: 0x1E4 }
  - { offset: 0x15FAB, size: 0x8, addend: 0x0, symName: '-[WindowManager initWithFrame:title:]', symObjAddr: 0x0, symBinAddr: 0x100005CDC, symSize: 0x1E4 }
  - { offset: 0x1602E, size: 0x8, addend: 0x0, symName: '-[WindowManager show]', symObjAddr: 0x1E4, symBinAddr: 0x100005EC0, symSize: 0x34 }
  - { offset: 0x16061, size: 0x8, addend: 0x0, symName: '-[WindowManager window]', symObjAddr: 0x218, symBinAddr: 0x100005EF4, symSize: 0x1C }
  - { offset: 0x16098, size: 0x8, addend: 0x0, symName: '-[WindowManager viewController]', symObjAddr: 0x234, symBinAddr: 0x100005F10, symSize: 0x1C }
  - { offset: 0x189E1, size: 0x8, addend: 0x0, symName: __ZN6spdlog7details2os9thread_idEv, symObjAddr: 0x914, symBinAddr: 0x10000660C, symSize: 0x88 }
  - { offset: 0x18A0D, size: 0x8, addend: 0x0, symName: __ZZN6spdlog7details2os9thread_idEvE3tid, symObjAddr: 0x1BBE, symBinAddr: 0x10007DA08, symSize: 0x0 }
  - { offset: 0x18A19, size: 0x8, addend: 0x0, symName: __ZN6spdlog7details2os3nowEv, symObjAddr: 0x7FC, symBinAddr: 0x1000064F4, symSize: 0x24 }
  - { offset: 0x18A36, size: 0x8, addend: 0x0, symName: __ZN6spdlog7details2os10_thread_idEv, symObjAddr: 0x99C, symBinAddr: 0x100006694, symSize: 0x30 }
  - { offset: 0x19620, size: 0x8, addend: 0x0, symName: __ZNSt3__117__cxx_atomic_loadB8de190102IiEET_PKNS_22__cxx_atomic_base_implIS1_EENS_12memory_orderE, symObjAddr: 0x45C, symBinAddr: 0x100006388, symSize: 0x78 }
  - { offset: 0x1967E, size: 0x8, addend: 0x0, symName: __ZNSt3__117__cxx_atomic_loadB8de190102IbEET_PKNS_22__cxx_atomic_base_implIS1_EENS_12memory_orderE, symObjAddr: 0x500, symBinAddr: 0x10000642C, symSize: 0x7C }
  - { offset: 0x20255, size: 0x8, addend: 0x0, symName: __ZN3fmt3v116detail11assert_failEPKciS3_, symObjAddr: 0xE9C, symBinAddr: 0x100006B84, symSize: 0x54 }
  - { offset: 0x2029A, size: 0x8, addend: 0x0, symName: __ZN3fmt3v116detail4copyIcPcS3_Li0EEET1_T0_S5_S4_, symObjAddr: 0x10E0, symBinAddr: 0x100006DC8, symSize: 0x58 }
  - { offset: 0x20308, size: 0x8, addend: 0x0, symName: __ZN3fmt3v116detail16abort_fuzzing_ifEb, symObjAddr: 0x177C, symBinAddr: 0x100007464, symSize: 0x28 }
  - { offset: 0x20331, size: 0x8, addend: 0x0, symName: __ZN3fmt3v116detail13ignore_unusedIJbEEEvDpRKT_, symObjAddr: 0x18B8, symBinAddr: 0x1000075A0, symSize: 0x10 }
  - { offset: 0x20365, size: 0x8, addend: 0x0, symName: __ZN3fmt3v116detail9max_valueImEET_v, symObjAddr: 0x18E4, symBinAddr: 0x1000075B0, symSize: 0x14 }
  - { offset: 0x2038D, size: 0x8, addend: 0x0, symName: __ZN3fmt3v116detail11to_unsignedIlEENSt3__113make_unsignedIT_E4typeES5_, symObjAddr: 0x18F8, symBinAddr: 0x1000075C4, symSize: 0x48 }
  - { offset: 0x20407, size: 0x8, addend: 0x0, symName: __ZN3fmt3v116min_ofImEET_S2_S2_, symObjAddr: 0x1214, symBinAddr: 0x100006EFC, symSize: 0x44 }
  - { offset: 0x2044E, size: 0x8, addend: 0x0, symName: __ZN3fmt3v116max_ofImEET_S2_S2_, symObjAddr: 0x17CC, symBinAddr: 0x1000074B4, symSize: 0x44 }
  - { offset: 0x206B8, size: 0x8, addend: 0x0, symName: _main, symObjAddr: 0x0, symBinAddr: 0x100005F2C, symSize: 0x74 }
  - { offset: 0x20C1E, size: 0x8, addend: 0x0, symName: __ZN3MEL3Log13GetCoreLoggerEv, symObjAddr: 0x74, symBinAddr: 0x100005FA0, symSize: 0xC }
  - { offset: 0x20C32, size: 0x8, addend: 0x0, symName: __ZNKSt3__110shared_ptrIN6spdlog6loggerEEptB8de190102Ev, symObjAddr: 0x80, symBinAddr: 0x100005FAC, symSize: 0x18 }
  - { offset: 0x20C6D, size: 0x8, addend: 0x0, symName: __ZN6spdlog6logger4infoIA8_cEEvRKT_, symObjAddr: 0x98, symBinAddr: 0x100005FC4, symSize: 0x30 }
  - { offset: 0x20CA9, size: 0x8, addend: 0x0, symName: __ZN6spdlog6logger3logIA8_cEEvNS_5level10level_enumERKT_, symObjAddr: 0xC8, symBinAddr: 0x100005FF4, symSize: 0x70 }
  - { offset: 0x20CF3, size: 0x8, addend: 0x0, symName: __ZN6spdlog6logger3logENS_10source_locENS_5level10level_enumEN3fmt3v1117basic_string_viewIcEE, symObjAddr: 0x138, symBinAddr: 0x100006064, symSize: 0xE8 }
  - { offset: 0x20D71, size: 0x8, addend: 0x0, symName: __ZN6spdlog10source_locC1Ev, symObjAddr: 0x220, symBinAddr: 0x10000614C, symSize: 0x2C }
  - { offset: 0x20D9A, size: 0x8, addend: 0x0, symName: __ZN3fmt3v1117basic_string_viewIcEC1EPKc, symObjAddr: 0x24C, symBinAddr: 0x100006178, symSize: 0x34 }
  - { offset: 0x20DD2, size: 0x8, addend: 0x0, symName: __ZNK6spdlog6logger10should_logENS_5level10level_enumE, symObjAddr: 0x280, symBinAddr: 0x1000061AC, symSize: 0x44 }
  - { offset: 0x20E06, size: 0x8, addend: 0x0, symName: __ZNK6spdlog7details10backtracer7enabledEv, symObjAddr: 0x2C4, symBinAddr: 0x1000061F0, symSize: 0x2C }
  - { offset: 0x20E2D, size: 0x8, addend: 0x0, symName: __ZN3fmt3v1117basic_string_viewIcEC1INSt3__112basic_stringIcNS4_11char_traitsIcEENS4_9allocatorIcEEEELi0EEERKT_, symObjAddr: 0x2F0, symBinAddr: 0x10000621C, symSize: 0x34 }
  - { offset: 0x20E73, size: 0x8, addend: 0x0, symName: __ZN6spdlog7details7log_msgC1ENS_10source_locEN3fmt3v1117basic_string_viewIcEENS_5level10level_enumES6_, symObjAddr: 0x324, symBinAddr: 0x100006250, symSize: 0x98 }
  - { offset: 0x20ED7, size: 0x8, addend: 0x0, symName: __ZN6spdlog6logger7log_it_ERKNS_7details7log_msgEbb, symObjAddr: 0x3BC, symBinAddr: 0x1000062E8, symSize: 0x74 }
  - { offset: 0x20F28, size: 0x8, addend: 0x0, symName: __ZNKSt3__113__atomic_baseIiLb0EE4loadB8de190102ENS_12memory_orderE, symObjAddr: 0x430, symBinAddr: 0x10000635C, symSize: 0x2C }
  - { offset: 0x20F5B, size: 0x8, addend: 0x0, symName: __ZNKSt3__113__atomic_baseIbLb0EE4loadB8de190102ENS_12memory_orderE, symObjAddr: 0x4D4, symBinAddr: 0x100006400, symSize: 0x2C }
  - { offset: 0x20F8E, size: 0x8, addend: 0x0, symName: __ZN3fmt3v1117basic_string_viewIcEC2INSt3__112basic_stringIcNS4_11char_traitsIcEENS4_9allocatorIcEEEELi0EEERKT_, symObjAddr: 0x57C, symBinAddr: 0x1000064A8, symSize: 0x4C }
  - { offset: 0x20FD4, size: 0x8, addend: 0x0, symName: __ZN6spdlog7details7log_msgC1ENSt3__16chrono10time_pointINS3_12system_clockENS3_8durationIxNS2_5ratioILl1ELl1000000EEEEEEENS_10source_locEN3fmt3v1117basic_string_viewIcEENS_5level10level_enumESF_, symObjAddr: 0x820, symBinAddr: 0x100006518, symSize: 0x64 }
  - { offset: 0x21045, size: 0x8, addend: 0x0, symName: __ZN6spdlog7details7log_msgC2ENSt3__16chrono10time_pointINS3_12system_clockENS3_8durationIxNS2_5ratioILl1ELl1000000EEEEEEENS_10source_locEN3fmt3v1117basic_string_viewIcEENS_5level10level_enumESF_, symObjAddr: 0x884, symBinAddr: 0x10000657C, symSize: 0x90 }
  - { offset: 0x210B7, size: 0x8, addend: 0x0, symName: __ZN6spdlog7details10backtracer9push_backERKNS0_7log_msgE, symObjAddr: 0x9DC, symBinAddr: 0x1000066C4, symSize: 0xF8 }
  - { offset: 0x2111A, size: 0x8, addend: 0x0, symName: __ZNSt3__110lock_guardINS_5mutexEEC1B8de190102ERS1_, symObjAddr: 0xAD4, symBinAddr: 0x1000067BC, symSize: 0x34 }
  - { offset: 0x21151, size: 0x8, addend: 0x0, symName: __ZN6spdlog7details10circular_qINS0_14log_msg_bufferEE9push_backEOS2_, symObjAddr: 0xB08, symBinAddr: 0x1000067F0, symSize: 0xC0 }
  - { offset: 0x21183, size: 0x8, addend: 0x0, symName: __ZN6spdlog7details14log_msg_bufferC1ERKNS0_7log_msgE, symObjAddr: 0xBC8, symBinAddr: 0x1000068B0, symSize: 0x34 }
  - { offset: 0x211BB, size: 0x8, addend: 0x0, symName: __ZN6spdlog7details14log_msg_bufferD1Ev, symObjAddr: 0xBFC, symBinAddr: 0x1000068E4, symSize: 0x2C }
  - { offset: 0x211E6, size: 0x8, addend: 0x0, symName: __ZNSt3__110lock_guardINS_5mutexEED1B8de190102Ev, symObjAddr: 0xC28, symBinAddr: 0x100006910, symSize: 0x2C }
  - { offset: 0x2120F, size: 0x8, addend: 0x0, symName: __ZNSt3__110lock_guardINS_5mutexEEC2B8de190102ERS1_, symObjAddr: 0xC54, symBinAddr: 0x10000693C, symSize: 0x3C }
  - { offset: 0x21246, size: 0x8, addend: 0x0, symName: __ZNSt3__16vectorIN6spdlog7details14log_msg_bufferENS_9allocatorIS3_EEEixB8de190102Em, symObjAddr: 0xC90, symBinAddr: 0x100006978, symSize: 0x64 }
  - { offset: 0x2127A, size: 0x8, addend: 0x0, symName: __ZN6spdlog7details14log_msg_bufferaSEOS1_, symObjAddr: 0xCF4, symBinAddr: 0x1000069DC, symSize: 0x5C }
  - { offset: 0x212AF, size: 0x8, addend: 0x0, symName: __ZNKSt3__16vectorIN6spdlog7details14log_msg_bufferENS_9allocatorIS3_EEE4sizeB8de190102Ev, symObjAddr: 0xD50, symBinAddr: 0x100006A38, symSize: 0x28 }
  - { offset: 0x212D4, size: 0x8, addend: 0x0, symName: __ZN3fmt3v1119basic_memory_bufferIcLm250ENS0_6detail9allocatorIcEEEaSEOS5_, symObjAddr: 0xD78, symBinAddr: 0x100006A60, symSize: 0x80 }
  - { offset: 0x21308, size: 0x8, addend: 0x0, symName: __ZN6spdlog7details14log_msg_buffer19update_string_viewsEv, symObjAddr: 0xDF8, symBinAddr: 0x100006AE0, symSize: 0xA4 }
  - { offset: 0x2132F, size: 0x8, addend: 0x0, symName: __ZN3fmt3v1119basic_memory_bufferIcLm250ENS0_6detail9allocatorIcEEE10deallocateEv, symObjAddr: 0xEF0, symBinAddr: 0x100006BD8, symSize: 0x74 }
  - { offset: 0x21363, size: 0x8, addend: 0x0, symName: __ZN3fmt3v1119basic_memory_bufferIcLm250ENS0_6detail9allocatorIcEEE4moveERS5_, symObjAddr: 0xF64, symBinAddr: 0x100006C4C, symSize: 0xDC }
  - { offset: 0x213C4, size: 0x8, addend: 0x0, symName: __ZN3fmt3v116detail6bufferIcE4dataEv, symObjAddr: 0x1040, symBinAddr: 0x100006D28, symSize: 0x18 }
  - { offset: 0x213E9, size: 0x8, addend: 0x0, symName: __ZN3fmt3v116detail9allocatorIcE10deallocateEPcm, symObjAddr: 0x1058, symBinAddr: 0x100006D40, symSize: 0x2C }
  - { offset: 0x21429, size: 0x8, addend: 0x0, symName: __ZNK3fmt3v116detail6bufferIcE8capacityEv, symObjAddr: 0x1084, symBinAddr: 0x100006D6C, symSize: 0x18 }
  - { offset: 0x2144E, size: 0x8, addend: 0x0, symName: __ZNK3fmt3v116detail6bufferIcE4sizeEv, symObjAddr: 0x109C, symBinAddr: 0x100006D84, symSize: 0x18 }
  - { offset: 0x21473, size: 0x8, addend: 0x0, symName: __ZN3fmt3v116detail6bufferIcE3setEPcm, symObjAddr: 0x10B4, symBinAddr: 0x100006D9C, symSize: 0x2C }
  - { offset: 0x214B6, size: 0x8, addend: 0x0, symName: __ZN3fmt3v116detail6bufferIcE5clearEv, symObjAddr: 0x1138, symBinAddr: 0x100006E20, symSize: 0x18 }
  - { offset: 0x214DB, size: 0x8, addend: 0x0, symName: __ZN3fmt3v1119basic_memory_bufferIcLm250ENS0_6detail9allocatorIcEEE6resizeEm, symObjAddr: 0x1150, symBinAddr: 0x100006E38, symSize: 0x2C }
  - { offset: 0x2150F, size: 0x8, addend: 0x0, symName: __ZN3fmt3v116detail6bufferIcE10try_resizeEm, symObjAddr: 0x117C, symBinAddr: 0x100006E64, symSize: 0x48 }
  - { offset: 0x21543, size: 0x8, addend: 0x0, symName: __ZN3fmt3v116detail6bufferIcE11try_reserveEm, symObjAddr: 0x11C4, symBinAddr: 0x100006EAC, symSize: 0x50 }
  - { offset: 0x21577, size: 0x8, addend: 0x0, symName: __ZNK3fmt3v1117basic_string_viewIcE4sizeEv, symObjAddr: 0x1258, symBinAddr: 0x100006F40, symSize: 0x18 }
  - { offset: 0x2159C, size: 0x8, addend: 0x0, symName: __ZN3fmt3v1117basic_string_viewIcEC1EPKcm, symObjAddr: 0x1270, symBinAddr: 0x100006F58, symSize: 0x3C }
  - { offset: 0x215E3, size: 0x8, addend: 0x0, symName: __ZN3fmt3v1117basic_string_viewIcEC2EPKcm, symObjAddr: 0x12AC, symBinAddr: 0x100006F94, symSize: 0x2C }
  - { offset: 0x21629, size: 0x8, addend: 0x0, symName: __ZN6spdlog7details14log_msg_bufferC2ERKNS0_7log_msgE, symObjAddr: 0x12D8, symBinAddr: 0x100006FC0, symSize: 0xE0 }
  - { offset: 0x21662, size: 0x8, addend: 0x0, symName: __ZN3fmt3v1119basic_memory_bufferIcLm250ENS0_6detail9allocatorIcEEEC1ERKS4_, symObjAddr: 0x13B8, symBinAddr: 0x1000070A0, symSize: 0x34 }
  - { offset: 0x2169A, size: 0x8, addend: 0x0, symName: __ZN3fmt3v116detail6bufferIcE6appendIcEEvPKT_S7_, symObjAddr: 0x13EC, symBinAddr: 0x1000070D4, symSize: 0x130 }
  - { offset: 0x21740, size: 0x8, addend: 0x0, symName: __ZNK3fmt3v1117basic_string_viewIcE5beginEv, symObjAddr: 0x151C, symBinAddr: 0x100007204, symSize: 0x18 }
  - { offset: 0x21765, size: 0x8, addend: 0x0, symName: __ZNK3fmt3v1117basic_string_viewIcE3endEv, symObjAddr: 0x1534, symBinAddr: 0x10000721C, symSize: 0x20 }
  - { offset: 0x2178A, size: 0x8, addend: 0x0, symName: __ZN3fmt3v1119basic_memory_bufferIcLm250ENS0_6detail9allocatorIcEEED1Ev, symObjAddr: 0x1554, symBinAddr: 0x10000723C, symSize: 0x2C }
  - { offset: 0x217B3, size: 0x8, addend: 0x0, symName: __ZN3fmt3v1119basic_memory_bufferIcLm250ENS0_6detail9allocatorIcEEEC2ERKS4_, symObjAddr: 0x1580, symBinAddr: 0x100007268, symSize: 0x58 }
  - { offset: 0x217EB, size: 0x8, addend: 0x0, symName: __ZN3fmt3v1119basic_memory_bufferIcLm250ENS0_6detail9allocatorIcEEE4growERNS2_6bufferIcEEm, symObjAddr: 0x15D8, symBinAddr: 0x1000072C0, symSize: 0x160 }
  - { offset: 0x21878, size: 0x8, addend: 0x0, symName: __ZN3fmt3v116detail6bufferIcEC2EPFvRS3_mEPcmm, symObjAddr: 0x1738, symBinAddr: 0x100007420, symSize: 0x44 }
  - { offset: 0x218EC, size: 0x8, addend: 0x0, symName: __ZNSt3__116allocator_traitsIN3fmt3v116detail9allocatorIcEEE8max_sizeB8de190102IS5_vLi0EEEmRKS5_, symObjAddr: 0x17A4, symBinAddr: 0x10000748C, symSize: 0x28 }
  - { offset: 0x2191E, size: 0x8, addend: 0x0, symName: __ZN3fmt3v116detail9allocatorIcE8allocateEm, symObjAddr: 0x1810, symBinAddr: 0x1000074F8, symSize: 0xA8 }
  - { offset: 0x21961, size: 0x8, addend: 0x0, symName: __ZN3fmt3v1119basic_memory_bufferIcLm250ENS0_6detail9allocatorIcEEED2Ev, symObjAddr: 0x1940, symBinAddr: 0x10000760C, symSize: 0x34 }
  - { offset: 0x21989, size: 0x8, addend: 0x0, symName: __ZN6spdlog7details14log_msg_bufferD2Ev, symObjAddr: 0x1974, symBinAddr: 0x100007640, symSize: 0x30 }
  - { offset: 0x219B4, size: 0x8, addend: 0x0, symName: __ZNSt3__110lock_guardINS_5mutexEED2B8de190102Ev, symObjAddr: 0x19A4, symBinAddr: 0x100007670, symSize: 0x30 }
  - { offset: 0x219DD, size: 0x8, addend: 0x0, symName: __ZN6spdlog10source_locC2Ev, symObjAddr: 0x19D4, symBinAddr: 0x1000076A0, symSize: 0x20 }
  - { offset: 0x21A06, size: 0x8, addend: 0x0, symName: __ZN3fmt3v1117basic_string_viewIcEC2EPKc, symObjAddr: 0x19F4, symBinAddr: 0x1000076C0, symSize: 0x4C }
  - { offset: 0x238D9, size: 0x8, addend: 0x0, symName: __ZN3MEL3Log12s_CoreLoggerE, symObjAddr: 0x2E3E78, symBinAddr: 0x10007DA98, symSize: 0x0 }
  - { offset: 0x2393A, size: 0x8, addend: 0x0, symName: __ZN3MEL3Log14s_ClientLoggerE, symObjAddr: 0x2E3E88, symBinAddr: 0x10007DAA8, symSize: 0x0 }
  - { offset: 0x265F3, size: 0x8, addend: 0x0, symName: __ZNSt3__16chronomiB8de190102IxNS_5ratioILl1ELl1000EEExS3_EENS_11common_typeIJNS0_8durationIT_T0_EENS5_IT1_T2_EEEE4typeERKS8_RKSB_, symObjAddr: 0x25418, symBinAddr: 0x10002B81C, symSize: 0x6C }
  - { offset: 0x2695E, size: 0x8, addend: 0x0, symName: __ZNSt3__16chronomiB8de190102IxNS_5ratioILl1ELl1000000EEExS3_EENS_11common_typeIJNS0_8durationIT_T0_EENS5_IT1_T2_EEEE4typeERKS8_RKSB_, symObjAddr: 0x318D0, symBinAddr: 0x100037968, symSize: 0x6C }
  - { offset: 0x269CB, size: 0x8, addend: 0x0, symName: __ZNSt3__16chronomiB8de190102IxNS_5ratioILl1ELl1000000000EEExS3_EENS_11common_typeIJNS0_8durationIT_T0_EENS5_IT1_T2_EEEE4typeERKS8_RKSB_, symObjAddr: 0x4571C, symBinAddr: 0x10004B64C, symSize: 0x6C }
  - { offset: 0x26ACE, size: 0x8, addend: 0x0, symName: __ZNSt3__16chrono13duration_castB8de190102INS0_8durationIxNS_5ratioILl1ELl1EEEEExNS3_ILl1ELl1000000EEELi0EEET_RKNS2_IT0_T1_EE, symObjAddr: 0x5BE8, symBinAddr: 0x10000C638, symSize: 0x30 }
  - { offset: 0x26B1B, size: 0x8, addend: 0x0, symName: __ZNSt3__16chrononeB8de190102IxNS_5ratioILl1ELl1EEExS3_EEbRKNS0_8durationIT_T0_EERKNS4_IT1_T2_EE, symObjAddr: 0x5C18, symBinAddr: 0x10000C668, symSize: 0x30 }
  - { offset: 0x26B7C, size: 0x8, addend: 0x0, symName: __ZNSt3__16chronoeqB8de190102IxNS_5ratioILl1ELl1EEExS3_EEbRKNS0_8durationIT_T0_EERKNS4_IT1_T2_EE, symObjAddr: 0x6214, symBinAddr: 0x10000CC4C, symSize: 0x30 }
  - { offset: 0x26C1A, size: 0x8, addend: 0x0, symName: __ZNSt3__16chrono13duration_castB8de190102INS0_8durationIxNS_5ratioILl1ELl1000EEEEExNS3_ILl1ELl1000000EEELi0EEET_RKNS2_IT0_T1_EE, symObjAddr: 0x25484, symBinAddr: 0x10002B888, symSize: 0x30 }
  - { offset: 0x26C67, size: 0x8, addend: 0x0, symName: __ZNSt3__16chrono13duration_castB8de190102INS0_8durationIxNS_5ratioILl1ELl1000EEEEExNS3_ILl1ELl1EEELi0EEET_RKNS2_IT0_T1_EE, symObjAddr: 0x254B4, symBinAddr: 0x10002B8B8, symSize: 0x30 }
  - { offset: 0x26CB4, size: 0x8, addend: 0x0, symName: __ZNSt3__16chronoltB8de190102IxNS_5ratioILl1ELl1000000EEExNS2_ILl1ELl1EEEEEbRKNS0_8durationIT_T0_EERKNS5_IT1_T2_EE, symObjAddr: 0x3149C, symBinAddr: 0x100037534, symSize: 0x30 }
  - { offset: 0x26D15, size: 0x8, addend: 0x0, symName: __ZNSt3__16chronomiB8de190102INS0_12system_clockENS0_8durationIxNS_5ratioILl1ELl1000000EEEEES6_EENS_11common_typeIJT0_T1_EE4typeERKNS0_10time_pointIT_S8_EERKNSC_ISD_S9_EE, symObjAddr: 0x314CC, symBinAddr: 0x100037564, symSize: 0x58 }
  - { offset: 0x26D6A, size: 0x8, addend: 0x0, symName: __ZNSt3__16chrono13duration_castB8de190102INS0_8durationIxNS_5ratioILl1ELl1000000EEEEExNS3_ILl1ELl1EEELi0EEET_RKNS2_IT0_T1_EE, symObjAddr: 0x31800, symBinAddr: 0x100037898, symSize: 0x30 }
  - { offset: 0x26DB7, size: 0x8, addend: 0x0, symName: __ZNSt3__16chrono13duration_castB8de190102INS0_8durationIxNS_5ratioILl1ELl1000000EEEEExS4_Li0EEET_RKNS2_IT0_T1_EE, symObjAddr: 0x44F60, symBinAddr: 0x10004AE90, symSize: 0x30 }
  - { offset: 0x26E4F, size: 0x8, addend: 0x0, symName: __ZNSt3__16chrono13duration_castB8de190102INS0_8durationIxNS_5ratioILl1ELl1000000000EEEEExNS3_ILl1ELl1000000EEELi0EEET_RKNS2_IT0_T1_EE, symObjAddr: 0x45788, symBinAddr: 0x10004B6B8, symSize: 0x30 }
  - { offset: 0x26E9C, size: 0x8, addend: 0x0, symName: __ZNSt3__16chrono13duration_castB8de190102INS0_8durationIxNS_5ratioILl1ELl1000000000EEEEExNS3_ILl1ELl1EEELi0EEET_RKNS2_IT0_T1_EE, symObjAddr: 0x457B8, symBinAddr: 0x10004B6E8, symSize: 0x30 }
  - { offset: 0x26EE9, size: 0x8, addend: 0x0, symName: __ZNSt3__16chronogeB8de190102IxNS_5ratioILl1ELl1000000EEExNS2_ILl1ELl1EEEEEbRKNS0_8durationIT_T0_EERKNS5_IT1_T2_EE, symObjAddr: 0x48170, symBinAddr: 0x10004E0A0, symSize: 0x30 }
  - { offset: 0x26F4A, size: 0x8, addend: 0x0, symName: __ZNSt3__16chronoltB8de190102IxNS_5ratioILl1ELl1000000EEExS3_EEbRKNS0_8durationIT_T0_EERKNS4_IT1_T2_EE, symObjAddr: 0x4C180, symBinAddr: 0x100052068, symSize: 0x30 }
  - { offset: 0x32581, size: 0x8, addend: 0x0, symName: __ZNSt3__1L19piecewise_constructE, symObjAddr: 0x67396, symBinAddr: 0x10006AE3E, symSize: 0x0 }
  - { offset: 0x3DE1D, size: 0x8, addend: 0x0, symName: __ZNSt3__17advanceB8de190102IPN6spdlog7details14log_msg_bufferEllLi0EEEvRT_T0_, symObjAddr: 0x2FF68, symBinAddr: 0x1000360A4, symSize: 0x6C }
  - { offset: 0x3E53F, size: 0x8, addend: 0x0, symName: __ZNSt3__17advanceB8de190102INS_11__wrap_iterIPNS_10shared_ptrIN6spdlog5sinks4sinkEEEEEllLi0EEEvRT_T0_, symObjAddr: 0x35FC0, symBinAddr: 0x10003BF1C, symSize: 0x6C }
  - { offset: 0x543A3, size: 0x8, addend: 0x0, symName: __ZNSt3__111make_sharedB8de190102IN6spdlog5sinks21ansicolor_stdout_sinkINS1_7details13console_mutexEEEJELi0EEENS_10shared_ptrIT_EEDpOT0_, symObjAddr: 0xCB0, symBinAddr: 0x100008370, symSize: 0x38 }
  - { offset: 0x543D7, size: 0x8, addend: 0x0, symName: __ZNSt3__111make_sharedB8de190102IN6spdlog6loggerEJRPKcNS_10shared_ptrINS1_5sinks21ansicolor_stdout_sinkINS1_7details13console_mutexEEEEEELi0EEENS6_IT_EEDpOT0_, symObjAddr: 0xCE8, symBinAddr: 0x1000083A8, symSize: 0x48 }
  - { offset: 0x54620, size: 0x8, addend: 0x0, symName: __ZNSt3__111make_uniqueB8de190102IN6spdlog7details14full_formatterEJNS2_12padding_infoEEEENS_11__unique_ifIT_E15__unique_singleEDpOT0_, symObjAddr: 0x1EC0, symBinAddr: 0x100009570, symSize: 0x7C }
  - { offset: 0x54665, size: 0x8, addend: 0x0, symName: __ZNSt3__112__to_addressB8de190102INS_10unique_ptrIN6spdlog7details14flag_formatterENS_14default_deleteIS4_EEEEEEPT_S9_, symObjAddr: 0x2784, symBinAddr: 0x100009E34, symSize: 0x14 }
  - { offset: 0x5469A, size: 0x8, addend: 0x0, symName: __ZNSt3__13maxB8de190102ImEERKT_S3_S3_, symObjAddr: 0x2DD4, symBinAddr: 0x10000A484, symSize: 0x2C }
  - { offset: 0x546DD, size: 0x8, addend: 0x0, symName: __ZNSt3__13minB8de190102ImEERKT_S3_S3_, symObjAddr: 0x2E00, symBinAddr: 0x10000A4B0, symSize: 0x2C }
  - { offset: 0x5492B, size: 0x8, addend: 0x0, symName: __ZNSt3__13minB8de190102ImNS_6__lessIvvEEEERKT_S5_S5_T0_, symObjAddr: 0x2E8C, symBinAddr: 0x10000A53C, symSize: 0x54 }
  - { offset: 0x549FD, size: 0x8, addend: 0x0, symName: __ZNSt3__13maxB8de190102ImNS_6__lessIvvEEEERKT_S5_S5_T0_, symObjAddr: 0x30A0, symBinAddr: 0x10000A674, symSize: 0x54 }
  - { offset: 0x54A57, size: 0x8, addend: 0x0, symName: __ZNSt3__119__allocate_at_leastB8de190102INS_9allocatorINS_10unique_ptrIN6spdlog7details14flag_formatterENS_14default_deleteIS5_EEEEEEEENS_19__allocation_resultINS_16allocator_traitsIT_E7pointerEEERSC_m, symObjAddr: 0x31FC, symBinAddr: 0x10000A7D0, symSize: 0x40 }
  - { offset: 0x54A9B, size: 0x8, addend: 0x0, symName: __ZNSt3__134__uninitialized_allocator_relocateB8de190102INS_9allocatorINS_10unique_ptrIN6spdlog7details14flag_formatterENS_14default_deleteIS5_EEEEEES8_EEvRT_PT0_SD_SD_, symObjAddr: 0x343C, symBinAddr: 0x10000A990, symSize: 0x4C }
  - { offset: 0x54B05, size: 0x8, addend: 0x0, symName: __ZNSt3__14swapB8de190102IPNS_10unique_ptrIN6spdlog7details14flag_formatterENS_14default_deleteIS4_EEEEEENS_9enable_ifIXaasr21is_move_constructibleIT_EE5valuesr18is_move_assignableISA_EE5valueEvE4typeERSA_SD_, symObjAddr: 0x3488, symBinAddr: 0x10000A9DC, symSize: 0x3C }
  - { offset: 0x54B8B, size: 0x8, addend: 0x0, symName: __ZNSt3__112__destroy_atB8de190102INS_4pairIKNS_12basic_stringIcNS_11char_traitsIcEENS_9allocatorIcEEEES7_EELi0EEEvPT_, symObjAddr: 0x4DC0, symBinAddr: 0x10000BDCC, symSize: 0x38 }
  - { offset: 0x54BC2, size: 0x8, addend: 0x0, symName: __ZNSt3__1neB8de190102ERKNS_20__map_const_iteratorINS_21__tree_const_iteratorINS_12__value_typeINS_12basic_stringIcNS_11char_traitsIcEENS_9allocatorIcEEEES8_EEPNS_11__tree_nodeIS9_PvEElEEEESH_, symObjAddr: 0x5034, symBinAddr: 0x10000C040, symSize: 0x2C }
  - { offset: 0x54BFF, size: 0x8, addend: 0x0, symName: __ZNSt3__116__tree_prev_iterB8de190102IPNS_16__tree_node_baseIPvEEPNS_15__tree_end_nodeIS4_EEEET_T0_, symObjAddr: 0x52F8, symBinAddr: 0x10000C248, symSize: 0xB0 }
  - { offset: 0x54C4C, size: 0x8, addend: 0x0, symName: __ZNSt3__110__tree_maxB8de190102IPNS_16__tree_node_baseIPvEEEET_S5_, symObjAddr: 0x53A8, symBinAddr: 0x10000C2F8, symSize: 0x58 }
  - { offset: 0x54C82, size: 0x8, addend: 0x0, symName: __ZNSt3__120__tree_is_left_childB8de190102IPNS_16__tree_node_baseIPvEEEEbT_, symObjAddr: 0x5400, symBinAddr: 0x10000C350, symSize: 0x28 }
  - { offset: 0x54CB7, size: 0x8, addend: 0x0, symName: __ZNSt3__1neB8de190102ERKNS_21__tree_const_iteratorINS_12__value_typeINS_12basic_stringIcNS_11char_traitsIcEENS_9allocatorIcEEEES7_EEPNS_11__tree_nodeIS8_PvEElEESF_, symObjAddr: 0x5488, symBinAddr: 0x10000C3D8, symSize: 0x30 }
  - { offset: 0x54CF5, size: 0x8, addend: 0x0, symName: __ZNSt3__1eqB8de190102ERKNS_21__tree_const_iteratorINS_12__value_typeINS_12basic_stringIcNS_11char_traitsIcEENS_9allocatorIcEEEES7_EEPNS_11__tree_nodeIS8_PvEElEESF_, symObjAddr: 0x54B8, symBinAddr: 0x10000C408, symSize: 0x2C }
  - { offset: 0x54D65, size: 0x8, addend: 0x0, symName: __ZNSt3__116__tree_next_iterB8de190102IPNS_15__tree_end_nodeIPNS_16__tree_node_baseIPvEEEES5_EET_T0_, symObjAddr: 0x59F8, symBinAddr: 0x10000C4F0, symSize: 0x8C }
  - { offset: 0x54DA3, size: 0x8, addend: 0x0, symName: __ZNSt3__110__tree_minB8de190102IPNS_16__tree_node_baseIPvEEEET_S5_, symObjAddr: 0x5A84, symBinAddr: 0x10000C57C, symSize: 0x58 }
  - { offset: 0x54DD8, size: 0x8, addend: 0x0, symName: __ZNSt3__113back_inserterB8de190102IN3fmt3v1119basic_memory_bufferIcLm250ENS2_6detail9allocatorIcEEEEEENS_20back_insert_iteratorIT_EERS9_, symObjAddr: 0x6654, symBinAddr: 0x10000D08C, symSize: 0x2C }
  - { offset: 0x54E0D, size: 0x8, addend: 0x0, symName: __ZNSt3__19has_facetB8de190102IN3fmt3v1112format_facetINS_6localeEEEEEbRKS4_, symObjAddr: 0x9CEC, symBinAddr: 0x100010698, symSize: 0x3C }
  - { offset: 0x54E42, size: 0x8, addend: 0x0, symName: __ZNSt3__19use_facetB8de190102IN3fmt3v1112format_facetINS_6localeEEEEERKT_RKS4_, symObjAddr: 0x9D28, symBinAddr: 0x1000106D4, symSize: 0x2C }
  - { offset: 0x54E77, size: 0x8, addend: 0x0, symName: __ZNSt3__19use_facetB8de190102INS_8numpunctIcEEEERKT_RKNS_6localeE, symObjAddr: 0xA014, symBinAddr: 0x100010994, symSize: 0x2C }
  - { offset: 0x55056, size: 0x8, addend: 0x0, symName: __ZNSt3__1eqB8de190102IPKcEEbRKNS_11__wrap_iterIT_EES7_, symObjAddr: 0xDA24, symBinAddr: 0x100013E3C, symSize: 0x44 }
  - { offset: 0x55547, size: 0x8, addend: 0x0, symName: __ZNSt3__16__math5isnanB8de190102Ef, symObjAddr: 0x103FC, symBinAddr: 0x100016814, symSize: 0x30 }
  - { offset: 0x55574, size: 0x8, addend: 0x0, symName: __ZNSt3__16__math7signbitB8de190102IdLi0EEEbT_, symObjAddr: 0x10C9C, symBinAddr: 0x1000170B4, symSize: 0x20 }
  - { offset: 0x555B0, size: 0x8, addend: 0x0, symName: __ZNSt3__16__math5isnanB8de190102EUa9enable_ifIXLb1EEEd, symObjAddr: 0x13AF0, symBinAddr: 0x100019F08, symSize: 0x30 }
  - { offset: 0x555DD, size: 0x8, addend: 0x0, symName: __ZNSt3__16__math5isnanB8de190102Ee, symObjAddr: 0x16E30, symBinAddr: 0x10001D248, symSize: 0x30 }
  - { offset: 0x5560A, size: 0x8, addend: 0x0, symName: __ZNSt3__16__math8isfiniteB8de190102Ef, symObjAddr: 0x1DB0C, symBinAddr: 0x100023F24, symSize: 0x30 }
  - { offset: 0x55637, size: 0x8, addend: 0x0, symName: __ZNSt3__16__math8isfiniteB8de190102Ed, symObjAddr: 0x23248, symBinAddr: 0x100029660, symSize: 0x30 }
  - { offset: 0x55664, size: 0x8, addend: 0x0, symName: __ZNSt3__16__math8isfiniteB8de190102Ee, symObjAddr: 0x23988, symBinAddr: 0x100029DA0, symSize: 0x30 }
  - { offset: 0x55691, size: 0x8, addend: 0x0, symName: __ZNSt3__16__math4ceilB8de190102Ef, symObjAddr: 0x27134, symBinAddr: 0x10002D538, symSize: 0x18 }
  - { offset: 0x5577F, size: 0x8, addend: 0x0, symName: __ZNSt3__1neB8de190102IPNS_10unique_ptrIN6spdlog7details14flag_formatterENS_14default_deleteIS4_EEEEEEbRKNS_11__wrap_iterIT_EESD_, symObjAddr: 0x25F1C, symBinAddr: 0x10002C320, symSize: 0x30 }
  - { offset: 0x557C2, size: 0x8, addend: 0x0, symName: __ZNSt3__1eqB8de190102IPNS_10unique_ptrIN6spdlog7details14flag_formatterENS_14default_deleteIS4_EEEEEEbRKNS_11__wrap_iterIT_EESD_, symObjAddr: 0x26090, symBinAddr: 0x10002C494, symSize: 0x44 }
  - { offset: 0x55805, size: 0x8, addend: 0x0, symName: __ZNSt3__1neB8de190102ERKNS_25__hash_map_const_iteratorINS_21__hash_const_iteratorIPNS_11__hash_nodeINS_17__hash_value_typeIcNS_10unique_ptrIN6spdlog21custom_flag_formatterENS_14default_deleteIS6_EEEEEEPvEEEEEESH_, symObjAddr: 0x26194, symBinAddr: 0x10002C598, symSize: 0x2C }
  - { offset: 0x55842, size: 0x8, addend: 0x0, symName: __ZNSt3__111make_uniqueB8de190102IN6spdlog17pattern_formatterEJRKNS_12basic_stringIcNS_11char_traitsIcEENS_9allocatorIcEEEERKNS1_17pattern_time_typeESA_NS_13unordered_mapIcNS_10unique_ptrINS1_21custom_flag_formatterENS_14default_deleteISG_EEEENS_4hashIcEENS_8equal_toIcEENS6_INS_4pairIKcSJ_EEEEEEEEENS_11__unique_ifIT_E15__unique_singleEDpOT0_, symObjAddr: 0x2637C, symBinAddr: 0x10002C780, symSize: 0x15C }
  - { offset: 0x558C5, size: 0x8, addend: 0x0, symName: __ZNSt3__1neB8de190102ERKNS_21__hash_const_iteratorIPNS_11__hash_nodeINS_17__hash_value_typeIcNS_10unique_ptrIN6spdlog21custom_flag_formatterENS_14default_deleteIS5_EEEEEEPvEEEESF_, symObjAddr: 0x266C8, symBinAddr: 0x10002CACC, symSize: 0x30 }
  - { offset: 0x55903, size: 0x8, addend: 0x0, symName: __ZNSt3__1eqB8de190102ERKNS_21__hash_const_iteratorIPNS_11__hash_nodeINS_17__hash_value_typeIcNS_10unique_ptrIN6spdlog21custom_flag_formatterENS_14default_deleteIS5_EEEEEEPvEEEESF_, symObjAddr: 0x266F8, symBinAddr: 0x10002CAFC, symSize: 0x2C }
  - { offset: 0x559DE, size: 0x8, addend: 0x0, symName: __ZNSt3__116forward_as_tupleB8de190102IJRKcEEENS_5tupleIJDpOT_EEES6_, symObjAddr: 0x26CCC, symBinAddr: 0x10002D0D0, symSize: 0x2C }
  - { offset: 0x55A1A, size: 0x8, addend: 0x0, symName: __ZNSt3__116forward_as_tupleB8de190102IJEEENS_5tupleIJDpOT_EEES4_, symObjAddr: 0x26CF8, symBinAddr: 0x10002D0FC, symSize: 0x4 }
  - { offset: 0x55A40, size: 0x8, addend: 0x0, symName: __ZNSt3__116__constrain_hashB8de190102Emm, symObjAddr: 0x26DDC, symBinAddr: 0x10002D1E0, symSize: 0x90 }
  - { offset: 0x55A7B, size: 0x8, addend: 0x0, symName: __ZNSt3__116__is_hash_power2B8de190102Em, symObjAddr: 0x270E8, symBinAddr: 0x10002D4EC, symSize: 0x4C }
  - { offset: 0x55AC5, size: 0x8, addend: 0x0, symName: __ZNSt3__114__construct_atB8de190102INS_11__hash_nodeINS_17__hash_value_typeIcNS_10unique_ptrIN6spdlog21custom_flag_formatterENS_14default_deleteIS5_EEEEEEPvEEJDnRmEPSB_EEPT_SF_DpOT0_, symObjAddr: 0x27530, symBinAddr: 0x10002D934, symSize: 0x54 }
  - { offset: 0x55B3B, size: 0x8, addend: 0x0, symName: __ZNSt3__13getB8de190102ILm0EJRKcEEERNS_13tuple_elementIXT_ENS_5tupleIJDpT0_EEEE4typeERS7_, symObjAddr: 0x27A24, symBinAddr: 0x10002DE28, symSize: 0x24 }
  - { offset: 0x55B7F, size: 0x8, addend: 0x0, symName: __ZNSt3__116__next_hash_pow2B8de190102Em, symObjAddr: 0x2800C, symBinAddr: 0x10002E410, symSize: 0x68 }
  - { offset: 0x55BAC, size: 0x8, addend: 0x0, symName: __ZNSt3__112__libcpp_clzB8de190102Em, symObjAddr: 0x283A4, symBinAddr: 0x10002E7A8, symSize: 0x1C }
  - { offset: 0x55BD9, size: 0x8, addend: 0x0, symName: __ZNSt3__112__destroy_atB8de190102INS_11__hash_nodeINS_17__hash_value_typeIcNS_10unique_ptrIN6spdlog21custom_flag_formatterENS_14default_deleteIS5_EEEEEEPvEELi0EEEvPT_, symObjAddr: 0x28570, symBinAddr: 0x10002E974, symSize: 0x38 }
  - { offset: 0x55C11, size: 0x8, addend: 0x0, symName: __ZNSt3__112__destroy_atB8de190102INS_4pairIKcNS_10unique_ptrIN6spdlog21custom_flag_formatterENS_14default_deleteIS5_EEEEEELi0EEEvPT_, symObjAddr: 0x285DC, symBinAddr: 0x10002E9E0, symSize: 0x38 }
  - { offset: 0x55CA2, size: 0x8, addend: 0x0, symName: __ZNSt3__115allocate_sharedB8de190102IN6spdlog5sinks21ansicolor_stdout_sinkINS1_7details13console_mutexEEENS_9allocatorIS6_EEJELi0EEENS_10shared_ptrIT_EERKT0_DpOT1_, symObjAddr: 0x29408, symBinAddr: 0x10002F80C, symSize: 0xD4 }
  - { offset: 0x56105, size: 0x8, addend: 0x0, symName: __ZNSt3__111make_uniqueB8de190102IN6spdlog17pattern_formatterEJEEENS_11__unique_ifIT_E15__unique_singleEDpOT0_, symObjAddr: 0x2A780, symBinAddr: 0x100030B84, symSize: 0xD4 }
  - { offset: 0x56133, size: 0x8, addend: 0x0, symName: __ZNSt3__16any_ofB8de190102IPKPKcZZN6spdlog7details2os17is_color_terminalEvENKUlvE_clEvEUlS2_E_EEbT_SA_T0_, symObjAddr: 0x2ADE0, symBinAddr: 0x1000311E4, symSize: 0x98 }
  - { offset: 0x5618E, size: 0x8, addend: 0x0, symName: __ZNSt3__120__throw_out_of_rangeB8de190102EPKc, symObjAddr: 0x2B008, symBinAddr: 0x10003140C, symSize: 0x64 }
  - { offset: 0x561E9, size: 0x8, addend: 0x0, symName: __ZNSt3__115allocate_sharedB8de190102IN6spdlog6loggerENS_9allocatorIS2_EEJRPKcNS_10shared_ptrINS1_5sinks21ansicolor_stdout_sinkINS1_7details13console_mutexEEEEEELi0EEENS8_IT_EERKT0_DpOT1_, symObjAddr: 0x2B8C8, symBinAddr: 0x100031C00, symSize: 0xE4 }
  - { offset: 0x566D2, size: 0x8, addend: 0x0, symName: __ZNSt3__18distanceB8de190102IPKNS_10shared_ptrIN6spdlog5sinks4sinkEEEEENS_15iterator_traitsIT_E15difference_typeES9_S9_, symObjAddr: 0x2CCE0, symBinAddr: 0x100033018, symSize: 0x2C }
  - { offset: 0x56716, size: 0x8, addend: 0x0, symName: __ZNSt3__110__distanceB8de190102IPKNS_10shared_ptrIN6spdlog5sinks4sinkEEEEENS_15iterator_traitsIT_E15difference_typeES9_S9_NS_26random_access_iterator_tagE, symObjAddr: 0x2CE88, symBinAddr: 0x1000331C0, symSize: 0x28 }
  - { offset: 0x56764, size: 0x8, addend: 0x0, symName: __ZNSt3__122__make_exception_guardB8de190102INS_6vectorINS_10shared_ptrIN6spdlog5sinks4sinkEEENS_9allocatorIS6_EEE16__destroy_vectorEEENS_28__exception_guard_exceptionsIT_EESC_, symObjAddr: 0x2CEB0, symBinAddr: 0x1000331E8, symSize: 0x40 }
  - { offset: 0x56799, size: 0x8, addend: 0x0, symName: __ZNSt3__119__allocate_at_leastB8de190102INS_9allocatorINS_10shared_ptrIN6spdlog5sinks4sinkEEEEEEENS_19__allocation_resultINS_16allocator_traitsIT_E7pointerEEERSA_m, symObjAddr: 0x2D194, symBinAddr: 0x1000334CC, symSize: 0x40 }
  - { offset: 0x567DC, size: 0x8, addend: 0x0, symName: __ZNSt3__130__uninitialized_allocator_copyB8de190102INS_9allocatorINS_10shared_ptrIN6spdlog5sinks4sinkEEEEEPKS6_S9_PS6_EET2_RT_T0_T1_SB_, symObjAddr: 0x2D3D0, symBinAddr: 0x100033708, symSize: 0x80 }
  - { offset: 0x56879, size: 0x8, addend: 0x0, symName: __ZNSt3__114__unwrap_rangeB8de190102IPKNS_10shared_ptrIN6spdlog5sinks4sinkEEES7_EENS_4pairIT0_S9_EET_SB_, symObjAddr: 0x2D4C0, symBinAddr: 0x1000337F8, symSize: 0x60 }
  - { offset: 0x568C5, size: 0x8, addend: 0x0, symName: __ZNSt3__135__uninitialized_allocator_copy_implB8de190102INS_9allocatorINS_10shared_ptrIN6spdlog5sinks4sinkEEEEEPKS6_S9_PS6_EET2_RT_T0_T1_SB_, symObjAddr: 0x2D520, symBinAddr: 0x100033858, symSize: 0xF0 }
  - { offset: 0x56963, size: 0x8, addend: 0x0, symName: __ZNSt3__113__unwrap_iterB8de190102IPNS_10shared_ptrIN6spdlog5sinks4sinkEEENS_18__unwrap_iter_implIS6_Lb1EEELi0EEEDTclsrT0_8__unwrapclsr3stdE7declvalIT_EEEESA_, symObjAddr: 0x2D610, symBinAddr: 0x100033948, symSize: 0x24 }
  - { offset: 0x569A7, size: 0x8, addend: 0x0, symName: __ZNSt3__113__rewrap_iterB8de190102IPNS_10shared_ptrIN6spdlog5sinks4sinkEEES6_NS_18__unwrap_iter_implIS6_Lb1EEEEET_S9_T0_, symObjAddr: 0x2D634, symBinAddr: 0x10003396C, symSize: 0x3C }
  - { offset: 0x569FC, size: 0x8, addend: 0x0, symName: __ZNSt3__19make_pairB8de190102IPKNS_10shared_ptrIN6spdlog5sinks4sinkEEES7_EENS_4pairINS_18__unwrap_ref_decayIT_E4typeENS9_IT0_E4typeEEEOSA_OSD_, symObjAddr: 0x2D670, symBinAddr: 0x1000339A8, symSize: 0x38 }
  - { offset: 0x56A4B, size: 0x8, addend: 0x0, symName: __ZNSt3__113__unwrap_iterB8de190102IPKNS_10shared_ptrIN6spdlog5sinks4sinkEEENS_18__unwrap_iter_implIS7_Lb1EEELi0EEEDTclsrT0_8__unwrapclsr3stdE7declvalIT_EEEESB_, symObjAddr: 0x2D6A8, symBinAddr: 0x1000339E0, symSize: 0x24 }
  - { offset: 0x56BB7, size: 0x8, addend: 0x0, symName: __ZNSt3__112__to_addressB8de190102IKNS_10shared_ptrIN6spdlog5sinks4sinkEEEEEPT_S8_, symObjAddr: 0x2D760, symBinAddr: 0x100033A98, symSize: 0x14 }
  - { offset: 0x56BEC, size: 0x8, addend: 0x0, symName: __ZNSt3__122__make_exception_guardB8de190102INS_29_AllocatorDestroyRangeReverseINS_9allocatorINS_10shared_ptrIN6spdlog5sinks4sinkEEEEEPS7_EEEENS_28__exception_guard_exceptionsIT_EESC_, symObjAddr: 0x2D774, symBinAddr: 0x100033AAC, symSize: 0x4C }
  - { offset: 0x56C23, size: 0x8, addend: 0x0, symName: __ZNSt3__112__to_addressB8de190102INS_10shared_ptrIN6spdlog5sinks4sinkEEEEEPT_S7_, symObjAddr: 0x2D838, symBinAddr: 0x100033B70, symSize: 0x14 }
  - { offset: 0x56C59, size: 0x8, addend: 0x0, symName: __ZNSt3__134__libcpp_atomic_refcount_incrementB8de190102IlEET_RS1_, symObjAddr: 0x2DA48, symBinAddr: 0x100033D80, symSize: 0x30 }
  - { offset: 0x56C8F, size: 0x8, addend: 0x0, symName: __ZNSt3__119__allocator_destroyB8de190102INS_9allocatorINS_10shared_ptrIN6spdlog5sinks4sinkEEEEENS_16reverse_iteratorIPS6_EESA_EEvRT_T0_T1_, symObjAddr: 0x2DB30, symBinAddr: 0x100033E68, symSize: 0x70 }
  - { offset: 0x56CF2, size: 0x8, addend: 0x0, symName: __ZNSt3__1neB8de190102IPNS_10shared_ptrIN6spdlog5sinks4sinkEEES6_EEbRKNS_16reverse_iteratorIT_EERKNS7_IT0_EE, symObjAddr: 0x2DBD4, symBinAddr: 0x100033F0C, symSize: 0x44 }
  - { offset: 0x56D3E, size: 0x8, addend: 0x0, symName: __ZNSt3__112__to_addressB8de190102INS_16reverse_iteratorIPNS_10shared_ptrIN6spdlog5sinks4sinkEEEEELi0EEEu7__decayIDTclsr19__to_address_helperIT_EE6__callclsr3stdE7declvalIRKS9_EEEEESB_, symObjAddr: 0x2DC44, symBinAddr: 0x100033F7C, symSize: 0x24 }
  - { offset: 0x56DF7, size: 0x8, addend: 0x0, symName: __ZNSt3__112__to_addressB8de190102IN6spdlog7details14log_msg_bufferEEEPT_S5_, symObjAddr: 0x2E878, symBinAddr: 0x100034BB0, symSize: 0x14 }
  - { offset: 0x56E2C, size: 0x8, addend: 0x0, symName: __ZNSt3__111make_sharedB8de190102IN6spdlog6loggerEJRS2_ELi0EEENS_10shared_ptrIT_EEDpOT0_, symObjAddr: 0x2EA2C, symBinAddr: 0x100034D08, symSize: 0x40 }
  - { offset: 0x56E76, size: 0x8, addend: 0x0, symName: __ZNSt3__115allocate_sharedB8de190102IN6spdlog6loggerENS_9allocatorIS2_EEJRS2_ELi0EEENS_10shared_ptrIT_EERKT0_DpOT1_, symObjAddr: 0x2EA6C, symBinAddr: 0x100034D48, symSize: 0xDC }
  - { offset: 0x56EF6, size: 0x8, addend: 0x0, symName: __ZNSt3__130__uninitialized_allocator_copyB8de190102INS_9allocatorINS_10shared_ptrIN6spdlog5sinks4sinkEEEEEPS6_S8_S8_EET2_RT_T0_T1_S9_, symObjAddr: 0x2F18C, symBinAddr: 0x10003543C, symSize: 0x80 }
  - { offset: 0x56F93, size: 0x8, addend: 0x0, symName: __ZNSt3__114__unwrap_rangeB8de190102IPNS_10shared_ptrIN6spdlog5sinks4sinkEEES6_EENS_4pairIT0_S8_EET_SA_, symObjAddr: 0x2F20C, symBinAddr: 0x1000354BC, symSize: 0x60 }
  - { offset: 0x56FDF, size: 0x8, addend: 0x0, symName: __ZNSt3__135__uninitialized_allocator_copy_implB8de190102INS_9allocatorINS_10shared_ptrIN6spdlog5sinks4sinkEEEEEPS6_S8_S8_EET2_RT_T0_T1_S9_, symObjAddr: 0x2F26C, symBinAddr: 0x10003551C, symSize: 0xF0 }
  - { offset: 0x5707D, size: 0x8, addend: 0x0, symName: __ZNSt3__19make_pairB8de190102IPNS_10shared_ptrIN6spdlog5sinks4sinkEEES6_EENS_4pairINS_18__unwrap_ref_decayIT_E4typeENS8_IT0_E4typeEEEOS9_OSC_, symObjAddr: 0x2F35C, symBinAddr: 0x10003560C, symSize: 0x38 }
  - { offset: 0x571A1, size: 0x8, addend: 0x0, symName: __ZNSt3__118__cxx_atomic_storeB8de190102IbEEvPNS_22__cxx_atomic_base_implIT_EES2_NS_12memory_orderE, symObjAddr: 0x2F890, symBinAddr: 0x1000359F4, symSize: 0x80 }
  - { offset: 0x571F2, size: 0x8, addend: 0x0, symName: __ZNSt3__18distanceB8de190102IPN6spdlog7details14log_msg_bufferEEENS_15iterator_traitsIT_E15difference_typeES6_S6_, symObjAddr: 0x2FB6C, symBinAddr: 0x100035CD0, symSize: 0x2C }
  - { offset: 0x57235, size: 0x8, addend: 0x0, symName: __ZNSt3__14nextB8de190102IPN6spdlog7details14log_msg_bufferELi0EEET_S5_NS_15iterator_traitsIS5_E15difference_typeE, symObjAddr: 0x2FBC0, symBinAddr: 0x100035CFC, symSize: 0x64 }
  - { offset: 0x5727E, size: 0x8, addend: 0x0, symName: __ZNSt3__14copyB8de190102IPN6spdlog7details14log_msg_bufferES4_EET0_T_S6_S5_, symObjAddr: 0x2FC24, symBinAddr: 0x100035D60, symSize: 0x40 }
  - { offset: 0x572D8, size: 0x8, addend: 0x0, symName: __ZNSt3__16__copyB8de190102INS_17_ClassicAlgPolicyEPN6spdlog7details14log_msg_bufferES5_S5_EENS_4pairIT0_T2_EES7_T1_S8_, symObjAddr: 0x2FCF0, symBinAddr: 0x100035E2C, symSize: 0x44 }
  - { offset: 0x57345, size: 0x8, addend: 0x0, symName: __ZNSt3__121__convert_to_integralB8de190102El, symObjAddr: 0x2FFD4, symBinAddr: 0x100036110, symSize: 0x14 }
  - { offset: 0x57372, size: 0x8, addend: 0x0, symName: __ZNSt3__19__advanceB8de190102IPN6spdlog7details14log_msg_bufferEEEvRT_NS_15iterator_traitsIS5_E15difference_typeENS_26random_access_iterator_tagE, symObjAddr: 0x2FFE8, symBinAddr: 0x100036124, symSize: 0x30 }
  - { offset: 0x573BC, size: 0x8, addend: 0x0, symName: __ZNSt3__130__uninitialized_allocator_copyB8de190102INS_9allocatorIN6spdlog7details14log_msg_bufferEEEPS4_S6_S6_EET2_RT_T0_T1_S7_, symObjAddr: 0x30054, symBinAddr: 0x100036190, symSize: 0x80 }
  - { offset: 0x57459, size: 0x8, addend: 0x0, symName: __ZNSt3__114__unwrap_rangeB8de190102IPN6spdlog7details14log_msg_bufferES4_EENS_4pairIT0_S6_EET_S8_, symObjAddr: 0x3014C, symBinAddr: 0x100036288, symSize: 0x60 }
  - { offset: 0x574A5, size: 0x8, addend: 0x0, symName: __ZNSt3__135__uninitialized_allocator_copy_implB8de190102INS_9allocatorIN6spdlog7details14log_msg_bufferEEEPS4_S6_S6_EET2_RT_T0_T1_S7_, symObjAddr: 0x301AC, symBinAddr: 0x1000362E8, symSize: 0xF0 }
  - { offset: 0x57543, size: 0x8, addend: 0x0, symName: __ZNSt3__113__unwrap_iterB8de190102IPN6spdlog7details14log_msg_bufferENS_18__unwrap_iter_implIS4_Lb1EEELi0EEEDTclsrT0_8__unwrapclsr3stdE7declvalIT_EEEES8_, symObjAddr: 0x3029C, symBinAddr: 0x1000363D8, symSize: 0x24 }
  - { offset: 0x57587, size: 0x8, addend: 0x0, symName: __ZNSt3__113__rewrap_iterB8de190102IPN6spdlog7details14log_msg_bufferES4_NS_18__unwrap_iter_implIS4_Lb1EEEEET_S7_T0_, symObjAddr: 0x302C0, symBinAddr: 0x1000363FC, symSize: 0x3C }
  - { offset: 0x575DC, size: 0x8, addend: 0x0, symName: __ZNSt3__19make_pairB8de190102IPN6spdlog7details14log_msg_bufferES4_EENS_4pairINS_18__unwrap_ref_decayIT_E4typeENS6_IT0_E4typeEEEOS7_OSA_, symObjAddr: 0x302FC, symBinAddr: 0x100036438, symSize: 0x38 }
  - { offset: 0x576FF, size: 0x8, addend: 0x0, symName: __ZNSt3__122__make_exception_guardB8de190102INS_29_AllocatorDestroyRangeReverseINS_9allocatorIN6spdlog7details14log_msg_bufferEEEPS5_EEEENS_28__exception_guard_exceptionsIT_EESA_, symObjAddr: 0x303A4, symBinAddr: 0x1000364E0, symSize: 0x4C }
  - { offset: 0x57736, size: 0x8, addend: 0x0, symName: __ZNSt3__119__allocator_destroyB8de190102INS_9allocatorIN6spdlog7details14log_msg_bufferEEENS_16reverse_iteratorIPS4_EES8_EEvRT_T0_T1_, symObjAddr: 0x307F0, symBinAddr: 0x100036888, symSize: 0x70 }
  - { offset: 0x57799, size: 0x8, addend: 0x0, symName: __ZNSt3__1neB8de190102IPN6spdlog7details14log_msg_bufferES4_EEbRKNS_16reverse_iteratorIT_EERKNS5_IT0_EE, symObjAddr: 0x30894, symBinAddr: 0x10003692C, symSize: 0x44 }
  - { offset: 0x577E5, size: 0x8, addend: 0x0, symName: __ZNSt3__112__to_addressB8de190102INS_16reverse_iteratorIPN6spdlog7details14log_msg_bufferEEELi0EEEu7__decayIDTclsr19__to_address_helperIT_EE6__callclsr3stdE7declvalIRKS7_EEEEES9_, symObjAddr: 0x308D8, symBinAddr: 0x100036970, symSize: 0x24 }
  - { offset: 0x5789D, size: 0x8, addend: 0x0, symName: __ZNSt3__124__copy_move_unwrap_itersB8de190102INS_11__copy_implINS_17_ClassicAlgPolicyEEEPN6spdlog7details14log_msg_bufferES7_S7_Li0EEENS_4pairIT0_T2_EES9_T1_SA_, symObjAddr: 0x30A7C, symBinAddr: 0x100036B14, symSize: 0xB4 }
  - { offset: 0x57988, size: 0x8, addend: 0x0, symName: __ZNSt3__114__rewrap_rangeB8de190102IPN6spdlog7details14log_msg_bufferES4_EET_S5_T0_, symObjAddr: 0x30BB4, symBinAddr: 0x100036C4C, symSize: 0x2C }
  - { offset: 0x579D4, size: 0x8, addend: 0x0, symName: __ZNSt3__119__allocate_at_leastB8de190102INS_9allocatorIN6spdlog7details14log_msg_bufferEEEEENS_19__allocation_resultINS_16allocator_traitsIT_E7pointerEEERS8_m, symObjAddr: 0x30DA8, symBinAddr: 0x100036E40, symSize: 0x40 }
  - { offset: 0x57A18, size: 0x8, addend: 0x0, symName: __ZNSt3__110__distanceB8de190102IPN6spdlog7details14log_msg_bufferEEENS_15iterator_traitsIT_E15difference_typeES6_S6_NS_26random_access_iterator_tagE, symObjAddr: 0x30EF0, symBinAddr: 0x100036F88, symSize: 0x28 }
  - { offset: 0x57A66, size: 0x8, addend: 0x0, symName: __ZNSt3__1neB8de190102IPNS_10shared_ptrIN6spdlog5sinks4sinkEEEEEbRKNS_11__wrap_iterIT_EESB_, symObjAddr: 0x30F78, symBinAddr: 0x100037010, symSize: 0x30 }
  - { offset: 0x57AA9, size: 0x8, addend: 0x0, symName: __ZNSt3__1eqB8de190102IPNS_10shared_ptrIN6spdlog5sinks4sinkEEEEEbRKNS_11__wrap_iterIT_EESB_, symObjAddr: 0x313F0, symBinAddr: 0x100037488, symSize: 0x44 }
  - { offset: 0x57AED, size: 0x8, addend: 0x0, symName: __ZNSt3__125__throw_bad_function_callB8de190102Ev, symObjAddr: 0x315D0, symBinAddr: 0x100037668, symSize: 0x38 }
  - { offset: 0x57B6E, size: 0x8, addend: 0x0, symName: __ZNSt3__134__libcpp_atomic_refcount_decrementB8de190102IlEET_RS1_, symObjAddr: 0x31D88, symBinAddr: 0x100037CE4, symSize: 0x30 }
  - { offset: 0x57BD6, size: 0x8, addend: 0x0, symName: __ZNSt3__116forward_as_tupleB8de190102IJNS_12basic_stringIcNS_11char_traitsIcEENS_9allocatorIcEEEEEEENS_5tupleIJDpOT_EEESA_, symObjAddr: 0x324F8, symBinAddr: 0x100038454, symSize: 0x2C }
  - { offset: 0x57C11, size: 0x8, addend: 0x0, symName: __ZNSt3__116__do_string_hashB8de190102IPKcEEmT_S3_, symObjAddr: 0x32ACC, symBinAddr: 0x100038A28, symSize: 0x3C }
  - { offset: 0x57C58, size: 0x8, addend: 0x0, symName: __ZNSt3__110__loadwordB8de190102ImEET_PKv, symObjAddr: 0x334A8, symBinAddr: 0x100039404, symSize: 0x20 }
  - { offset: 0x57C9D, size: 0x8, addend: 0x0, symName: __ZNSt3__14swapB8de190102ImEENS_9enable_ifIXaasr21is_move_constructibleIT_EE5valuesr18is_move_assignableIS2_EE5valueEvE4typeERS2_S5_, symObjAddr: 0x3365C, symBinAddr: 0x1000395B8, symSize: 0x3C }
  - { offset: 0x57CF0, size: 0x8, addend: 0x0, symName: __ZNSt3__110__loadwordB8de190102IjEET_PKv, symObjAddr: 0x336EC, symBinAddr: 0x100039648, symSize: 0x20 }
  - { offset: 0x57D34, size: 0x8, addend: 0x0, symName: __ZNSt3__1eqB8de190102INS_9allocatorIcEEEEbRKNS_12basic_stringIcNS_11char_traitsIcEET_EES9_, symObjAddr: 0x339B4, symBinAddr: 0x100039910, symSize: 0xA0 }
  - { offset: 0x57DDA, size: 0x8, addend: 0x0, symName: __ZNSt3__114__construct_atB8de190102INS_11__hash_nodeINS_17__hash_value_typeINS_12basic_stringIcNS_11char_traitsIcEENS_9allocatorIcEEEENS_10shared_ptrIN6spdlog6loggerEEEEEPvEEJDnRmEPSF_EEPT_SJ_DpOT0_, symObjAddr: 0x33B6C, symBinAddr: 0x100039AC8, symSize: 0x54 }
  - { offset: 0x57E44, size: 0x8, addend: 0x0, symName: __ZNSt3__13getB8de190102ILm0EJONS_12basic_stringIcNS_11char_traitsIcEENS_9allocatorIcEEEEEEERNS_13tuple_elementIXT_ENS_5tupleIJDpT0_EEEE4typeERSC_, symObjAddr: 0x34074, symBinAddr: 0x100039FD0, symSize: 0x24 }
  - { offset: 0x57E89, size: 0x8, addend: 0x0, symName: __ZNSt3__112__destroy_atB8de190102INS_11__hash_nodeINS_17__hash_value_typeINS_12basic_stringIcNS_11char_traitsIcEENS_9allocatorIcEEEENS_10shared_ptrIN6spdlog6loggerEEEEEPvEELi0EEEvPT_, symObjAddr: 0x34A08, symBinAddr: 0x10003A964, symSize: 0x38 }
  - { offset: 0x57EC1, size: 0x8, addend: 0x0, symName: __ZNSt3__112__destroy_atB8de190102INS_4pairIKNS_12basic_stringIcNS_11char_traitsIcEENS_9allocatorIcEEEENS_10shared_ptrIN6spdlog6loggerEEEEELi0EEEvPT_, symObjAddr: 0x34A74, symBinAddr: 0x10003A9D0, symSize: 0x38 }
  - { offset: 0x57F43, size: 0x8, addend: 0x0, symName: __ZNSt3__14swapB8de190102IPN6spdlog6loggerEEENS_9enable_ifIXaasr21is_move_constructibleIT_EE5valuesr18is_move_assignableIS5_EE5valueEvE4typeERS5_S8_, symObjAddr: 0x34DD0, symBinAddr: 0x10003AD2C, symSize: 0x3C }
  - { offset: 0x57F96, size: 0x8, addend: 0x0, symName: __ZNSt3__14swapB8de190102IPNS_19__shared_weak_countEEENS_9enable_ifIXaasr21is_move_constructibleIT_EE5valuesr18is_move_assignableIS4_EE5valueEvE4typeERS4_S7_, symObjAddr: 0x34E0C, symBinAddr: 0x10003AD68, symSize: 0x3C }
  - { offset: 0x57FE8, size: 0x8, addend: 0x0, symName: __ZNSt3__122__libcpp_thread_isnullB8de190102EPKP17_opaque_pthread_t, symObjAddr: 0x350F8, symBinAddr: 0x10003B054, symSize: 0x2C }
  - { offset: 0x58015, size: 0x8, addend: 0x0, symName: __ZNSt3__122__libcpp_thread_get_idB8de190102EPKP17_opaque_pthread_t, symObjAddr: 0x35124, symBinAddr: 0x10003B080, symSize: 0x18 }
  - { offset: 0x580D5, size: 0x8, addend: 0x0, symName: __ZNSt3__112__destroy_atB8de190102INS_11__hash_nodeINS_17__hash_value_typeINS_12basic_stringIcNS_11char_traitsIcEENS_9allocatorIcEEEEN6spdlog5level10level_enumEEEPvEELi0EEEvPT_, symObjAddr: 0x354BC, symBinAddr: 0x10003B418, symSize: 0x38 }
  - { offset: 0x58140, size: 0x8, addend: 0x0, symName: __ZNSt3__112__destroy_atB8de190102INS_4pairIKNS_12basic_stringIcNS_11char_traitsIcEENS_9allocatorIcEEEEN6spdlog5level10level_enumEEELi0EEEvPT_, symObjAddr: 0x35574, symBinAddr: 0x10003B4D0, symSize: 0x38 }
  - { offset: 0x58177, size: 0x8, addend: 0x0, symName: __ZNSt3__1neB8de190102ERKNS_19__hash_map_iteratorINS_15__hash_iteratorIPNS_11__hash_nodeINS_17__hash_value_typeINS_12basic_stringIcNS_11char_traitsIcEENS_9allocatorIcEEEENS_10shared_ptrIN6spdlog6loggerEEEEEPvEEEEEESL_, symObjAddr: 0x35C38, symBinAddr: 0x10003BB94, symSize: 0x2C }
  - { offset: 0x581B4, size: 0x8, addend: 0x0, symName: __ZNSt3__1neB8de190102ERKNS_15__hash_iteratorIPNS_11__hash_nodeINS_17__hash_value_typeINS_12basic_stringIcNS_11char_traitsIcEENS_9allocatorIcEEEENS_10shared_ptrIN6spdlog6loggerEEEEEPvEEEESJ_, symObjAddr: 0x35EF8, symBinAddr: 0x10003BE54, symSize: 0x30 }
  - { offset: 0x581F2, size: 0x8, addend: 0x0, symName: __ZNSt3__1eqB8de190102ERKNS_15__hash_iteratorIPNS_11__hash_nodeINS_17__hash_value_typeINS_12basic_stringIcNS_11char_traitsIcEENS_9allocatorIcEEEENS_10shared_ptrIN6spdlog6loggerEEEEEPvEEEESJ_, symObjAddr: 0x35F28, symBinAddr: 0x10003BE84, symSize: 0x2C }
  - { offset: 0x5822F, size: 0x8, addend: 0x0, symName: __ZNSt3__14nextB8de190102INS_11__wrap_iterIPNS_10shared_ptrIN6spdlog5sinks4sinkEEEEELi0EEET_S9_NS_15iterator_traitsIS9_E15difference_typeE, symObjAddr: 0x35F54, symBinAddr: 0x10003BEB0, symSize: 0x6C }
  - { offset: 0x58279, size: 0x8, addend: 0x0, symName: __ZNSt3__19__advanceB8de190102INS_11__wrap_iterIPNS_10shared_ptrIN6spdlog5sinks4sinkEEEEEEEvRT_NS_15iterator_traitsIS9_E15difference_typeENS_26random_access_iterator_tagE, symObjAddr: 0x3602C, symBinAddr: 0x10003BF88, symSize: 0x2C }
  - { offset: 0x582C3, size: 0x8, addend: 0x0, symName: __ZNSt3__1neB8de190102IPKcEEbRKNS_11__wrap_iterIT_EES7_, symObjAddr: 0x36D98, symBinAddr: 0x10003CCF4, symSize: 0x30 }
  - { offset: 0x58306, size: 0x8, addend: 0x0, symName: __ZNSt3__111make_uniqueB8de190102IN6spdlog7details19aggregate_formatterEJEEENS_11__unique_ifIT_E15__unique_singleEDpOT0_, symObjAddr: 0x3A074, symBinAddr: 0x10003FFD0, symSize: 0x50 }
  - { offset: 0x58334, size: 0x8, addend: 0x0, symName: __ZNSt3__1neB8de190102ERKNS_19__hash_map_iteratorINS_15__hash_iteratorIPNS_11__hash_nodeINS_17__hash_value_typeIcNS_10unique_ptrIN6spdlog21custom_flag_formatterENS_14default_deleteIS6_EEEEEEPvEEEEEESH_, symObjAddr: 0x3A648, symBinAddr: 0x1000405A4, symSize: 0x2C }
  - { offset: 0x58371, size: 0x8, addend: 0x0, symName: __ZNSt3__111make_uniqueB8de190102IN6spdlog7details14full_formatterEJRNS2_12padding_infoEEEENS_11__unique_ifIT_E15__unique_singleEDpOT0_, symObjAddr: 0x3A738, symBinAddr: 0x100040694, symSize: 0x7C }
  - { offset: 0x583B5, size: 0x8, addend: 0x0, symName: __ZNSt3__111make_uniqueB8de190102IN6spdlog7details14name_formatterINS2_13scoped_padderEEEJRNS2_12padding_infoEEEENS_11__unique_ifIT_E15__unique_singleEDpOT0_, symObjAddr: 0x3A7B4, symBinAddr: 0x100040710, symSize: 0x7C }
  - { offset: 0x583F9, size: 0x8, addend: 0x0, symName: __ZNSt3__111make_uniqueB8de190102IN6spdlog7details15level_formatterINS2_13scoped_padderEEEJRNS2_12padding_infoEEEENS_11__unique_ifIT_E15__unique_singleEDpOT0_, symObjAddr: 0x3A890, symBinAddr: 0x1000407EC, symSize: 0x7C }
  - { offset: 0x5843D, size: 0x8, addend: 0x0, symName: __ZNSt3__111make_uniqueB8de190102IN6spdlog7details21short_level_formatterINS2_13scoped_padderEEEJRNS2_12padding_infoEEEENS_11__unique_ifIT_E15__unique_singleEDpOT0_, symObjAddr: 0x3A96C, symBinAddr: 0x1000408C8, symSize: 0x7C }
  - { offset: 0x58481, size: 0x8, addend: 0x0, symName: __ZNSt3__111make_uniqueB8de190102IN6spdlog7details11t_formatterINS2_13scoped_padderEEEJRNS2_12padding_infoEEEENS_11__unique_ifIT_E15__unique_singleEDpOT0_, symObjAddr: 0x3AA48, symBinAddr: 0x1000409A4, symSize: 0x7C }
  - { offset: 0x584C5, size: 0x8, addend: 0x0, symName: __ZNSt3__111make_uniqueB8de190102IN6spdlog7details11v_formatterINS2_13scoped_padderEEEJRNS2_12padding_infoEEEENS_11__unique_ifIT_E15__unique_singleEDpOT0_, symObjAddr: 0x3AB24, symBinAddr: 0x100040A80, symSize: 0x7C }
  - { offset: 0x58509, size: 0x8, addend: 0x0, symName: __ZNSt3__111make_uniqueB8de190102IN6spdlog7details11a_formatterINS2_13scoped_padderEEEJRNS2_12padding_infoEEEENS_11__unique_ifIT_E15__unique_singleEDpOT0_, symObjAddr: 0x3AC00, symBinAddr: 0x100040B5C, symSize: 0x7C }
  - { offset: 0x5854D, size: 0x8, addend: 0x0, symName: __ZNSt3__111make_uniqueB8de190102IN6spdlog7details11A_formatterINS2_13scoped_padderEEEJRNS2_12padding_infoEEEENS_11__unique_ifIT_E15__unique_singleEDpOT0_, symObjAddr: 0x3ACDC, symBinAddr: 0x100040C38, symSize: 0x7C }
  - { offset: 0x58591, size: 0x8, addend: 0x0, symName: __ZNSt3__111make_uniqueB8de190102IN6spdlog7details11b_formatterINS2_13scoped_padderEEEJRNS2_12padding_infoEEEENS_11__unique_ifIT_E15__unique_singleEDpOT0_, symObjAddr: 0x3ADB8, symBinAddr: 0x100040D14, symSize: 0x7C }
  - { offset: 0x585D5, size: 0x8, addend: 0x0, symName: __ZNSt3__111make_uniqueB8de190102IN6spdlog7details11B_formatterINS2_13scoped_padderEEEJRNS2_12padding_infoEEEENS_11__unique_ifIT_E15__unique_singleEDpOT0_, symObjAddr: 0x3AE94, symBinAddr: 0x100040DF0, symSize: 0x7C }
  - { offset: 0x58619, size: 0x8, addend: 0x0, symName: __ZNSt3__111make_uniqueB8de190102IN6spdlog7details11c_formatterINS2_13scoped_padderEEEJRNS2_12padding_infoEEEENS_11__unique_ifIT_E15__unique_singleEDpOT0_, symObjAddr: 0x3AF70, symBinAddr: 0x100040ECC, symSize: 0x7C }
  - { offset: 0x5865D, size: 0x8, addend: 0x0, symName: __ZNSt3__111make_uniqueB8de190102IN6spdlog7details11C_formatterINS2_13scoped_padderEEEJRNS2_12padding_infoEEEENS_11__unique_ifIT_E15__unique_singleEDpOT0_, symObjAddr: 0x3B04C, symBinAddr: 0x100040FA8, symSize: 0x7C }
  - { offset: 0x586A1, size: 0x8, addend: 0x0, symName: __ZNSt3__111make_uniqueB8de190102IN6spdlog7details11Y_formatterINS2_13scoped_padderEEEJRNS2_12padding_infoEEEENS_11__unique_ifIT_E15__unique_singleEDpOT0_, symObjAddr: 0x3B128, symBinAddr: 0x100041084, symSize: 0x7C }
  - { offset: 0x586E5, size: 0x8, addend: 0x0, symName: __ZNSt3__111make_uniqueB8de190102IN6spdlog7details11D_formatterINS2_13scoped_padderEEEJRNS2_12padding_infoEEEENS_11__unique_ifIT_E15__unique_singleEDpOT0_, symObjAddr: 0x3B204, symBinAddr: 0x100041160, symSize: 0x7C }
  - { offset: 0x58729, size: 0x8, addend: 0x0, symName: __ZNSt3__111make_uniqueB8de190102IN6spdlog7details11m_formatterINS2_13scoped_padderEEEJRNS2_12padding_infoEEEENS_11__unique_ifIT_E15__unique_singleEDpOT0_, symObjAddr: 0x3B2E0, symBinAddr: 0x10004123C, symSize: 0x7C }
  - { offset: 0x5876D, size: 0x8, addend: 0x0, symName: __ZNSt3__111make_uniqueB8de190102IN6spdlog7details11d_formatterINS2_13scoped_padderEEEJRNS2_12padding_infoEEEENS_11__unique_ifIT_E15__unique_singleEDpOT0_, symObjAddr: 0x3B3BC, symBinAddr: 0x100041318, symSize: 0x7C }
  - { offset: 0x587B1, size: 0x8, addend: 0x0, symName: __ZNSt3__111make_uniqueB8de190102IN6spdlog7details11H_formatterINS2_13scoped_padderEEEJRNS2_12padding_infoEEEENS_11__unique_ifIT_E15__unique_singleEDpOT0_, symObjAddr: 0x3B498, symBinAddr: 0x1000413F4, symSize: 0x7C }
  - { offset: 0x587F5, size: 0x8, addend: 0x0, symName: __ZNSt3__111make_uniqueB8de190102IN6spdlog7details11I_formatterINS2_13scoped_padderEEEJRNS2_12padding_infoEEEENS_11__unique_ifIT_E15__unique_singleEDpOT0_, symObjAddr: 0x3B574, symBinAddr: 0x1000414D0, symSize: 0x7C }
  - { offset: 0x58839, size: 0x8, addend: 0x0, symName: __ZNSt3__111make_uniqueB8de190102IN6spdlog7details11M_formatterINS2_13scoped_padderEEEJRNS2_12padding_infoEEEENS_11__unique_ifIT_E15__unique_singleEDpOT0_, symObjAddr: 0x3B650, symBinAddr: 0x1000415AC, symSize: 0x7C }
  - { offset: 0x5887D, size: 0x8, addend: 0x0, symName: __ZNSt3__111make_uniqueB8de190102IN6spdlog7details11S_formatterINS2_13scoped_padderEEEJRNS2_12padding_infoEEEENS_11__unique_ifIT_E15__unique_singleEDpOT0_, symObjAddr: 0x3B72C, symBinAddr: 0x100041688, symSize: 0x7C }
  - { offset: 0x588C1, size: 0x8, addend: 0x0, symName: __ZNSt3__111make_uniqueB8de190102IN6spdlog7details11e_formatterINS2_13scoped_padderEEEJRNS2_12padding_infoEEEENS_11__unique_ifIT_E15__unique_singleEDpOT0_, symObjAddr: 0x3B808, symBinAddr: 0x100041764, symSize: 0x7C }
  - { offset: 0x58905, size: 0x8, addend: 0x0, symName: __ZNSt3__111make_uniqueB8de190102IN6spdlog7details11f_formatterINS2_13scoped_padderEEEJRNS2_12padding_infoEEEENS_11__unique_ifIT_E15__unique_singleEDpOT0_, symObjAddr: 0x3B8E4, symBinAddr: 0x100041840, symSize: 0x7C }
  - { offset: 0x58949, size: 0x8, addend: 0x0, symName: __ZNSt3__111make_uniqueB8de190102IN6spdlog7details11F_formatterINS2_13scoped_padderEEEJRNS2_12padding_infoEEEENS_11__unique_ifIT_E15__unique_singleEDpOT0_, symObjAddr: 0x3B9C0, symBinAddr: 0x10004191C, symSize: 0x7C }
  - { offset: 0x5898D, size: 0x8, addend: 0x0, symName: __ZNSt3__111make_uniqueB8de190102IN6spdlog7details11E_formatterINS2_13scoped_padderEEEJRNS2_12padding_infoEEEENS_11__unique_ifIT_E15__unique_singleEDpOT0_, symObjAddr: 0x3BA9C, symBinAddr: 0x1000419F8, symSize: 0x7C }
  - { offset: 0x589D1, size: 0x8, addend: 0x0, symName: __ZNSt3__111make_uniqueB8de190102IN6spdlog7details11p_formatterINS2_13scoped_padderEEEJRNS2_12padding_infoEEEENS_11__unique_ifIT_E15__unique_singleEDpOT0_, symObjAddr: 0x3BB78, symBinAddr: 0x100041AD4, symSize: 0x7C }
  - { offset: 0x58A15, size: 0x8, addend: 0x0, symName: __ZNSt3__111make_uniqueB8de190102IN6spdlog7details11r_formatterINS2_13scoped_padderEEEJRNS2_12padding_infoEEEENS_11__unique_ifIT_E15__unique_singleEDpOT0_, symObjAddr: 0x3BC54, symBinAddr: 0x100041BB0, symSize: 0x7C }
  - { offset: 0x58A59, size: 0x8, addend: 0x0, symName: __ZNSt3__111make_uniqueB8de190102IN6spdlog7details11R_formatterINS2_13scoped_padderEEEJRNS2_12padding_infoEEEENS_11__unique_ifIT_E15__unique_singleEDpOT0_, symObjAddr: 0x3BD30, symBinAddr: 0x100041C8C, symSize: 0x7C }
  - { offset: 0x58A9D, size: 0x8, addend: 0x0, symName: __ZNSt3__111make_uniqueB8de190102IN6spdlog7details11T_formatterINS2_13scoped_padderEEEJRNS2_12padding_infoEEEENS_11__unique_ifIT_E15__unique_singleEDpOT0_, symObjAddr: 0x3BE0C, symBinAddr: 0x100041D68, symSize: 0x7C }
  - { offset: 0x58AE1, size: 0x8, addend: 0x0, symName: __ZNSt3__111make_uniqueB8de190102IN6spdlog7details11z_formatterINS2_13scoped_padderEEEJRNS2_12padding_infoEEEENS_11__unique_ifIT_E15__unique_singleEDpOT0_, symObjAddr: 0x3BEE8, symBinAddr: 0x100041E44, symSize: 0x7C }
  - { offset: 0x58B25, size: 0x8, addend: 0x0, symName: __ZNSt3__111make_uniqueB8de190102IN6spdlog7details13pid_formatterINS2_13scoped_padderEEEJRNS2_12padding_infoEEEENS_11__unique_ifIT_E15__unique_singleEDpOT0_, symObjAddr: 0x3BFC4, symBinAddr: 0x100041F20, symSize: 0x7C }
  - { offset: 0x58B69, size: 0x8, addend: 0x0, symName: __ZNSt3__111make_uniqueB8de190102IN6spdlog7details21color_start_formatterEJRNS2_12padding_infoEEEENS_11__unique_ifIT_E15__unique_singleEDpOT0_, symObjAddr: 0x3C0A0, symBinAddr: 0x100041FFC, symSize: 0x7C }
  - { offset: 0x58BAD, size: 0x8, addend: 0x0, symName: __ZNSt3__111make_uniqueB8de190102IN6spdlog7details20color_stop_formatterEJRNS2_12padding_infoEEEENS_11__unique_ifIT_E15__unique_singleEDpOT0_, symObjAddr: 0x3C17C, symBinAddr: 0x1000420D8, symSize: 0x7C }
  - { offset: 0x58BF1, size: 0x8, addend: 0x0, symName: __ZNSt3__111make_uniqueB8de190102IN6spdlog7details25source_location_formatterINS2_13scoped_padderEEEJRNS2_12padding_infoEEEENS_11__unique_ifIT_E15__unique_singleEDpOT0_, symObjAddr: 0x3C258, symBinAddr: 0x1000421B4, symSize: 0x7C }
  - { offset: 0x58C35, size: 0x8, addend: 0x0, symName: __ZNSt3__111make_uniqueB8de190102IN6spdlog7details24short_filename_formatterINS2_13scoped_padderEEEJRNS2_12padding_infoEEEENS_11__unique_ifIT_E15__unique_singleEDpOT0_, symObjAddr: 0x3C334, symBinAddr: 0x100042290, symSize: 0x7C }
  - { offset: 0x58C79, size: 0x8, addend: 0x0, symName: __ZNSt3__111make_uniqueB8de190102IN6spdlog7details25source_filename_formatterINS2_13scoped_padderEEEJRNS2_12padding_infoEEEENS_11__unique_ifIT_E15__unique_singleEDpOT0_, symObjAddr: 0x3C410, symBinAddr: 0x10004236C, symSize: 0x7C }
  - { offset: 0x58CBD, size: 0x8, addend: 0x0, symName: __ZNSt3__111make_uniqueB8de190102IN6spdlog7details24source_linenum_formatterINS2_13scoped_padderEEEJRNS2_12padding_infoEEEENS_11__unique_ifIT_E15__unique_singleEDpOT0_, symObjAddr: 0x3C4EC, symBinAddr: 0x100042448, symSize: 0x7C }
  - { offset: 0x58D01, size: 0x8, addend: 0x0, symName: __ZNSt3__111make_uniqueB8de190102IN6spdlog7details25source_funcname_formatterINS2_13scoped_padderEEEJRNS2_12padding_infoEEEENS_11__unique_ifIT_E15__unique_singleEDpOT0_, symObjAddr: 0x3C5C8, symBinAddr: 0x100042524, symSize: 0x7C }
  - { offset: 0x58D45, size: 0x8, addend: 0x0, symName: __ZNSt3__111make_uniqueB8de190102IN6spdlog7details12ch_formatterEJcEEENS_11__unique_ifIT_E15__unique_singleEDpOT0_, symObjAddr: 0x3C6A4, symBinAddr: 0x100042600, symSize: 0x70 }
  - { offset: 0x58D89, size: 0x8, addend: 0x0, symName: __ZNSt3__111make_uniqueB8de190102IN6spdlog7details17elapsed_formatterINS2_13scoped_padderENS_6chrono8durationIxNS_5ratioILl1ELl1000000000EEEEEEEJRNS2_12padding_infoEEEENS_11__unique_ifIT_E15__unique_singleEDpOT0_, symObjAddr: 0x3C774, symBinAddr: 0x1000426D0, symSize: 0x7C }
  - { offset: 0x58DCD, size: 0x8, addend: 0x0, symName: __ZNSt3__111make_uniqueB8de190102IN6spdlog7details17elapsed_formatterINS2_13scoped_padderENS_6chrono8durationIxNS_5ratioILl1ELl1000000EEEEEEEJRNS2_12padding_infoEEEENS_11__unique_ifIT_E15__unique_singleEDpOT0_, symObjAddr: 0x3C850, symBinAddr: 0x1000427AC, symSize: 0x7C }
  - { offset: 0x58E11, size: 0x8, addend: 0x0, symName: __ZNSt3__111make_uniqueB8de190102IN6spdlog7details17elapsed_formatterINS2_13scoped_padderENS_6chrono8durationIxNS_5ratioILl1ELl1000EEEEEEEJRNS2_12padding_infoEEEENS_11__unique_ifIT_E15__unique_singleEDpOT0_, symObjAddr: 0x3C92C, symBinAddr: 0x100042888, symSize: 0x7C }
  - { offset: 0x58E55, size: 0x8, addend: 0x0, symName: __ZNSt3__111make_uniqueB8de190102IN6spdlog7details17elapsed_formatterINS2_13scoped_padderENS_6chrono8durationIxNS_5ratioILl1ELl1EEEEEEEJRNS2_12padding_infoEEEENS_11__unique_ifIT_E15__unique_singleEDpOT0_, symObjAddr: 0x3CA08, symBinAddr: 0x100042964, symSize: 0x7C }
  - { offset: 0x58E99, size: 0x8, addend: 0x0, symName: __ZNSt3__111make_uniqueB8de190102IN6spdlog7details13mdc_formatterINS2_13scoped_padderEEEJRNS2_12padding_infoEEEENS_11__unique_ifIT_E15__unique_singleEDpOT0_, symObjAddr: 0x3CAE4, symBinAddr: 0x100042A40, symSize: 0x7C }
  - { offset: 0x58EDD, size: 0x8, addend: 0x0, symName: __ZNSt3__1neB8de190102ERKNS_15__hash_iteratorIPNS_11__hash_nodeINS_17__hash_value_typeIcNS_10unique_ptrIN6spdlog21custom_flag_formatterENS_14default_deleteIS5_EEEEEEPvEEEESF_, symObjAddr: 0x3CDD0, symBinAddr: 0x100042D2C, symSize: 0x30 }
  - { offset: 0x58F1B, size: 0x8, addend: 0x0, symName: __ZNSt3__1eqB8de190102ERKNS_15__hash_iteratorIPNS_11__hash_nodeINS_17__hash_value_typeIcNS_10unique_ptrIN6spdlog21custom_flag_formatterENS_14default_deleteIS5_EEEEEEPvEEEESF_, symObjAddr: 0x3CE00, symBinAddr: 0x100042D5C, symSize: 0x2C }
  - { offset: 0x58F8B, size: 0x8, addend: 0x0, symName: __ZNSt3__13maxB8de190102INS_6chrono8durationIxNS_5ratioILl1ELl1000000EEEEEEERKT_S8_S8_, symObjAddr: 0x4C098, symBinAddr: 0x100051F80, symSize: 0x2C }
  - { offset: 0x58FCE, size: 0x8, addend: 0x0, symName: __ZNSt3__13maxB8de190102INS_6chrono8durationIxNS_5ratioILl1ELl1000000EEEEENS_6__lessIvvEEEERKT_SA_SA_T0_, symObjAddr: 0x4C0FC, symBinAddr: 0x100051FE4, symSize: 0x54 }
  - { offset: 0x59028, size: 0x8, addend: 0x0, symName: __ZNSt3__111make_uniqueB8de190102IN6spdlog7details14name_formatterINS2_18null_scoped_padderEEEJRNS2_12padding_infoEEEENS_11__unique_ifIT_E15__unique_singleEDpOT0_, symObjAddr: 0x4E0D8, symBinAddr: 0x100053FC0, symSize: 0x7C }
  - { offset: 0x5906C, size: 0x8, addend: 0x0, symName: __ZNSt3__111make_uniqueB8de190102IN6spdlog7details15level_formatterINS2_18null_scoped_padderEEEJRNS2_12padding_infoEEEENS_11__unique_ifIT_E15__unique_singleEDpOT0_, symObjAddr: 0x4E1B4, symBinAddr: 0x10005409C, symSize: 0x7C }
  - { offset: 0x590B0, size: 0x8, addend: 0x0, symName: __ZNSt3__111make_uniqueB8de190102IN6spdlog7details21short_level_formatterINS2_18null_scoped_padderEEEJRNS2_12padding_infoEEEENS_11__unique_ifIT_E15__unique_singleEDpOT0_, symObjAddr: 0x4E290, symBinAddr: 0x100054178, symSize: 0x7C }
  - { offset: 0x590F4, size: 0x8, addend: 0x0, symName: __ZNSt3__111make_uniqueB8de190102IN6spdlog7details11t_formatterINS2_18null_scoped_padderEEEJRNS2_12padding_infoEEEENS_11__unique_ifIT_E15__unique_singleEDpOT0_, symObjAddr: 0x4E36C, symBinAddr: 0x100054254, symSize: 0x7C }
  - { offset: 0x59138, size: 0x8, addend: 0x0, symName: __ZNSt3__111make_uniqueB8de190102IN6spdlog7details11v_formatterINS2_18null_scoped_padderEEEJRNS2_12padding_infoEEEENS_11__unique_ifIT_E15__unique_singleEDpOT0_, symObjAddr: 0x4E448, symBinAddr: 0x100054330, symSize: 0x7C }
  - { offset: 0x5917C, size: 0x8, addend: 0x0, symName: __ZNSt3__111make_uniqueB8de190102IN6spdlog7details11a_formatterINS2_18null_scoped_padderEEEJRNS2_12padding_infoEEEENS_11__unique_ifIT_E15__unique_singleEDpOT0_, symObjAddr: 0x4E524, symBinAddr: 0x10005440C, symSize: 0x7C }
  - { offset: 0x591C0, size: 0x8, addend: 0x0, symName: __ZNSt3__111make_uniqueB8de190102IN6spdlog7details11A_formatterINS2_18null_scoped_padderEEEJRNS2_12padding_infoEEEENS_11__unique_ifIT_E15__unique_singleEDpOT0_, symObjAddr: 0x4E600, symBinAddr: 0x1000544E8, symSize: 0x7C }
  - { offset: 0x59204, size: 0x8, addend: 0x0, symName: __ZNSt3__111make_uniqueB8de190102IN6spdlog7details11b_formatterINS2_18null_scoped_padderEEEJRNS2_12padding_infoEEEENS_11__unique_ifIT_E15__unique_singleEDpOT0_, symObjAddr: 0x4E6DC, symBinAddr: 0x1000545C4, symSize: 0x7C }
  - { offset: 0x59248, size: 0x8, addend: 0x0, symName: __ZNSt3__111make_uniqueB8de190102IN6spdlog7details11B_formatterINS2_18null_scoped_padderEEEJRNS2_12padding_infoEEEENS_11__unique_ifIT_E15__unique_singleEDpOT0_, symObjAddr: 0x4E7B8, symBinAddr: 0x1000546A0, symSize: 0x7C }
  - { offset: 0x5928C, size: 0x8, addend: 0x0, symName: __ZNSt3__111make_uniqueB8de190102IN6spdlog7details11c_formatterINS2_18null_scoped_padderEEEJRNS2_12padding_infoEEEENS_11__unique_ifIT_E15__unique_singleEDpOT0_, symObjAddr: 0x4E894, symBinAddr: 0x10005477C, symSize: 0x7C }
  - { offset: 0x592D0, size: 0x8, addend: 0x0, symName: __ZNSt3__111make_uniqueB8de190102IN6spdlog7details11C_formatterINS2_18null_scoped_padderEEEJRNS2_12padding_infoEEEENS_11__unique_ifIT_E15__unique_singleEDpOT0_, symObjAddr: 0x4E970, symBinAddr: 0x100054858, symSize: 0x7C }
  - { offset: 0x59314, size: 0x8, addend: 0x0, symName: __ZNSt3__111make_uniqueB8de190102IN6spdlog7details11Y_formatterINS2_18null_scoped_padderEEEJRNS2_12padding_infoEEEENS_11__unique_ifIT_E15__unique_singleEDpOT0_, symObjAddr: 0x4EA4C, symBinAddr: 0x100054934, symSize: 0x7C }
  - { offset: 0x59358, size: 0x8, addend: 0x0, symName: __ZNSt3__111make_uniqueB8de190102IN6spdlog7details11D_formatterINS2_18null_scoped_padderEEEJRNS2_12padding_infoEEEENS_11__unique_ifIT_E15__unique_singleEDpOT0_, symObjAddr: 0x4EB28, symBinAddr: 0x100054A10, symSize: 0x7C }
  - { offset: 0x5939C, size: 0x8, addend: 0x0, symName: __ZNSt3__111make_uniqueB8de190102IN6spdlog7details11m_formatterINS2_18null_scoped_padderEEEJRNS2_12padding_infoEEEENS_11__unique_ifIT_E15__unique_singleEDpOT0_, symObjAddr: 0x4EC04, symBinAddr: 0x100054AEC, symSize: 0x7C }
  - { offset: 0x593E0, size: 0x8, addend: 0x0, symName: __ZNSt3__111make_uniqueB8de190102IN6spdlog7details11d_formatterINS2_18null_scoped_padderEEEJRNS2_12padding_infoEEEENS_11__unique_ifIT_E15__unique_singleEDpOT0_, symObjAddr: 0x4ECE0, symBinAddr: 0x100054BC8, symSize: 0x7C }
  - { offset: 0x59424, size: 0x8, addend: 0x0, symName: __ZNSt3__111make_uniqueB8de190102IN6spdlog7details11H_formatterINS2_18null_scoped_padderEEEJRNS2_12padding_infoEEEENS_11__unique_ifIT_E15__unique_singleEDpOT0_, symObjAddr: 0x4EDBC, symBinAddr: 0x100054CA4, symSize: 0x7C }
  - { offset: 0x59468, size: 0x8, addend: 0x0, symName: __ZNSt3__111make_uniqueB8de190102IN6spdlog7details11I_formatterINS2_18null_scoped_padderEEEJRNS2_12padding_infoEEEENS_11__unique_ifIT_E15__unique_singleEDpOT0_, symObjAddr: 0x4EE98, symBinAddr: 0x100054D80, symSize: 0x7C }
  - { offset: 0x594AC, size: 0x8, addend: 0x0, symName: __ZNSt3__111make_uniqueB8de190102IN6spdlog7details11M_formatterINS2_18null_scoped_padderEEEJRNS2_12padding_infoEEEENS_11__unique_ifIT_E15__unique_singleEDpOT0_, symObjAddr: 0x4EF74, symBinAddr: 0x100054E5C, symSize: 0x7C }
  - { offset: 0x594F0, size: 0x8, addend: 0x0, symName: __ZNSt3__111make_uniqueB8de190102IN6spdlog7details11S_formatterINS2_18null_scoped_padderEEEJRNS2_12padding_infoEEEENS_11__unique_ifIT_E15__unique_singleEDpOT0_, symObjAddr: 0x4F050, symBinAddr: 0x100054F38, symSize: 0x7C }
  - { offset: 0x59534, size: 0x8, addend: 0x0, symName: __ZNSt3__111make_uniqueB8de190102IN6spdlog7details11e_formatterINS2_18null_scoped_padderEEEJRNS2_12padding_infoEEEENS_11__unique_ifIT_E15__unique_singleEDpOT0_, symObjAddr: 0x4F12C, symBinAddr: 0x100055014, symSize: 0x7C }
  - { offset: 0x59578, size: 0x8, addend: 0x0, symName: __ZNSt3__111make_uniqueB8de190102IN6spdlog7details11f_formatterINS2_18null_scoped_padderEEEJRNS2_12padding_infoEEEENS_11__unique_ifIT_E15__unique_singleEDpOT0_, symObjAddr: 0x4F208, symBinAddr: 0x1000550F0, symSize: 0x7C }
  - { offset: 0x595BC, size: 0x8, addend: 0x0, symName: __ZNSt3__111make_uniqueB8de190102IN6spdlog7details11F_formatterINS2_18null_scoped_padderEEEJRNS2_12padding_infoEEEENS_11__unique_ifIT_E15__unique_singleEDpOT0_, symObjAddr: 0x4F2E4, symBinAddr: 0x1000551CC, symSize: 0x7C }
  - { offset: 0x59600, size: 0x8, addend: 0x0, symName: __ZNSt3__111make_uniqueB8de190102IN6spdlog7details11E_formatterINS2_18null_scoped_padderEEEJRNS2_12padding_infoEEEENS_11__unique_ifIT_E15__unique_singleEDpOT0_, symObjAddr: 0x4F3C0, symBinAddr: 0x1000552A8, symSize: 0x7C }
  - { offset: 0x59644, size: 0x8, addend: 0x0, symName: __ZNSt3__111make_uniqueB8de190102IN6spdlog7details11p_formatterINS2_18null_scoped_padderEEEJRNS2_12padding_infoEEEENS_11__unique_ifIT_E15__unique_singleEDpOT0_, symObjAddr: 0x4F49C, symBinAddr: 0x100055384, symSize: 0x7C }
  - { offset: 0x59688, size: 0x8, addend: 0x0, symName: __ZNSt3__111make_uniqueB8de190102IN6spdlog7details11r_formatterINS2_18null_scoped_padderEEEJRNS2_12padding_infoEEEENS_11__unique_ifIT_E15__unique_singleEDpOT0_, symObjAddr: 0x4F578, symBinAddr: 0x100055460, symSize: 0x7C }
  - { offset: 0x596CC, size: 0x8, addend: 0x0, symName: __ZNSt3__111make_uniqueB8de190102IN6spdlog7details11R_formatterINS2_18null_scoped_padderEEEJRNS2_12padding_infoEEEENS_11__unique_ifIT_E15__unique_singleEDpOT0_, symObjAddr: 0x4F654, symBinAddr: 0x10005553C, symSize: 0x7C }
  - { offset: 0x59710, size: 0x8, addend: 0x0, symName: __ZNSt3__111make_uniqueB8de190102IN6spdlog7details11T_formatterINS2_18null_scoped_padderEEEJRNS2_12padding_infoEEEENS_11__unique_ifIT_E15__unique_singleEDpOT0_, symObjAddr: 0x4F730, symBinAddr: 0x100055618, symSize: 0x7C }
  - { offset: 0x59754, size: 0x8, addend: 0x0, symName: __ZNSt3__111make_uniqueB8de190102IN6spdlog7details11z_formatterINS2_18null_scoped_padderEEEJRNS2_12padding_infoEEEENS_11__unique_ifIT_E15__unique_singleEDpOT0_, symObjAddr: 0x4F80C, symBinAddr: 0x1000556F4, symSize: 0x7C }
  - { offset: 0x59798, size: 0x8, addend: 0x0, symName: __ZNSt3__111make_uniqueB8de190102IN6spdlog7details13pid_formatterINS2_18null_scoped_padderEEEJRNS2_12padding_infoEEEENS_11__unique_ifIT_E15__unique_singleEDpOT0_, symObjAddr: 0x4F8E8, symBinAddr: 0x1000557D0, symSize: 0x7C }
  - { offset: 0x597DC, size: 0x8, addend: 0x0, symName: __ZNSt3__111make_uniqueB8de190102IN6spdlog7details25source_location_formatterINS2_18null_scoped_padderEEEJRNS2_12padding_infoEEEENS_11__unique_ifIT_E15__unique_singleEDpOT0_, symObjAddr: 0x4F9C4, symBinAddr: 0x1000558AC, symSize: 0x7C }
  - { offset: 0x59820, size: 0x8, addend: 0x0, symName: __ZNSt3__111make_uniqueB8de190102IN6spdlog7details24short_filename_formatterINS2_18null_scoped_padderEEEJRNS2_12padding_infoEEEENS_11__unique_ifIT_E15__unique_singleEDpOT0_, symObjAddr: 0x4FAA0, symBinAddr: 0x100055988, symSize: 0x7C }
  - { offset: 0x59864, size: 0x8, addend: 0x0, symName: __ZNSt3__111make_uniqueB8de190102IN6spdlog7details25source_filename_formatterINS2_18null_scoped_padderEEEJRNS2_12padding_infoEEEENS_11__unique_ifIT_E15__unique_singleEDpOT0_, symObjAddr: 0x4FB7C, symBinAddr: 0x100055A64, symSize: 0x7C }
  - { offset: 0x598A8, size: 0x8, addend: 0x0, symName: __ZNSt3__111make_uniqueB8de190102IN6spdlog7details24source_linenum_formatterINS2_18null_scoped_padderEEEJRNS2_12padding_infoEEEENS_11__unique_ifIT_E15__unique_singleEDpOT0_, symObjAddr: 0x4FC58, symBinAddr: 0x100055B40, symSize: 0x7C }
  - { offset: 0x598EC, size: 0x8, addend: 0x0, symName: __ZNSt3__111make_uniqueB8de190102IN6spdlog7details25source_funcname_formatterINS2_18null_scoped_padderEEEJRNS2_12padding_infoEEEENS_11__unique_ifIT_E15__unique_singleEDpOT0_, symObjAddr: 0x4FD34, symBinAddr: 0x100055C1C, symSize: 0x7C }
  - { offset: 0x59930, size: 0x8, addend: 0x0, symName: __ZNSt3__111make_uniqueB8de190102IN6spdlog7details17elapsed_formatterINS2_18null_scoped_padderENS_6chrono8durationIxNS_5ratioILl1ELl1000000000EEEEEEEJRNS2_12padding_infoEEEENS_11__unique_ifIT_E15__unique_singleEDpOT0_, symObjAddr: 0x4FE10, symBinAddr: 0x100055CF8, symSize: 0x7C }
  - { offset: 0x59974, size: 0x8, addend: 0x0, symName: __ZNSt3__111make_uniqueB8de190102IN6spdlog7details17elapsed_formatterINS2_18null_scoped_padderENS_6chrono8durationIxNS_5ratioILl1ELl1000000EEEEEEEJRNS2_12padding_infoEEEENS_11__unique_ifIT_E15__unique_singleEDpOT0_, symObjAddr: 0x4FEEC, symBinAddr: 0x100055DD4, symSize: 0x7C }
  - { offset: 0x599B8, size: 0x8, addend: 0x0, symName: __ZNSt3__111make_uniqueB8de190102IN6spdlog7details17elapsed_formatterINS2_18null_scoped_padderENS_6chrono8durationIxNS_5ratioILl1ELl1000EEEEEEEJRNS2_12padding_infoEEEENS_11__unique_ifIT_E15__unique_singleEDpOT0_, symObjAddr: 0x4FFC8, symBinAddr: 0x100055EB0, symSize: 0x7C }
  - { offset: 0x599FC, size: 0x8, addend: 0x0, symName: __ZNSt3__111make_uniqueB8de190102IN6spdlog7details17elapsed_formatterINS2_18null_scoped_padderENS_6chrono8durationIxNS_5ratioILl1ELl1EEEEEEEJRNS2_12padding_infoEEEENS_11__unique_ifIT_E15__unique_singleEDpOT0_, symObjAddr: 0x500A4, symBinAddr: 0x100055F8C, symSize: 0x7C }
  - { offset: 0x59A40, size: 0x8, addend: 0x0, symName: __ZNSt3__111make_uniqueB8de190102IN6spdlog7details13mdc_formatterINS2_18null_scoped_padderEEEJRNS2_12padding_infoEEEENS_11__unique_ifIT_E15__unique_singleEDpOT0_, symObjAddr: 0x50180, symBinAddr: 0x100056068, symSize: 0x7C }
  - { offset: 0x59A85, size: 0x8, addend: 0x0, symName: __ZNSt3__118__cxx_atomic_storeB8de190102IiEEvPNS_22__cxx_atomic_base_implIT_EES2_NS_12memory_orderE, symObjAddr: 0x5EF58, symBinAddr: 0x100064E40, symSize: 0x7C }
  - { offset: 0x59AD6, size: 0x8, addend: 0x0, symName: __ZNSt3__111make_sharedB8de190102IN6spdlog5sinks21ansicolor_stdout_sinkINS1_7details13console_mutexEEEJRNS1_10color_modeEELi0EEENS_10shared_ptrIT_EEDpOT0_, symObjAddr: 0x5F220, symBinAddr: 0x100065098, symSize: 0x40 }
  - { offset: 0x59B20, size: 0x8, addend: 0x0, symName: __ZNSt3__111make_sharedB8de190102IN6spdlog6loggerEJNS_12basic_stringIcNS_11char_traitsIcEENS_9allocatorIcEEEENS_10shared_ptrINS1_5sinks21ansicolor_stdout_sinkINS1_7details13console_mutexEEEEEELi0EEENS9_IT_EEDpOT0_, symObjAddr: 0x5F260, symBinAddr: 0x1000650D8, symSize: 0x48 }
  - { offset: 0x59B7F, size: 0x8, addend: 0x0, symName: __ZNSt3__115allocate_sharedB8de190102IN6spdlog5sinks21ansicolor_stdout_sinkINS1_7details13console_mutexEEENS_9allocatorIS6_EEJRNS1_10color_modeEELi0EEENS_10shared_ptrIT_EERKT0_DpOT1_, symObjAddr: 0x5F568, symBinAddr: 0x1000653E0, symSize: 0xDC }
  - { offset: 0x59BFF, size: 0x8, addend: 0x0, symName: __ZNSt3__115allocate_sharedB8de190102IN6spdlog6loggerENS_9allocatorIS2_EEJNS_12basic_stringIcNS_11char_traitsIcEENS3_IcEEEENS_10shared_ptrINS1_5sinks21ansicolor_stdout_sinkINS1_7details13console_mutexEEEEEELi0EEENSA_IT_EERKT0_DpOT1_, symObjAddr: 0x5F79C, symBinAddr: 0x100065614, symSize: 0xE4 }
  - { offset: 0x59C95, size: 0x8, addend: 0x0, symName: __ZNSt3__1neB8de190102ERKNS_19__hash_map_iteratorINS_15__hash_iteratorIPNS_11__hash_nodeINS_17__hash_value_typeINS_12basic_stringIcNS_11char_traitsIcEENS_9allocatorIcEEEEN6spdlog5level10level_enumEEEPvEEEEEESK_, symObjAddr: 0x5FAC8, symBinAddr: 0x100065940, symSize: 0x2C }
  - { offset: 0x59CD2, size: 0x8, addend: 0x0, symName: __ZNSt3__1neB8de190102ERKNS_15__hash_iteratorIPNS_11__hash_nodeINS_17__hash_value_typeINS_12basic_stringIcNS_11char_traitsIcEENS_9allocatorIcEEEEN6spdlog5level10level_enumEEEPvEEEESI_, symObjAddr: 0x60298, symBinAddr: 0x100066110, symSize: 0x30 }
  - { offset: 0x59D10, size: 0x8, addend: 0x0, symName: __ZNSt3__1eqB8de190102ERKNS_15__hash_iteratorIPNS_11__hash_nodeINS_17__hash_value_typeINS_12basic_stringIcNS_11char_traitsIcEENS_9allocatorIcEEEEN6spdlog5level10level_enumEEEPvEEEESI_, symObjAddr: 0x602C8, symBinAddr: 0x100066140, symSize: 0x2C }
  - { offset: 0x59DB3, size: 0x8, addend: 0x0, symName: __ZNSt3__122__make_exception_guardB8de190102INS_6vectorIN6spdlog7details14log_msg_bufferENS_9allocatorIS4_EEE16__destroy_vectorEEENS_28__exception_guard_exceptionsIT_EESA_, symObjAddr: 0x605C0, symBinAddr: 0x100066438, symSize: 0x40 }
  - { offset: 0x59DE8, size: 0x8, addend: 0x0, symName: __ZNSt3__1plB8de190102IcNS_11char_traitsIcEENS_9allocatorIcEEEENS_12basic_stringIT_T0_T1_EEOS9_PKS6_, symObjAddr: 0x60DD8, symBinAddr: 0x100066C04, symSize: 0x40 }
  - { offset: 0x59E40, size: 0x8, addend: 0x0, symName: __ZNSt3__116forward_as_tupleB8de190102IJRKNS_12basic_stringIcNS_11char_traitsIcEENS_9allocatorIcEEEEEEENS_5tupleIJDpOT_EEESC_, symObjAddr: 0x61570, symBinAddr: 0x10006739C, symSize: 0x2C }
  - { offset: 0x59E7B, size: 0x8, addend: 0x0, symName: __ZNSt3__13getB8de190102ILm0EJRKNS_12basic_stringIcNS_11char_traitsIcEENS_9allocatorIcEEEEEEERNS_13tuple_elementIXT_ENS_5tupleIJDpT0_EEEE4typeERSD_, symObjAddr: 0x61834, symBinAddr: 0x100067660, symSize: 0x24 }
  - { offset: 0x5C7A1, size: 0x8, addend: 0x0, symName: __ZN6spdlog7details2osL11folder_sepsE, symObjAddr: 0x67394, symBinAddr: 0x10006AE3C, symSize: 0x0 }
  - { offset: 0x5C7AE, size: 0x8, addend: 0x0, symName: __ZN6spdlog7details2os17is_color_terminalEv, symObjAddr: 0x2AC9C, symBinAddr: 0x1000310A0, symSize: 0x7C }
  - { offset: 0x5C7DA, size: 0x8, addend: 0x0, symName: __ZZN6spdlog7details2os17is_color_terminalEvE6result, symObjAddr: 0x64A48, symBinAddr: 0x10007D838, symSize: 0x0 }
  - { offset: 0x5C800, size: 0x8, addend: 0x0, symName: __ZN6spdlog7details2os9localtimeERKl, symObjAddr: 0x25FAC, symBinAddr: 0x10002C3B0, symSize: 0x30 }
  - { offset: 0x5C83C, size: 0x8, addend: 0x0, symName: __ZN6spdlog7details2os6gmtimeERKl, symObjAddr: 0x25FDC, symBinAddr: 0x10002C3E0, symSize: 0x30 }
  - { offset: 0x5C878, size: 0x8, addend: 0x0, symName: __ZN6spdlog7details2os11in_terminalEP7__sFILE, symObjAddr: 0x2AC50, symBinAddr: 0x100031054, symSize: 0x4C }
  - { offset: 0x5C8A6, size: 0x8, addend: 0x0, symName: __ZN6spdlog7details2os12fwrite_bytesEPKvmP7__sFILE, symObjAddr: 0x2B368, symBinAddr: 0x1000316D0, symSize: 0x44 }
  - { offset: 0x5C8F3, size: 0x8, addend: 0x0, symName: __ZN6spdlog7details2os18utc_minutes_offsetERK2tm, symObjAddr: 0x481A0, symBinAddr: 0x10004E0D0, symSize: 0x2C }
  - { offset: 0x5C92F, size: 0x8, addend: 0x0, symName: __ZN6spdlog7details2os3pidEv, symObjAddr: 0x487B4, symBinAddr: 0x10004E6E4, symSize: 0x3C }
  - { offset: 0x5C97F, size: 0x8, addend: 0x0, symName: __ZN6spdlog7detailsL4daysE, symObjAddr: 0x64AE8, symBinAddr: 0x10007D8D8, symSize: 0x0 }
  - { offset: 0x5C999, size: 0x8, addend: 0x0, symName: __ZN6spdlog7detailsL9full_daysE, symObjAddr: 0x64B20, symBinAddr: 0x10007D910, symSize: 0x0 }
  - { offset: 0x5C9B3, size: 0x8, addend: 0x0, symName: __ZN6spdlog7detailsL6monthsE, symObjAddr: 0x651E8, symBinAddr: 0x1000790F8, symSize: 0x0 }
  - { offset: 0x5C9CD, size: 0x8, addend: 0x0, symName: __ZN6spdlog7detailsL11full_monthsE, symObjAddr: 0x65288, symBinAddr: 0x100079198, symSize: 0x0 }
  - { offset: 0x5CC9D, size: 0x8, addend: 0x0, symName: __ZN6spdlog7details10fmt_helper4pad2EiRN3fmt3v1119basic_memory_bufferIcLm250ENS3_6detail9allocatorIcEEEE, symObjAddr: 0x5D60, symBinAddr: 0x10000C798, symSize: 0x1BC }
  - { offset: 0x5CE44, size: 0x8, addend: 0x0, symName: __ZN6spdlog7details10fmt_helper12count_digitsImEEjT_, symObjAddr: 0x3E6F8, symBinAddr: 0x100044628, symSize: 0x24 }
  - { offset: 0x5CE84, size: 0x8, addend: 0x0, symName: __ZN6spdlog7details10fmt_helper12count_digitsIjEEjT_, symObjAddr: 0x48828, symBinAddr: 0x10004E758, symSize: 0x24 }
  - { offset: 0x5CEC4, size: 0x8, addend: 0x0, symName: __ZN6spdlog7details10fmt_helper12count_digitsIiEEjT_, symObjAddr: 0x49A84, symBinAddr: 0x10004F96C, symSize: 0x24 }
  - { offset: 0x5CF05, size: 0x8, addend: 0x0, symName: __ZN6spdlog7details10fmt_helper18append_string_viewEN3fmt3v1117basic_string_viewIcEERNS3_19basic_memory_bufferIcLm250ENS3_6detail9allocatorIcEEEE, symObjAddr: 0x50DC, symBinAddr: 0x10000C094, symSize: 0x74 }
  - { offset: 0x5CF4B, size: 0x8, addend: 0x0, symName: __ZN6spdlog7details10fmt_helper10append_intIiEEvT_RN3fmt3v1119basic_memory_bufferIcLm250ENS5_6detail9allocatorIcEEEE, symObjAddr: 0x5CB8, symBinAddr: 0x10000C6F0, symSize: 0xA8 }
  - { offset: 0x5CF99, size: 0x8, addend: 0x0, symName: __ZN6spdlog7details10fmt_helper13time_fractionINSt3__16chrono8durationIxNS3_5ratioILl1ELl1000EEEEEEET_NS4_10time_pointINS4_12system_clockENS5_IxNS6_ILl1ELl1000000EEEEEEE, symObjAddr: 0x5F54, symBinAddr: 0x10000C98C, symSize: 0x88 }
  - { offset: 0x5CFF4, size: 0x8, addend: 0x0, symName: __ZN6spdlog7details10fmt_helper4pad3IjEEvT_RN3fmt3v1119basic_memory_bufferIcLm250ENS5_6detail9allocatorIcEEEE, symObjAddr: 0x5FDC, symBinAddr: 0x10000CA14, symSize: 0xCC }
  - { offset: 0x5D034, size: 0x8, addend: 0x0, symName: __ZN6spdlog7details10fmt_helper10append_intIjEEvT_RN3fmt3v1119basic_memory_bufferIcLm250ENS5_6detail9allocatorIcEEEE, symObjAddr: 0x255C4, symBinAddr: 0x10002B9C8, symSize: 0xA8 }
  - { offset: 0x5D083, size: 0x8, addend: 0x0, symName: __ZN6spdlog7details10fmt_helper10append_intImEEvT_RN3fmt3v1119basic_memory_bufferIcLm250ENS5_6detail9allocatorIcEEEE, symObjAddr: 0x3E650, symBinAddr: 0x100044580, symSize: 0xA8 }
  - { offset: 0x5D0D1, size: 0x8, addend: 0x0, symName: __ZN6spdlog7details10fmt_helper13time_fractionINSt3__16chrono8durationIxNS3_5ratioILl1ELl1000000EEEEEEET_NS4_10time_pointINS4_12system_clockES8_EE, symObjAddr: 0x44EA8, symBinAddr: 0x10004ADD8, symSize: 0x88 }
  - { offset: 0x5D12C, size: 0x8, addend: 0x0, symName: __ZN6spdlog7details10fmt_helper4pad6ImEEvT_RN3fmt3v1119basic_memory_bufferIcLm250ENS5_6detail9allocatorIcEEEE, symObjAddr: 0x44F30, symBinAddr: 0x10004AE60, symSize: 0x30 }
  - { offset: 0x5D16C, size: 0x8, addend: 0x0, symName: __ZN6spdlog7details10fmt_helper8pad_uintImEEvT_jRN3fmt3v1119basic_memory_bufferIcLm250ENS5_6detail9allocatorIcEEEE, symObjAddr: 0x44FCC, symBinAddr: 0x10004AEFC, symSize: 0x7C }
  - { offset: 0x5D1D7, size: 0x8, addend: 0x0, symName: __ZN6spdlog7details10fmt_helper13time_fractionINSt3__16chrono8durationIxNS3_5ratioILl1ELl1000000000EEEEEEET_NS4_10time_pointINS4_12system_clockENS5_IxNS6_ILl1ELl1000000EEEEEEE, symObjAddr: 0x4564C, symBinAddr: 0x10004B57C, symSize: 0x88 }
  - { offset: 0x5D232, size: 0x8, addend: 0x0, symName: __ZN6spdlog7details10fmt_helper4pad9ImEEvT_RN3fmt3v1119basic_memory_bufferIcLm250ENS5_6detail9allocatorIcEEEE, symObjAddr: 0x456D4, symBinAddr: 0x10004B604, symSize: 0x30 }
  - { offset: 0x5D272, size: 0x8, addend: 0x0, symName: __ZN6spdlog7details10fmt_helper10append_intIxEEvT_RN3fmt3v1119basic_memory_bufferIcLm250ENS5_6detail9allocatorIcEEEE, symObjAddr: 0x45ED0, symBinAddr: 0x10004BE00, symSize: 0xA8 }
  - { offset: 0x5F92D, size: 0x8, addend: 0x0, symName: __ZN6spdlog7detailsL5to12hERK2tm, symObjAddr: 0x436CC, symBinAddr: 0x1000495FC, symSize: 0x4C }
  - { offset: 0x5F95A, size: 0x8, addend: 0x0, symName: __ZN6spdlog7detailsL4ampmERK2tm, symObjAddr: 0x466AC, symBinAddr: 0x10004C5DC, symSize: 0x48 }
  - { offset: 0x5F987, size: 0x8, addend: 0x0, symName: __ZN6spdlog7details23conditional_static_castIiiLi0EEET_T0_, symObjAddr: 0x48814, symBinAddr: 0x10004E744, symSize: 0x14 }
  - { offset: 0x5F9E0, size: 0x8, addend: 0x0, symName: __ZN6spdlog5levelL18level_string_viewsE, symObjAddr: 0x64990, symBinAddr: 0x10007D780, symSize: 0x0 }
  - { offset: 0x5F9FA, size: 0x8, addend: 0x0, symName: __ZN6spdlog5levelL17short_level_namesE, symObjAddr: 0x64AB0, symBinAddr: 0x10007D8A0, symSize: 0x0 }
  - { offset: 0x5FA08, size: 0x8, addend: 0x0, symName: __ZN6spdlog5level14to_string_viewENS0_10level_enumE, symObjAddr: 0x60C0, symBinAddr: 0x10000CAF8, symSize: 0x20 }
  - { offset: 0x5FA35, size: 0x8, addend: 0x0, symName: __ZN6spdlog5level14to_short_c_strENS0_10level_enumE, symObjAddr: 0x3E024, symBinAddr: 0x100043F54, symSize: 0x20 }
  - { offset: 0x5FE43, size: 0x8, addend: 0x0, symName: __ZN6spdlog11set_patternENSt3__112basic_stringIcNS0_11char_traitsIcEENS0_9allocatorIcEEEENS_17pattern_time_typeE, symObjAddr: 0x180, symBinAddr: 0x10000788C, symSize: 0x154 }
  - { offset: 0x5FE7A, size: 0x8, addend: 0x0, symName: __ZN6spdlog15stdout_color_mtINS_19synchronous_factoryEEENSt3__110shared_ptrINS_6loggerEEERKNS2_12basic_stringIcNS2_11char_traitsIcEENS2_9allocatorIcEEEENS_10color_modeE, symObjAddr: 0x308, symBinAddr: 0x1000079E0, symSize: 0x7C }
  - { offset: 0x5FEBE, size: 0x8, addend: 0x0, symName: __ZN6spdlog13set_formatterENSt3__110unique_ptrINS_9formatterENS0_14default_deleteIS2_EEEE, symObjAddr: 0x420, symBinAddr: 0x100007AE0, symSize: 0x70 }
  - { offset: 0x5FF22, size: 0x8, addend: 0x0, symName: __ZN6spdlog15throw_spdlog_exENSt3__112basic_stringIcNS0_11char_traitsIcEENS0_9allocatorIcEEEE, symObjAddr: 0x60D20, symBinAddr: 0x100066B4C, symSize: 0xB8 }
  - { offset: 0x6042E, size: 0x8, addend: 0x0, symName: __ZN3fmt3v116detail7digits2Em, symObjAddr: 0x6634, symBinAddr: 0x10000D06C, symSize: 0x20 }
  - { offset: 0x6045B, size: 0x8, addend: 0x0, symName: __ZZN3fmt3v116detail7digits2EmE4data, symObjAddr: 0x666E0, symBinAddr: 0x10006A188, symSize: 0x0 }
  - { offset: 0x60475, size: 0x8, addend: 0x0, symName: __ZN3fmt3v116detail15do_count_digitsEy, symObjAddr: 0x8764, symBinAddr: 0x10000F110, symSize: 0x5C }
  - { offset: 0x604A1, size: 0x8, addend: 0x0, symName: __ZZN3fmt3v116detail15do_count_digitsEyE9bsr2log10, symObjAddr: 0x667A9, symBinAddr: 0x10006A251, symSize: 0x0 }
  - { offset: 0x604B8, size: 0x8, addend: 0x0, symName: __ZZN3fmt3v116detail15do_count_digitsEyE20zero_or_powers_of_10, symObjAddr: 0x667F0, symBinAddr: 0x10006A298, symSize: 0x0 }
  - { offset: 0x60997, size: 0x8, addend: 0x0, symName: __ZN3fmt3v116detail12is_printableEj, symObjAddr: 0xCDFC, symBinAddr: 0x1000132B4, symSize: 0x2DC }
  - { offset: 0x609C3, size: 0x8, addend: 0x0, symName: __ZZN3fmt3v116detail12is_printableEjE11singletons0, symObjAddr: 0x668C7, symBinAddr: 0x10006A36F, symSize: 0x0 }
  - { offset: 0x609DA, size: 0x8, addend: 0x0, symName: __ZZN3fmt3v116detail12is_printableEjE17singletons0_lower, symObjAddr: 0x66919, symBinAddr: 0x10006A3C1, symSize: 0x0 }
  - { offset: 0x609F1, size: 0x8, addend: 0x0, symName: __ZZN3fmt3v116detail12is_printableEjE11singletons1, symObjAddr: 0x66A3B, symBinAddr: 0x10006A4E3, symSize: 0x0 }
  - { offset: 0x60A08, size: 0x8, addend: 0x0, symName: __ZZN3fmt3v116detail12is_printableEjE17singletons1_lower, symObjAddr: 0x66A87, symBinAddr: 0x10006A52F, symSize: 0x0 }
  - { offset: 0x60A1F, size: 0x8, addend: 0x0, symName: __ZZN3fmt3v116detail12is_printableEjE7normal0, symObjAddr: 0x66B36, symBinAddr: 0x10006A5DE, symSize: 0x0 }
  - { offset: 0x60A36, size: 0x8, addend: 0x0, symName: __ZZN3fmt3v116detail12is_printableEjE7normal1, symObjAddr: 0x66C6B, symBinAddr: 0x10006A713, symSize: 0x0 }
  - { offset: 0x60E21, size: 0x8, addend: 0x0, symName: __ZN3fmt3v116detail9dragonbox10to_decimalIfEENS2_10decimal_fpIT_EES5_, symObjAddr: 0x1042C, symBinAddr: 0x100016844, symSize: 0x7F0 }
  - { offset: 0x610C7, size: 0x8, addend: 0x0, symName: __ZN3fmt3v116detail9dragonbox10to_decimalIdEENS2_10decimal_fpIT_EES5_, symObjAddr: 0x13B20, symBinAddr: 0x100019F38, symSize: 0xB60 }
  - { offset: 0x615AF, size: 0x8, addend: 0x0, symName: __ZN3fmt3v116detail9dragonbox16floor_log10_pow2Ei, symObjAddr: 0x10FE0, symBinAddr: 0x1000173F8, symSize: 0x6C }
  - { offset: 0x615DD, size: 0x8, addend: 0x0, symName: __ZN3fmt3v116detail9dragonbox16floor_log2_pow10Ei, symObjAddr: 0x110B8, symBinAddr: 0x1000174D0, symSize: 0x6C }
  - { offset: 0x6160C, size: 0x8, addend: 0x0, symName: __ZN3fmt3v116detail9dragonbox28divide_by_10_to_kappa_plus_1Ej, symObjAddr: 0x111A8, symBinAddr: 0x1000175C0, symSize: 0x28 }
  - { offset: 0x6163A, size: 0x8, addend: 0x0, symName: __ZN3fmt3v116detail9dragonbox38check_divisibility_and_divide_by_pow10ILi1EEEbRj, symObjAddr: 0x112A4, symBinAddr: 0x1000176BC, symSize: 0xA8 }
  - { offset: 0x616AC, size: 0x8, addend: 0x0, symName: __ZN3fmt3v116detail9dragonbox37floor_log10_pow2_minus_log10_4_over_3Ei, symObjAddr: 0x1134C, symBinAddr: 0x100017764, symSize: 0x78 }
  - { offset: 0x616D9, size: 0x8, addend: 0x0, symName: __ZN3fmt3v116detail9dragonbox41is_left_endpoint_integer_shorter_intervalIfEEbi, symObjAddr: 0x114B4, symBinAddr: 0x1000178CC, symSize: 0x54 }
  - { offset: 0x6172E, size: 0x8, addend: 0x0, symName: __ZN3fmt3v116detail9dragonbox14umul96_upper64Ejy, symObjAddr: 0x11560, symBinAddr: 0x100017978, symSize: 0x30 }
  - { offset: 0x61769, size: 0x8, addend: 0x0, symName: __ZN3fmt3v116detail9dragonbox15umul128_upper64Eyy, symObjAddr: 0x11590, symBinAddr: 0x1000179A8, symSize: 0x50 }
  - { offset: 0x617B6, size: 0x8, addend: 0x0, symName: __ZN3fmt3v116detail9dragonbox14umul96_lower64Ejy, symObjAddr: 0x115E0, symBinAddr: 0x1000179F8, symSize: 0x20 }
  - { offset: 0x61948, size: 0x8, addend: 0x0, symName: __ZN3fmt3v116detail9dragonbox28divide_by_10_to_kappa_plus_1Ey, symObjAddr: 0x14A60, symBinAddr: 0x10001AE78, symSize: 0x38 }
  - { offset: 0x61976, size: 0x8, addend: 0x0, symName: __ZN3fmt3v116detail9dragonbox38check_divisibility_and_divide_by_pow10ILi2EEEbRj, symObjAddr: 0x14BB4, symBinAddr: 0x10001AFCC, symSize: 0xA8 }
  - { offset: 0x619E9, size: 0x8, addend: 0x0, symName: __ZN3fmt3v116detail9dragonbox41is_left_endpoint_integer_shorter_intervalIdEEbi, symObjAddr: 0x14D4C, symBinAddr: 0x10001B164, symSize: 0x54 }
  - { offset: 0x61A3E, size: 0x8, addend: 0x0, symName: __ZN3fmt3v116detail9dragonbox16umul192_upper128EyNS1_16uint128_fallbackE, symObjAddr: 0x14F64, symBinAddr: 0x10001B37C, symSize: 0x8C }
  - { offset: 0x61A8A, size: 0x8, addend: 0x0, symName: __ZN3fmt3v116detail9dragonbox16umul192_lower128EyNS1_16uint128_fallbackE, symObjAddr: 0x14FF0, symBinAddr: 0x10001B408, symSize: 0xC0 }
  - { offset: 0x61AE2, size: 0x8, addend: 0x0, symName: __ZN3fmt3v116detail9dragonbox16get_cached_powerEi, symObjAddr: 0x1DFC8, symBinAddr: 0x1000243E0, symSize: 0x34 }
  - { offset: 0x6231F, size: 0x8, addend: 0x0, symName: __ZN3fmt3v116detail13get_containerINSt3__120back_insert_iteratorINS0_19basic_memory_bufferIcLm250ENS1_9allocatorIcEEEEEEEERNT_14container_typeESA_, symObjAddr: 0x6B80, symBinAddr: 0x10000D5B8, symSize: 0x34 }
  - { offset: 0x6237A, size: 0x8, addend: 0x0, symName: __ZN3fmt3v116detail13get_containerINS0_14basic_appenderIcEEEERNT_14container_typeES5_, symObjAddr: 0x81D8, symBinAddr: 0x10000EC10, symSize: 0x34 }
  - { offset: 0x62405, size: 0x8, addend: 0x0, symName: __ZN3fmt3v116detail9write_locENS0_14basic_appenderIcEENS0_9loc_valueERKNS0_12format_specsENS1_10locale_refE, symObjAddr: 0x95BC, symBinAddr: 0x10000FF68, symSize: 0x1A8 }
  - { offset: 0x6247B, size: 0x8, addend: 0x0, symName: __ZN3fmt3v116detail5writeIcNS0_14basic_appenderIcEEfLi0EEET0_S5_T1_, symObjAddr: 0x1012C, symBinAddr: 0x100016544, symSize: 0x11C }
  - { offset: 0x6254D, size: 0x8, addend: 0x0, symName: __ZN3fmt3v116detail13exponent_maskIfEENS1_9dragonbox10float_infoIT_vE12carrier_uintEv, symObjAddr: 0x10248, symBinAddr: 0x100016660, symSize: 0x1C }
  - { offset: 0x62581, size: 0x8, addend: 0x0, symName: __ZN3fmt3v116detail5writeIcNS0_14basic_appenderIcEEdLi0EEET0_S5_T1_, symObjAddr: 0x13990, symBinAddr: 0x100019DA8, symSize: 0x11C }
  - { offset: 0x62654, size: 0x8, addend: 0x0, symName: __ZN3fmt3v116detail13exponent_maskIdEENS1_9dragonbox10float_infoIT_vE12carrier_uintEv, symObjAddr: 0x13AAC, symBinAddr: 0x100019EC4, symSize: 0x20 }
  - { offset: 0x62688, size: 0x8, addend: 0x0, symName: __ZN3fmt3v116detail5writeIcNS0_14basic_appenderIcEEeLi0EEET0_S5_T1_, symObjAddr: 0x16CF0, symBinAddr: 0x10001D108, symSize: 0x11C }
  - { offset: 0x6275B, size: 0x8, addend: 0x0, symName: __ZN3fmt3v116detail5writeIcNS0_14basic_appenderIcEEEET0_S5_T_RKNS0_12format_specsENS1_10locale_refE, symObjAddr: 0x1C034, symBinAddr: 0x10002244C, symSize: 0x17C }
  - { offset: 0x62822, size: 0x8, addend: 0x0, symName: __ZN3fmt3v116detail11write_floatIcNS0_14basic_appenderIcEEfEET0_S5_T1_NS0_12format_specsENS1_10locale_refE, symObjAddr: 0x1C574, symBinAddr: 0x10002298C, symSize: 0x4C4 }
  - { offset: 0x6297B, size: 0x8, addend: 0x0, symName: __ZN3fmt3v116detail15format_hexfloatIdLi0EEEvT_NS0_12format_specsERNS1_6bufferIcEE, symObjAddr: 0x1CB40, symBinAddr: 0x100022F58, symSize: 0x3F4 }
  - { offset: 0x62AF4, size: 0x8, addend: 0x0, symName: __ZN3fmt3v116detail11write_floatIcNS0_14basic_appenderIcEEdEET0_S5_T1_NS0_12format_specsENS1_10locale_refE, symObjAddr: 0x22C70, symBinAddr: 0x100029088, symSize: 0x4B8 }
  - { offset: 0x62C1A, size: 0x8, addend: 0x0, symName: __ZN3fmt3v116detail11write_floatIcNS0_14basic_appenderIcEEeEET0_S5_T1_NS0_12format_specsENS1_10locale_refE, symObjAddr: 0x233A4, symBinAddr: 0x1000297BC, symSize: 0x4C8 }
  - { offset: 0x62D4C, size: 0x8, addend: 0x0, symName: __ZN3fmt3v116detail11utf8_decodeEPKcPjPi, symObjAddr: 0x2441C, symBinAddr: 0x10002A834, symSize: 0x284 }
  - { offset: 0x62E3A, size: 0x8, addend: 0x0, symName: __ZN3fmt3v116detail13compute_widthENS0_17basic_string_viewIcEE, symObjAddr: 0x23F04, symBinAddr: 0x10002A31C, symSize: 0x48 }
  - { offset: 0x62F3E, size: 0x8, addend: 0x0, symName: __ZN3fmt3v116detail17do_format_decimalIcjEEPT_S4_T0_i, symObjAddr: 0x6434, symBinAddr: 0x10000CE6C, symSize: 0x16C }
  - { offset: 0x6302B, size: 0x8, addend: 0x0, symName: __ZN3fmt3v116detail12count_digitsEj, symObjAddr: 0x65A0, symBinAddr: 0x10000CFD8, symSize: 0x4C }
  - { offset: 0x63082, size: 0x8, addend: 0x0, symName: __ZN3fmt3v116detail11to_unsignedIiEENSt3__113make_unsignedIT_E4typeES5_, symObjAddr: 0x65EC, symBinAddr: 0x10000D024, symSize: 0x48 }
  - { offset: 0x630B9, size: 0x8, addend: 0x0, symName: __ZN3fmt3v116detail10get_bufferIcNSt3__120back_insert_iteratorINS0_19basic_memory_bufferIcLm250ENS1_9allocatorIcEEEEEELi0EEERNS1_6bufferIT_EET0_, symObjAddr: 0x6758, symBinAddr: 0x10000D190, symSize: 0x2C }
  - { offset: 0x6336F, size: 0x8, addend: 0x0, symName: __ZN3fmt3v116detail10vformat_toERNS1_6bufferIcEENS0_17basic_string_viewIcEENS0_17basic_format_argsINS0_7contextEEENS1_10locale_refE, symObjAddr: 0x6784, symBinAddr: 0x10000D1BC, symSize: 0x370 }
  - { offset: 0x63406, size: 0x8, addend: 0x0, symName: __ZN3fmt3v116detail12get_iteratorIcNSt3__120back_insert_iteratorINS0_19basic_memory_bufferIcLm250ENS1_9allocatorIcEEEEEEEET0_RNS1_6bufferIT_EESA_, symObjAddr: 0x6B60, symBinAddr: 0x10000D598, symSize: 0x20 }
  - { offset: 0x63452, size: 0x8, addend: 0x0, symName: __ZN3fmt3v116detail6equal2EPKcS3_, symObjAddr: 0x6C3C, symBinAddr: 0x10000D674, symSize: 0x38 }
  - { offset: 0x6363F, size: 0x8, addend: 0x0, symName: __ZN3fmt3v116detail19parse_format_stringIcNS1_14format_handlerIcEEEEvNS0_17basic_string_viewIT_EEOT0_, symObjAddr: 0x6D5C, symBinAddr: 0x10000D794, symSize: 0x8FC }
  - { offset: 0x637FE, size: 0x8, addend: 0x0, symName: __ZN3fmt3v116detail3mapEn, symObjAddr: 0x7A3C, symBinAddr: 0x10000E474, symSize: 0x2C }
  - { offset: 0x6382D, size: 0x8, addend: 0x0, symName: __ZN3fmt3v116detail3mapEo, symObjAddr: 0x7ABC, symBinAddr: 0x10000E4F4, symSize: 0x2C }
  - { offset: 0x638A7, size: 0x8, addend: 0x0, symName: __ZN3fmt3v116detail5writeIcNS0_14basic_appenderIcEEiLi0EEET0_S5_T1_, symObjAddr: 0x7E50, symBinAddr: 0x10000E888, symSize: 0x154 }
  - { offset: 0x63989, size: 0x8, addend: 0x0, symName: __ZN3fmt3v116detail11is_negativeIiLi0EEEbT_, symObjAddr: 0x7FA4, symBinAddr: 0x10000E9DC, symSize: 0x1C }
  - { offset: 0x639C6, size: 0x8, addend: 0x0, symName: __ZN3fmt3v116detail10to_pointerIcEEPT_NS0_14basic_appenderIS3_EEm, symObjAddr: 0x7FC0, symBinAddr: 0x10000E9F8, symSize: 0xBC }
  - { offset: 0x63A2A, size: 0x8, addend: 0x0, symName: __ZN3fmt3v116detail14format_decimalIcjNS0_14basic_appenderIcEELi0EEET1_S5_T0_i, symObjAddr: 0x80F0, symBinAddr: 0x10000EB28, symSize: 0xE8 }
  - { offset: 0x63ABB, size: 0x8, addend: 0x0, symName: __ZN3fmt3v116detail13copy_noinlineIcPcNS0_14basic_appenderIcEEEET1_T0_S7_S6_, symObjAddr: 0x82EC, symBinAddr: 0x10000EC98, symSize: 0x44 }
  - { offset: 0x63B22, size: 0x8, addend: 0x0, symName: __ZN3fmt3v116detail4copyIcPcNS0_14basic_appenderIcEELi0EEET1_T0_S7_S6_, symObjAddr: 0x8330, symBinAddr: 0x10000ECDC, symSize: 0x4C }
  - { offset: 0x63B8F, size: 0x8, addend: 0x0, symName: __ZN3fmt3v116detail5writeIcNS0_14basic_appenderIcEEjLi0EEET0_S5_T1_, symObjAddr: 0x837C, symBinAddr: 0x10000ED28, symSize: 0x154 }
  - { offset: 0x63C71, size: 0x8, addend: 0x0, symName: __ZN3fmt3v116detail11is_negativeIjLi0EEEbT_, symObjAddr: 0x84D0, symBinAddr: 0x10000EE7C, symSize: 0x18 }
  - { offset: 0x63CF7, size: 0x8, addend: 0x0, symName: __ZN3fmt3v116detail5writeIcNS0_14basic_appenderIcEExLi0EEET0_S5_T1_, symObjAddr: 0x84E8, symBinAddr: 0x10000EE94, symSize: 0x154 }
  - { offset: 0x63DD9, size: 0x8, addend: 0x0, symName: __ZN3fmt3v116detail11is_negativeIxLi0EEEbT_, symObjAddr: 0x863C, symBinAddr: 0x10000EFE8, symSize: 0x1C }
  - { offset: 0x63E16, size: 0x8, addend: 0x0, symName: __ZN3fmt3v116detail12count_digitsEy, symObjAddr: 0x8658, symBinAddr: 0x10000F004, symSize: 0x24 }
  - { offset: 0x63E44, size: 0x8, addend: 0x0, symName: __ZN3fmt3v116detail14format_decimalIcyNS0_14basic_appenderIcEELi0EEET1_S5_T0_i, symObjAddr: 0x867C, symBinAddr: 0x10000F028, symSize: 0xE8 }
  - { offset: 0x63ED5, size: 0x8, addend: 0x0, symName: __ZN3fmt3v116detail17do_format_decimalIcyEEPT_S4_T0_i, symObjAddr: 0x87C0, symBinAddr: 0x10000F16C, symSize: 0x170 }
  - { offset: 0x63F94, size: 0x8, addend: 0x0, symName: __ZN3fmt3v116detail5writeIcNS0_14basic_appenderIcEEyLi0EEET0_S5_T1_, symObjAddr: 0x8930, symBinAddr: 0x10000F2DC, symSize: 0x154 }
  - { offset: 0x64076, size: 0x8, addend: 0x0, symName: __ZN3fmt3v116detail11is_negativeIyLi0EEEbT_, symObjAddr: 0x8A84, symBinAddr: 0x10000F430, symSize: 0x18 }
  - { offset: 0x640FC, size: 0x8, addend: 0x0, symName: __ZN3fmt3v116detail5writeIcNS0_14basic_appenderIcEEnLi0EEET0_S5_T1_, symObjAddr: 0x8A9C, symBinAddr: 0x10000F448, symSize: 0x1C0 }
  - { offset: 0x641DF, size: 0x8, addend: 0x0, symName: __ZN3fmt3v116detail11is_negativeInLi0EEEbT_, symObjAddr: 0x8C5C, symBinAddr: 0x10000F608, symSize: 0x48 }
  - { offset: 0x6421C, size: 0x8, addend: 0x0, symName: __ZN3fmt3v116detail12count_digitsEo, symObjAddr: 0x8CA4, symBinAddr: 0x10000F650, symSize: 0x3C }
  - { offset: 0x6424A, size: 0x8, addend: 0x0, symName: __ZN3fmt3v116detail14format_decimalIcoNS0_14basic_appenderIcEELi0EEET1_S5_T0_i, symObjAddr: 0x8CE0, symBinAddr: 0x10000F68C, symSize: 0x110 }
  - { offset: 0x642DC, size: 0x8, addend: 0x0, symName: __ZN3fmt3v116detail21count_digits_fallbackIoEEiT_, symObjAddr: 0x8DF0, symBinAddr: 0x10000F79C, symSize: 0x190 }
  - { offset: 0x64322, size: 0x8, addend: 0x0, symName: __ZN3fmt3v116detail17do_format_decimalIcoEEPT_S4_T0_i, symObjAddr: 0x8F80, symBinAddr: 0x10000F92C, symSize: 0x1AC }
  - { offset: 0x643E2, size: 0x8, addend: 0x0, symName: __ZN3fmt3v116detail5writeIcNS0_14basic_appenderIcEEoLi0EEET0_S5_T1_, symObjAddr: 0x912C, symBinAddr: 0x10000FAD8, symSize: 0x1C0 }
  - { offset: 0x644C5, size: 0x8, addend: 0x0, symName: __ZN3fmt3v116detail11is_negativeIoLi0EEEbT_, symObjAddr: 0x92EC, symBinAddr: 0x10000FC98, symSize: 0x20 }
  - { offset: 0x6455E, size: 0x8, addend: 0x0, symName: __ZN3fmt3v116detail5writeIcNS0_14basic_appenderIcEEbLi0EEET0_S5_T1_RKNS0_12format_specsENS1_10locale_refE, symObjAddr: 0x930C, symBinAddr: 0x10000FCB8, symSize: 0x1E4 }
  - { offset: 0x6461A, size: 0x8, addend: 0x0, symName: __ZN3fmt3v116detail11write_bytesIcLNS0_5alignE1ENS0_14basic_appenderIcEEEET1_S6_NS0_17basic_string_viewIcEERKNS0_12format_specsE, symObjAddr: 0x9538, symBinAddr: 0x10000FEE4, symSize: 0x64 }
  - { offset: 0x6486F, size: 0x8, addend: 0x0, symName: __ZN3fmt3v116detail18write_int_noinlineIcNS0_14basic_appenderIcEEjEET0_S5_NS1_13write_int_argIT1_EERKNS0_12format_specsE, symObjAddr: 0x9798, symBinAddr: 0x100010144, symSize: 0x410 }
  - { offset: 0x649AF, size: 0x8, addend: 0x0, symName: __ZN3fmt3v116detail18make_write_int_argIiEENS1_13write_int_argINSt3__111conditionalIXaalecl8num_bitsIT_EELi32EntLi0EEjNS5_IXlecl8num_bitsIS6_EELi64EEyoE4typeEE4typeEEES6_NS0_4signE, symObjAddr: 0x9BA8, symBinAddr: 0x100010554, symSize: 0xCC }
  - { offset: 0x64D32, size: 0x8, addend: 0x0, symName: __ZN3fmt3v116detail9write_intINS0_14basic_appenderIcEEycEET_S5_T0_jRKNS0_12format_specsERKNS1_14digit_groupingIT1_EE, symObjAddr: 0xB57C, symBinAddr: 0x100011A34, symSize: 0x4B0 }
  - { offset: 0x64F6D, size: 0x8, addend: 0x0, symName: __ZN3fmt3v116detail13prefix_appendERjj, symObjAddr: 0xBAE8, symBinAddr: 0x100011FA0, symSize: 0x78 }
  - { offset: 0x64FA6, size: 0x8, addend: 0x0, symName: __ZN3fmt3v116detail12count_digitsILi4EyEEiT0_, symObjAddr: 0xBB80, symBinAddr: 0x100012038, symSize: 0x28 }
  - { offset: 0x65008, size: 0x8, addend: 0x0, symName: __ZN3fmt3v116detail13format_base2eIcNS0_14basic_appenderIcEEyLi0EEET0_iS5_T1_ib, symObjAddr: 0xBBA8, symBinAddr: 0x100012060, symSize: 0x108 }
  - { offset: 0x650BA, size: 0x8, addend: 0x0, symName: __ZN3fmt3v116detail12count_digitsILi3EyEEiT0_, symObjAddr: 0xBCB0, symBinAddr: 0x100012168, symSize: 0x28 }
  - { offset: 0x6511C, size: 0x8, addend: 0x0, symName: __ZN3fmt3v116detail12count_digitsILi1EyEEiT0_, symObjAddr: 0xBCD8, symBinAddr: 0x100012190, symSize: 0x28 }
  - { offset: 0x6517E, size: 0x8, addend: 0x0, symName: __ZN3fmt3v116detail10write_charIcNS0_14basic_appenderIcEEEET0_S5_T_RKNS0_12format_specsE, symObjAddr: 0xBD00, symBinAddr: 0x1000121B8, symSize: 0x74 }
  - { offset: 0x65226, size: 0x8, addend: 0x0, symName: __ZN3fmt3v116detail12write_paddedIcLNS0_5alignE2ENS0_14basic_appenderIcEEZNS1_9write_intIS5_ycEET_S7_T0_jRKNS0_12format_specsERKNS1_14digit_groupingIT1_EEEUlS5_E_EESD_SD_SB_mmOT2_, symObjAddr: 0xBE30, symBinAddr: 0x1000122E8, symSize: 0x1A8 }
  - { offset: 0x65313, size: 0x8, addend: 0x0, symName: __ZN3fmt3v116detail13format_base2eIcyEEPT_iS4_T0_ib, symObjAddr: 0xC200, symBinAddr: 0x1000126B8, symSize: 0x54 }
  - { offset: 0x65390, size: 0x8, addend: 0x0, symName: __ZN3fmt3v116detail16do_format_base2eIcyEEPT_iS4_T0_ib, symObjAddr: 0xC254, symBinAddr: 0x10001270C, symSize: 0x100 }
  - { offset: 0x65430, size: 0x8, addend: 0x0, symName: __ZN3fmt3v116detail12write_paddedIcLNS0_5alignE1ENS0_14basic_appenderIcEEZNS1_10write_charIcS5_EET0_S7_T_RKNS0_12format_specsEEUlS5_E_EET1_SD_SB_mOT2_, symObjAddr: 0xC3DC, symBinAddr: 0x100012894, symSize: 0x50 }
  - { offset: 0x654B0, size: 0x8, addend: 0x0, symName: __ZN3fmt3v116detail12write_paddedIcLNS0_5alignE1ENS0_14basic_appenderIcEERZNS1_10write_charIcS5_EET0_S7_T_RKNS0_12format_specsEEUlS5_E_EET1_SE_SB_mmOT2_, symObjAddr: 0xC42C, symBinAddr: 0x1000128E4, symSize: 0x1A8 }
  - { offset: 0x6559D, size: 0x8, addend: 0x0, symName: __ZN3fmt3v116detail7reserveIcEENS0_14basic_appenderIT_EES5_m, symObjAddr: 0xC5F4, symBinAddr: 0x100012AAC, symSize: 0x64 }
  - { offset: 0x655F2, size: 0x8, addend: 0x0, symName: __ZN3fmt3v116detail4fillIcNS0_14basic_appenderIcEEEET0_S5_mRKNS0_11basic_specsE, symObjAddr: 0xC680, symBinAddr: 0x100012B38, symSize: 0xFC }
  - { offset: 0x6569F, size: 0x8, addend: 0x0, symName: __ZN3fmt3v116detail13base_iteratorINS0_14basic_appenderIcEEEET_S5_S5_, symObjAddr: 0xC810, symBinAddr: 0x100012CC8, symSize: 0x20 }
  - { offset: 0x656E2, size: 0x8, addend: 0x0, symName: __ZN3fmt3v116detail6fill_nINS0_14basic_appenderIcEEmcEET_S5_T0_RKT1_, symObjAddr: 0xC830, symBinAddr: 0x100012CE8, symSize: 0x90 }
  - { offset: 0x65767, size: 0x8, addend: 0x0, symName: __ZN3fmt3v116detail4copyIcPKcNS0_14basic_appenderIcEELi0EEET1_T0_S8_S7_, symObjAddr: 0xC904, symBinAddr: 0x100012DBC, symSize: 0x4C }
  - { offset: 0x657D4, size: 0x8, addend: 0x0, symName: __ZN3fmt3v116detail18write_escaped_charIcNS0_14basic_appenderIcEEEET0_S5_T_, symObjAddr: 0xC950, symBinAddr: 0x100012E08, symSize: 0x120 }
  - { offset: 0x65832, size: 0x8, addend: 0x0, symName: __ZN3fmt3v116detail12needs_escapeEj, symObjAddr: 0xCA70, symBinAddr: 0x100012F28, symSize: 0x94 }
  - { offset: 0x65860, size: 0x8, addend: 0x0, symName: __ZN3fmt3v116detail16write_escaped_cpINS0_14basic_appenderIcEEcEET_S5_RKNS1_18find_escape_resultIT0_EE, symObjAddr: 0xCB04, symBinAddr: 0x100012FBC, symSize: 0x2F8 }
  - { offset: 0x65916, size: 0x8, addend: 0x0, symName: __ZN3fmt3v116detail12is_printableEtPKNS1_9singletonEmPKhS6_m, symObjAddr: 0xD0D8, symBinAddr: 0x100013590, symSize: 0x20C }
  - { offset: 0x65A85, size: 0x8, addend: 0x0, symName: __ZN3fmt3v116detail15write_codepointILm2EcNS0_14basic_appenderIcEEEET1_S5_cj, symObjAddr: 0xD2E4, symBinAddr: 0x10001379C, symSize: 0xD4 }
  - { offset: 0x65AFC, size: 0x8, addend: 0x0, symName: __ZN3fmt3v116detail15write_codepointILm4EcNS0_14basic_appenderIcEEEET1_S5_cj, symObjAddr: 0xD3B8, symBinAddr: 0x100013870, symSize: 0xD4 }
  - { offset: 0x65B73, size: 0x8, addend: 0x0, symName: __ZN3fmt3v116detail15write_codepointILm8EcNS0_14basic_appenderIcEEEET1_S5_cj, symObjAddr: 0xD48C, symBinAddr: 0x100013944, symSize: 0x10C }
  - { offset: 0x65BEA, size: 0x8, addend: 0x0, symName: __ZN3fmt3v116detail6fill_nIcmEEPT_S4_T0_c, symObjAddr: 0xD60C, symBinAddr: 0x100013A50, symSize: 0x58 }
  - { offset: 0x65C48, size: 0x8, addend: 0x0, symName: __ZN3fmt3v116detail13format_base2eIcjEEPT_iS4_T0_ib, symObjAddr: 0xD664, symBinAddr: 0x100013AA8, symSize: 0x54 }
  - { offset: 0x65CC5, size: 0x8, addend: 0x0, symName: __ZN3fmt3v116detail11to_unsignedImEENSt3__113make_unsignedIT_E4typeES5_, symObjAddr: 0xD6B8, symBinAddr: 0x100013AFC, symSize: 0x14 }
  - { offset: 0x65CFD, size: 0x8, addend: 0x0, symName: __ZN3fmt3v116detail16do_format_base2eIcjEEPT_iS4_T0_ib, symObjAddr: 0xD6CC, symBinAddr: 0x100013B10, symSize: 0xF4 }
  - { offset: 0x65D9D, size: 0x8, addend: 0x0, symName: __ZN3fmt3v116detail9max_valueIiEET_v, symObjAddr: 0xDA10, symBinAddr: 0x100013E28, symSize: 0x14 }
  - { offset: 0x65DC5, size: 0x8, addend: 0x0, symName: __ZN3fmt3v116detail9max_valueIcEET_v, symObjAddr: 0xDB34, symBinAddr: 0x100013F4C, symSize: 0x14 }
  - { offset: 0x6606C, size: 0x8, addend: 0x0, symName: __ZN3fmt3v116detail18make_write_int_argIjEENS1_13write_int_argINSt3__111conditionalIXaalecl8num_bitsIT_EELi32EntLi0EEjNS5_IXlecl8num_bitsIS6_EELi64EEyoE4typeEE4typeEEES6_NS0_4signE, symObjAddr: 0xE5FC, symBinAddr: 0x100014A14, symSize: 0xCC }
  - { offset: 0x660EE, size: 0x8, addend: 0x0, symName: __ZN3fmt3v116detail18make_write_int_argIxEENS1_13write_int_argINSt3__111conditionalIXaalecl8num_bitsIT_EELi32EntLi0EEjNS5_IXlecl8num_bitsIS6_EELi64EEyoE4typeEE4typeEEES6_NS0_4signE, symObjAddr: 0xE6C8, symBinAddr: 0x100014AE0, symSize: 0xD8 }
  - { offset: 0x66170, size: 0x8, addend: 0x0, symName: __ZN3fmt3v116detail18make_write_int_argIyEENS1_13write_int_argINSt3__111conditionalIXaalecl8num_bitsIT_EELi32EntLi0EEjNS5_IXlecl8num_bitsIS6_EELi64EEyoE4typeEE4typeEEES6_NS0_4signE, symObjAddr: 0xE7A0, symBinAddr: 0x100014BB8, symSize: 0xD8 }
  - { offset: 0x661F2, size: 0x8, addend: 0x0, symName: __ZN3fmt3v116detail18make_write_int_argInEENS1_13write_int_argINSt3__111conditionalIXaalecl8num_bitsIT_EELi32EntLi0EEjNS5_IXlecl8num_bitsIS6_EELi64EEyoE4typeEE4typeEEES6_NS0_4signE, symObjAddr: 0xE878, symBinAddr: 0x100014C90, symSize: 0x104 }
  - { offset: 0x66274, size: 0x8, addend: 0x0, symName: __ZN3fmt3v116detail9write_intINS0_14basic_appenderIcEEocEET_S5_T0_jRKNS0_12format_specsERKNS1_14digit_groupingIT1_EE, symObjAddr: 0xE97C, symBinAddr: 0x100014D94, symSize: 0x50C }
  - { offset: 0x66376, size: 0x8, addend: 0x0, symName: __ZN3fmt3v116detail12count_digitsILi4EoEEiT0_, symObjAddr: 0xEE88, symBinAddr: 0x1000152A0, symSize: 0x40 }
  - { offset: 0x663D8, size: 0x8, addend: 0x0, symName: __ZN3fmt3v116detail13format_base2eIcNS0_14basic_appenderIcEEoLi0EEET0_iS5_T1_ib, symObjAddr: 0xEEC8, symBinAddr: 0x1000152E0, symSize: 0x130 }
  - { offset: 0x6648A, size: 0x8, addend: 0x0, symName: __ZN3fmt3v116detail12count_digitsILi3EoEEiT0_, symObjAddr: 0xEFF8, symBinAddr: 0x100015410, symSize: 0x40 }
  - { offset: 0x664EC, size: 0x8, addend: 0x0, symName: __ZN3fmt3v116detail12count_digitsILi1EoEEiT0_, symObjAddr: 0xF038, symBinAddr: 0x100015450, symSize: 0x40 }
  - { offset: 0x6654E, size: 0x8, addend: 0x0, symName: __ZN3fmt3v116detail12write_paddedIcLNS0_5alignE2ENS0_14basic_appenderIcEEZNS1_9write_intIS5_ocEET_S7_T0_jRKNS0_12format_specsERKNS1_14digit_groupingIT1_EEEUlS5_E_EESD_SD_SB_mmOT2_, symObjAddr: 0xF078, symBinAddr: 0x100015490, symSize: 0x1A8 }
  - { offset: 0x6663B, size: 0x8, addend: 0x0, symName: __ZN3fmt3v116detail13format_base2eIcoEEPT_iS4_T0_ib, symObjAddr: 0xF2A0, symBinAddr: 0x1000156B8, symSize: 0x6C }
  - { offset: 0x666B8, size: 0x8, addend: 0x0, symName: __ZN3fmt3v116detail16do_format_base2eIcoEEPT_iS4_T0_ib, symObjAddr: 0xF30C, symBinAddr: 0x100015724, symSize: 0x17C }
  - { offset: 0x6675A, size: 0x8, addend: 0x0, symName: __ZN3fmt3v116detail18make_write_int_argIoEENS1_13write_int_argINSt3__111conditionalIXaalecl8num_bitsIT_EELi32EntLi0EEjNS5_IXlecl8num_bitsIS6_EELi64EEyoE4typeEE4typeEEES6_NS0_4signE, symObjAddr: 0xF66C, symBinAddr: 0x100015A84, symSize: 0x104 }
  - { offset: 0x667DC, size: 0x8, addend: 0x0, symName: __ZN3fmt3v116detail12write_paddedIcLNS0_5alignE2ENS0_14basic_appenderIcEEZNS1_9write_intIcS5_jEET0_S7_NS1_13write_int_argIT1_EERKNS0_12format_specsEEUlS5_E_EES9_S9_SD_mOT2_, symObjAddr: 0xF918, symBinAddr: 0x100015D30, symSize: 0x50 }
  - { offset: 0x6685C, size: 0x8, addend: 0x0, symName: __ZN3fmt3v116detail12write_paddedIcLNS0_5alignE2ENS0_14basic_appenderIcEERZNS1_9write_intIcS5_jEET0_S7_NS1_13write_int_argIT1_EERKNS0_12format_specsEEUlS5_E_EES9_S9_SD_mmOT2_, symObjAddr: 0xFA84, symBinAddr: 0x100015E9C, symSize: 0x1A8 }
  - { offset: 0x66949, size: 0x8, addend: 0x0, symName: __ZN3fmt3v116detail6fill_nINS0_14basic_appenderIcEEjcEET_S5_T0_RKT1_, symObjAddr: 0xFD08, symBinAddr: 0x100016120, symSize: 0x90 }
  - { offset: 0x669CE, size: 0x8, addend: 0x0, symName: __ZN3fmt3v116detail12write_paddedIcLNS0_5alignE1ENS0_14basic_appenderIcEEZNS1_11write_bytesIcLS3_1ES5_EET1_S7_NS0_17basic_string_viewIcEERKNS0_12format_specsEEUlS5_E_EES7_S7_SC_mOT2_, symObjAddr: 0xFD98, symBinAddr: 0x1000161B0, symSize: 0x50 }
  - { offset: 0x66A4E, size: 0x8, addend: 0x0, symName: __ZN3fmt3v116detail12write_paddedIcLNS0_5alignE1ENS0_14basic_appenderIcEERZNS1_11write_bytesIcLS3_1ES5_EET1_S7_NS0_17basic_string_viewIcEERKNS0_12format_specsEEUlS5_E_EES7_S7_SC_mmOT2_, symObjAddr: 0xFDE8, symBinAddr: 0x100016200, symSize: 0x1A8 }
  - { offset: 0x66B3B, size: 0x8, addend: 0x0, symName: __ZN3fmt3v116detail5writeIcNS0_14basic_appenderIcEEEET0_S5_T_, symObjAddr: 0x100A0, symBinAddr: 0x1000164B8, symSize: 0x8C }
  - { offset: 0x66BC9, size: 0x8, addend: 0x0, symName: __ZN3fmt3v116detail8bit_castIjfLi0EEET_RKT0_, symObjAddr: 0x10264, symBinAddr: 0x10001667C, symSize: 0x24 }
  - { offset: 0x66C1C, size: 0x8, addend: 0x0, symName: __ZN3fmt3v116detail15write_nonfiniteIcNS0_14basic_appenderIcEEEET0_S5_bNS0_12format_specsENS0_4signE, symObjAddr: 0x10288, symBinAddr: 0x1000166A0, symSize: 0x174 }
  - { offset: 0x66D01, size: 0x8, addend: 0x0, symName: __ZN3fmt3v116detail11write_floatIcNS0_14basic_appenderIcEENS1_9dragonbox10decimal_fpIfEEEET0_S8_RKT1_RKNS0_12format_specsENS0_4signEiNS1_10locale_refE, symObjAddr: 0x10C1C, symBinAddr: 0x100017034, symSize: 0x64 }
  - { offset: 0x66D95, size: 0x8, addend: 0x0, symName: __ZN3fmt3v116detail9exp_upperIfEEiv, symObjAddr: 0x10C80, symBinAddr: 0x100017098, symSize: 0x1C }
  - { offset: 0x66DBE, size: 0x8, addend: 0x0, symName: __ZN3fmt3v116detail20num_significand_bitsIfEEiv, symObjAddr: 0x10CBC, symBinAddr: 0x1000170D4, symSize: 0x8 }
  - { offset: 0x66DE6, size: 0x8, addend: 0x0, symName: __ZN3fmt3v116detail12write_paddedIcLNS0_5alignE1ENS0_14basic_appenderIcEEZNS1_15write_nonfiniteIcS5_EET0_S7_bNS0_12format_specsENS0_4signEEUlS5_E_EET1_SB_RKS8_mOT2_, symObjAddr: 0x10CF8, symBinAddr: 0x100017110, symSize: 0x50 }
  - { offset: 0x66E66, size: 0x8, addend: 0x0, symName: __ZN3fmt3v116detail12write_paddedIcLNS0_5alignE1ENS0_14basic_appenderIcEERZNS1_15write_nonfiniteIcS5_EET0_S7_bNS0_12format_specsENS0_4signEEUlS5_E_EET1_SC_RKS8_mmOT2_, symObjAddr: 0x10D74, symBinAddr: 0x10001718C, symSize: 0x1A8 }
  - { offset: 0x66F54, size: 0x8, addend: 0x0, symName: __ZN3fmt3v116detail7getsignIcEET_NS0_4signE, symObjAddr: 0x10FB0, symBinAddr: 0x1000173C8, symSize: 0x28 }
  - { offset: 0x66F8C, size: 0x8, addend: 0x0, symName: __ZN3fmt3v116detail13exponent_biasIfEEiv, symObjAddr: 0x10FD8, symBinAddr: 0x1000173F0, symSize: 0x8 }
  - { offset: 0x66FB5, size: 0x8, addend: 0x0, symName: __ZN3fmt3v116detail4rotrEjj, symObjAddr: 0x11600, symBinAddr: 0x100017A18, symSize: 0x44 }
  - { offset: 0x66FEF, size: 0x8, addend: 0x0, symName: __ZN3fmt3v116detail9max_valueIjEET_v, symObjAddr: 0x11644, symBinAddr: 0x100017A5C, symSize: 0x14 }
  - { offset: 0x67017, size: 0x8, addend: 0x0, symName: __ZN3fmt3v116detail14do_write_floatIcNS0_14basic_appenderIcEENS1_9dragonbox10decimal_fpIfEENS1_14digit_groupingIcEEEET0_SA_RKT1_RKNS0_12format_specsENS0_4signEiNS1_10locale_refE, symObjAddr: 0x11674, symBinAddr: 0x100017A8C, symSize: 0x73C }
  - { offset: 0x67472, size: 0x8, addend: 0x0, symName: __ZN3fmt3v116detail20get_significand_sizeIfEEiRKNS1_9dragonbox10decimal_fpIT_EE, symObjAddr: 0x11DB0, symBinAddr: 0x1000181C8, symSize: 0x28 }
  - { offset: 0x674A9, size: 0x8, addend: 0x0, symName: __ZN3fmt3v116detail13decimal_pointIcEET_NS1_10locale_refE, symObjAddr: 0x11DD8, symBinAddr: 0x1000181F0, symSize: 0x2C }
  - { offset: 0x674E0, size: 0x8, addend: 0x0, symName: __ZN3fmt3v116detail12write_paddedIcLNS0_5alignE2ENS0_14basic_appenderIcEERZNS1_14do_write_floatIcS5_NS1_9dragonbox10decimal_fpIfEENS1_14digit_groupingIcEEEET0_SC_RKT1_RKNS0_12format_specsENS0_4signEiNS1_10locale_refEEUlS5_E_EESD_SD_SI_mOT2_, symObjAddr: 0x11F08, symBinAddr: 0x100018320, symSize: 0x50 }
  - { offset: 0x67560, size: 0x8, addend: 0x0, symName: __ZN3fmt3v116detail12write_paddedIcLNS0_5alignE2ENS0_14basic_appenderIcEEZNS1_14do_write_floatIcS5_NS1_9dragonbox10decimal_fpIfEENS1_14digit_groupingIcEEEET0_SC_RKT1_RKNS0_12format_specsENS0_4signEiNS1_10locale_refEEUlS5_E0_EESD_SD_SI_mOT2_, symObjAddr: 0x120C4, symBinAddr: 0x1000184DC, symSize: 0x50 }
  - { offset: 0x675E0, size: 0x8, addend: 0x0, symName: __ZN3fmt3v116detail12write_paddedIcLNS0_5alignE2ENS0_14basic_appenderIcEEZNS1_14do_write_floatIcS5_NS1_9dragonbox10decimal_fpIfEENS1_14digit_groupingIcEEEET0_SC_RKT1_RKNS0_12format_specsENS0_4signEiNS1_10locale_refEEUlS5_E1_EESD_SD_SI_mOT2_, symObjAddr: 0x12158, symBinAddr: 0x100018570, symSize: 0x50 }
  - { offset: 0x67660, size: 0x8, addend: 0x0, symName: __ZN3fmt3v116detail12write_paddedIcLNS0_5alignE2ENS0_14basic_appenderIcEEZNS1_14do_write_floatIcS5_NS1_9dragonbox10decimal_fpIfEENS1_14digit_groupingIcEEEET0_SC_RKT1_RKNS0_12format_specsENS0_4signEiNS1_10locale_refEEUlS5_E2_EESD_SD_SI_mOT2_, symObjAddr: 0x121A8, symBinAddr: 0x1000185C0, symSize: 0x50 }
  - { offset: 0x676E0, size: 0x8, addend: 0x0, symName: __ZN3fmt3v116detail18decimal_point_implIcEET_NS1_10locale_refE, symObjAddr: 0x121F8, symBinAddr: 0x100018610, symSize: 0x7C }
  - { offset: 0x67716, size: 0x8, addend: 0x0, symName: __ZN3fmt3v116detail12write_paddedIcLNS0_5alignE2ENS0_14basic_appenderIcEERZNS1_14do_write_floatIcS5_NS1_9dragonbox10decimal_fpIfEENS1_14digit_groupingIcEEEET0_SC_RKT1_RKNS0_12format_specsENS0_4signEiNS1_10locale_refEEUlS5_E_EESD_SD_SI_mmOT2_, symObjAddr: 0x122A0, symBinAddr: 0x1000186B8, symSize: 0x1A8 }
  - { offset: 0x67803, size: 0x8, addend: 0x0, symName: __ZN3fmt3v116detail17write_significandINS0_14basic_appenderIcEEjcLi0EEET_S5_T0_iiT1_, symObjAddr: 0x12448, symBinAddr: 0x100018860, symSize: 0xA8 }
  - { offset: 0x678AC, size: 0x8, addend: 0x0, symName: __ZN3fmt3v116detail6fill_nINS0_14basic_appenderIcEEicEET_S5_T0_RKT1_, symObjAddr: 0x124F0, symBinAddr: 0x100018908, symSize: 0x90 }
  - { offset: 0x67931, size: 0x8, addend: 0x0, symName: __ZN3fmt3v116detail14write_exponentIcNS0_14basic_appenderIcEEEET0_iS5_, symObjAddr: 0x12580, symBinAddr: 0x100018998, symSize: 0x21C }
  - { offset: 0x679BC, size: 0x8, addend: 0x0, symName: __ZN3fmt3v116detail17write_significandIcjLi0EEEPT_S4_T0_iiS3_, symObjAddr: 0x1279C, symBinAddr: 0x100018BB4, symSize: 0x1E4 }
  - { offset: 0x67B07, size: 0x8, addend: 0x0, symName: __ZN3fmt3v116detail13thousands_sepIcEENS1_20thousands_sep_resultIT_EENS1_10locale_refE, symObjAddr: 0x12A78, symBinAddr: 0x100018E90, symSize: 0x80 }
  - { offset: 0x67B87, size: 0x8, addend: 0x0, symName: __ZN3fmt3v116detail18thousands_sep_implIcEENS1_20thousands_sep_resultIT_EENS1_10locale_refE, symObjAddr: 0x12B24, symBinAddr: 0x100018F3C, symSize: 0x108 }
  - { offset: 0x67BEA, size: 0x8, addend: 0x0, symName: __ZN3fmt3v116detail12write_paddedIcLNS0_5alignE2ENS0_14basic_appenderIcEERZNS1_14do_write_floatIcS5_NS1_9dragonbox10decimal_fpIfEENS1_14digit_groupingIcEEEET0_SC_RKT1_RKNS0_12format_specsENS0_4signEiNS1_10locale_refEEUlS5_E0_EESD_SD_SI_mmOT2_, symObjAddr: 0x12C58, symBinAddr: 0x100019070, symSize: 0x1A8 }
  - { offset: 0x67CD7, size: 0x8, addend: 0x0, symName: __ZN3fmt3v116detail17write_significandIcNS0_14basic_appenderIcEEjNS1_14digit_groupingIcEEEET0_S7_T1_iiRKT2_, symObjAddr: 0x12F58, symBinAddr: 0x100019370, symSize: 0x1FC }
  - { offset: 0x67D7A, size: 0x8, addend: 0x0, symName: __ZN3fmt3v116detail17write_significandIcNS0_14basic_appenderIcEEjEET0_S5_T1_i, symObjAddr: 0x13180, symBinAddr: 0x100019598, symSize: 0x44 }
  - { offset: 0x67DE1, size: 0x8, addend: 0x0, symName: __ZN3fmt3v116detail12write_paddedIcLNS0_5alignE2ENS0_14basic_appenderIcEERZNS1_14do_write_floatIcS5_NS1_9dragonbox10decimal_fpIfEENS1_14digit_groupingIcEEEET0_SC_RKT1_RKNS0_12format_specsENS0_4signEiNS1_10locale_refEEUlS5_E1_EESD_SD_SI_mmOT2_, symObjAddr: 0x131C4, symBinAddr: 0x1000195DC, symSize: 0x1A8 }
  - { offset: 0x67ECE, size: 0x8, addend: 0x0, symName: __ZN3fmt3v116detail17write_significandINS0_14basic_appenderIcEEcjNS1_14digit_groupingIcEEEET_S7_T1_iiT0_RKT2_, symObjAddr: 0x13474, symBinAddr: 0x10001988C, symSize: 0x1E8 }
  - { offset: 0x67F81, size: 0x8, addend: 0x0, symName: __ZN3fmt3v116detail12write_paddedIcLNS0_5alignE2ENS0_14basic_appenderIcEERZNS1_14do_write_floatIcS5_NS1_9dragonbox10decimal_fpIfEENS1_14digit_groupingIcEEEET0_SC_RKT1_RKNS0_12format_specsENS0_4signEiNS1_10locale_refEEUlS5_E2_EESD_SD_SI_mmOT2_, symObjAddr: 0x1365C, symBinAddr: 0x100019A74, symSize: 0x1A8 }
  - { offset: 0x6809E, size: 0x8, addend: 0x0, symName: __ZN3fmt3v116detail8bit_castIydLi0EEET_RKT0_, symObjAddr: 0x13ACC, symBinAddr: 0x100019EE4, symSize: 0x24 }
  - { offset: 0x680F1, size: 0x8, addend: 0x0, symName: __ZN3fmt3v116detail11write_floatIcNS0_14basic_appenderIcEENS1_9dragonbox10decimal_fpIdEEEET0_S8_RKT1_RKNS0_12format_specsENS0_4signEiNS1_10locale_refE, symObjAddr: 0x14680, symBinAddr: 0x10001AA98, symSize: 0x64 }
  - { offset: 0x68185, size: 0x8, addend: 0x0, symName: __ZN3fmt3v116detail9exp_upperIdEEiv, symObjAddr: 0x146E4, symBinAddr: 0x10001AAFC, symSize: 0x1C }
  - { offset: 0x681AE, size: 0x8, addend: 0x0, symName: __ZN3fmt3v116detail20num_significand_bitsIdEEiv, symObjAddr: 0x14700, symBinAddr: 0x10001AB18, symSize: 0x8 }
  - { offset: 0x681D7, size: 0x8, addend: 0x0, symName: __ZN3fmt3v116detail13exponent_biasIdEEiv, symObjAddr: 0x14708, symBinAddr: 0x10001AB20, symSize: 0x8 }
  - { offset: 0x681FF, size: 0x8, addend: 0x0, symName: __ZN3fmt3v116detail7umul128Eyy, symObjAddr: 0x14E14, symBinAddr: 0x10001B22C, symSize: 0x7C }
  - { offset: 0x6824C, size: 0x8, addend: 0x0, symName: __ZN3fmt3v116detail4rotrEyj, symObjAddr: 0x150B0, symBinAddr: 0x10001B4C8, symSize: 0x44 }
  - { offset: 0x68286, size: 0x8, addend: 0x0, symName: __ZN3fmt3v116detail9max_valueIyEET_v, symObjAddr: 0x150F4, symBinAddr: 0x10001B50C, symSize: 0x14 }
  - { offset: 0x682AE, size: 0x8, addend: 0x0, symName: __ZN3fmt3v116detail14do_write_floatIcNS0_14basic_appenderIcEENS1_9dragonbox10decimal_fpIdEENS1_14digit_groupingIcEEEET0_SA_RKT1_RKNS0_12format_specsENS0_4signEiNS1_10locale_refE, symObjAddr: 0x15124, symBinAddr: 0x10001B53C, symSize: 0x73C }
  - { offset: 0x68709, size: 0x8, addend: 0x0, symName: __ZN3fmt3v116detail20get_significand_sizeIdEEiRKNS1_9dragonbox10decimal_fpIT_EE, symObjAddr: 0x15860, symBinAddr: 0x10001BC78, symSize: 0x28 }
  - { offset: 0x68740, size: 0x8, addend: 0x0, symName: __ZN3fmt3v116detail12write_paddedIcLNS0_5alignE2ENS0_14basic_appenderIcEERZNS1_14do_write_floatIcS5_NS1_9dragonbox10decimal_fpIdEENS1_14digit_groupingIcEEEET0_SC_RKT1_RKNS0_12format_specsENS0_4signEiNS1_10locale_refEEUlS5_E_EESD_SD_SI_mOT2_, symObjAddr: 0x1598C, symBinAddr: 0x10001BDA4, symSize: 0x50 }
  - { offset: 0x687C0, size: 0x8, addend: 0x0, symName: __ZN3fmt3v116detail12write_paddedIcLNS0_5alignE2ENS0_14basic_appenderIcEEZNS1_14do_write_floatIcS5_NS1_9dragonbox10decimal_fpIdEENS1_14digit_groupingIcEEEET0_SC_RKT1_RKNS0_12format_specsENS0_4signEiNS1_10locale_refEEUlS5_E0_EESD_SD_SI_mOT2_, symObjAddr: 0x15B08, symBinAddr: 0x10001BF20, symSize: 0x50 }
  - { offset: 0x68840, size: 0x8, addend: 0x0, symName: __ZN3fmt3v116detail12write_paddedIcLNS0_5alignE2ENS0_14basic_appenderIcEEZNS1_14do_write_floatIcS5_NS1_9dragonbox10decimal_fpIdEENS1_14digit_groupingIcEEEET0_SC_RKT1_RKNS0_12format_specsENS0_4signEiNS1_10locale_refEEUlS5_E1_EESD_SD_SI_mOT2_, symObjAddr: 0x15B58, symBinAddr: 0x10001BF70, symSize: 0x50 }
  - { offset: 0x688C0, size: 0x8, addend: 0x0, symName: __ZN3fmt3v116detail12write_paddedIcLNS0_5alignE2ENS0_14basic_appenderIcEEZNS1_14do_write_floatIcS5_NS1_9dragonbox10decimal_fpIdEENS1_14digit_groupingIcEEEET0_SC_RKT1_RKNS0_12format_specsENS0_4signEiNS1_10locale_refEEUlS5_E2_EESD_SD_SI_mOT2_, symObjAddr: 0x15BA8, symBinAddr: 0x10001BFC0, symSize: 0x50 }
  - { offset: 0x68940, size: 0x8, addend: 0x0, symName: __ZN3fmt3v116detail12write_paddedIcLNS0_5alignE2ENS0_14basic_appenderIcEERZNS1_14do_write_floatIcS5_NS1_9dragonbox10decimal_fpIdEENS1_14digit_groupingIcEEEET0_SC_RKT1_RKNS0_12format_specsENS0_4signEiNS1_10locale_refEEUlS5_E_EESD_SD_SI_mmOT2_, symObjAddr: 0x15BF8, symBinAddr: 0x10001C010, symSize: 0x1A8 }
  - { offset: 0x68A2D, size: 0x8, addend: 0x0, symName: __ZN3fmt3v116detail17write_significandINS0_14basic_appenderIcEEycLi0EEET_S5_T0_iiT1_, symObjAddr: 0x15DA0, symBinAddr: 0x10001C1B8, symSize: 0xA8 }
  - { offset: 0x68AD6, size: 0x8, addend: 0x0, symName: __ZN3fmt3v116detail17write_significandIcyLi0EEEPT_S4_T0_iiS3_, symObjAddr: 0x15E48, symBinAddr: 0x10001C260, symSize: 0x1E0 }
  - { offset: 0x68C22, size: 0x8, addend: 0x0, symName: __ZN3fmt3v116detail12write_paddedIcLNS0_5alignE2ENS0_14basic_appenderIcEERZNS1_14do_write_floatIcS5_NS1_9dragonbox10decimal_fpIdEENS1_14digit_groupingIcEEEET0_SC_RKT1_RKNS0_12format_specsENS0_4signEiNS1_10locale_refEEUlS5_E0_EESD_SD_SI_mmOT2_, symObjAddr: 0x16028, symBinAddr: 0x10001C440, symSize: 0x1A8 }
  - { offset: 0x68D0F, size: 0x8, addend: 0x0, symName: __ZN3fmt3v116detail17write_significandIcNS0_14basic_appenderIcEEyNS1_14digit_groupingIcEEEET0_S7_T1_iiRKT2_, symObjAddr: 0x16328, symBinAddr: 0x10001C740, symSize: 0x1FC }
  - { offset: 0x68DB2, size: 0x8, addend: 0x0, symName: __ZN3fmt3v116detail17write_significandIcNS0_14basic_appenderIcEEyEET0_S5_T1_i, symObjAddr: 0x16524, symBinAddr: 0x10001C93C, symSize: 0x44 }
  - { offset: 0x68E19, size: 0x8, addend: 0x0, symName: __ZN3fmt3v116detail12write_paddedIcLNS0_5alignE2ENS0_14basic_appenderIcEERZNS1_14do_write_floatIcS5_NS1_9dragonbox10decimal_fpIdEENS1_14digit_groupingIcEEEET0_SC_RKT1_RKNS0_12format_specsENS0_4signEiNS1_10locale_refEEUlS5_E1_EESD_SD_SI_mmOT2_, symObjAddr: 0x16568, symBinAddr: 0x10001C980, symSize: 0x1A8 }
  - { offset: 0x68F06, size: 0x8, addend: 0x0, symName: __ZN3fmt3v116detail17write_significandINS0_14basic_appenderIcEEcyNS1_14digit_groupingIcEEEET_S7_T1_iiT0_RKT2_, symObjAddr: 0x16818, symBinAddr: 0x10001CC30, symSize: 0x1E8 }
  - { offset: 0x68FB9, size: 0x8, addend: 0x0, symName: __ZN3fmt3v116detail12write_paddedIcLNS0_5alignE2ENS0_14basic_appenderIcEERZNS1_14do_write_floatIcS5_NS1_9dragonbox10decimal_fpIdEENS1_14digit_groupingIcEEEET0_SC_RKT1_RKNS0_12format_specsENS0_4signEiNS1_10locale_refEEUlS5_E2_EESD_SD_SI_mmOT2_, symObjAddr: 0x16A00, symBinAddr: 0x10001CE18, symSize: 0x1A8 }
  - { offset: 0x690D6, size: 0x8, addend: 0x0, symName: __ZN3fmt3v116detail8bit_castIyeLi0EEET_RKT0_, symObjAddr: 0x16E0C, symBinAddr: 0x10001D224, symSize: 0x24 }
  - { offset: 0x69129, size: 0x8, addend: 0x0, symName: __ZN3fmt3v116detail9exp_upperIeEEiv, symObjAddr: 0x16E60, symBinAddr: 0x10001D278, symSize: 0x1C }
  - { offset: 0x69151, size: 0x8, addend: 0x0, symName: __ZN3fmt3v116detail5writeIcNS0_14basic_appenderIcEEEET0_S5_PKT_, symObjAddr: 0x16E7C, symBinAddr: 0x10001D294, symSize: 0x64 }
  - { offset: 0x691A0, size: 0x8, addend: 0x0, symName: __ZN3fmt3v116detail5writeIcNS0_14basic_appenderIcEEEET0_S5_NS0_17basic_string_viewIT_EE, symObjAddr: 0x16EE0, symBinAddr: 0x10001D2F8, symSize: 0x60 }
  - { offset: 0x691EF, size: 0x8, addend: 0x0, symName: __ZN3fmt3v116detail13copy_noinlineIcPKcNS0_14basic_appenderIcEEEET1_T0_S8_S7_, symObjAddr: 0x16FA4, symBinAddr: 0x10001D3BC, symSize: 0x44 }
  - { offset: 0x69256, size: 0x8, addend: 0x0, symName: __ZN3fmt3v116detail5writeIcNS0_14basic_appenderIcEEvLi0EEET0_S5_PKT1_RKNS0_12format_specsENS1_10locale_refE, symObjAddr: 0x170E8, symBinAddr: 0x10001D500, symSize: 0x50 }
  - { offset: 0x692CB, size: 0x8, addend: 0x0, symName: __ZN3fmt3v116detail9write_ptrIcNS0_14basic_appenderIcEEmEET0_S5_T1_PKNS0_12format_specsE, symObjAddr: 0x17138, symBinAddr: 0x10001D550, symSize: 0xCC }
  - { offset: 0x6939B, size: 0x8, addend: 0x0, symName: __ZN3fmt3v116detail8bit_castImPKvLi0EEET_RKT0_, symObjAddr: 0x17204, symBinAddr: 0x10001D61C, symSize: 0x24 }
  - { offset: 0x693EE, size: 0x8, addend: 0x0, symName: __ZN3fmt3v116detail12count_digitsILi4EmEEiT0_, symObjAddr: 0x17228, symBinAddr: 0x10001D640, symSize: 0x28 }
  - { offset: 0x69450, size: 0x8, addend: 0x0, symName: __ZN3fmt3v116detail12write_paddedIcLNS0_5alignE2ENS0_14basic_appenderIcEERZNS1_9write_ptrIcS5_mEET0_S7_T1_PKNS0_12format_specsEEUlS5_E_EES8_S8_RSA_mOT2_, symObjAddr: 0x17250, symBinAddr: 0x10001D668, symSize: 0x50 }
  - { offset: 0x694D0, size: 0x8, addend: 0x0, symName: __ZN3fmt3v116detail12write_paddedIcLNS0_5alignE2ENS0_14basic_appenderIcEERZNS1_9write_ptrIcS5_mEET0_S7_T1_PKNS0_12format_specsEEUlS5_E_EES8_S8_RSA_mmOT2_, symObjAddr: 0x17390, symBinAddr: 0x10001D7A8, symSize: 0x1A8 }
  - { offset: 0x695BD, size: 0x8, addend: 0x0, symName: __ZN3fmt3v116detail13format_base2eIcNS0_14basic_appenderIcEEmLi0EEET0_iS5_T1_ib, symObjAddr: 0x17538, symBinAddr: 0x10001D950, symSize: 0x108 }
  - { offset: 0x6966F, size: 0x8, addend: 0x0, symName: __ZN3fmt3v116detail13format_base2eIcmEEPT_iS4_T0_ib, symObjAddr: 0x17640, symBinAddr: 0x10001DA58, symSize: 0x54 }
  - { offset: 0x696EC, size: 0x8, addend: 0x0, symName: __ZN3fmt3v116detail16do_format_base2eIcmEEPT_iS4_T0_ib, symObjAddr: 0x17694, symBinAddr: 0x10001DAAC, symSize: 0x100 }
  - { offset: 0x6978C, size: 0x8, addend: 0x0, symName: __ZN3fmt3v116detail12parse_arg_idIcRZNS1_23parse_replacement_fieldIcRNS1_14format_handlerIcEEEEPKT_S9_S9_OT0_E10id_adapterEES9_S9_S9_SB_, symObjAddr: 0x17940, symBinAddr: 0x10001DD58, symSize: 0x20C }
  - { offset: 0x69C8D, size: 0x8, addend: 0x0, symName: __ZN3fmt3v116detail21parse_nonnegative_intIcEEiRPKT_S5_i, symObjAddr: 0x18804, symBinAddr: 0x10001EC1C, symSize: 0x1FC }
  - { offset: 0x69D3D, size: 0x8, addend: 0x0, symName: __ZN3fmt3v116detail13is_name_startIcEEbT_, symObjAddr: 0x18A3C, symBinAddr: 0x10001EE54, symSize: 0x84 }
  - { offset: 0x69D74, size: 0x8, addend: 0x0, symName: __ZN3fmt3v116detail7compareIcEEiPKT_S5_m, symObjAddr: 0x18ECC, symBinAddr: 0x10001F2E4, symSize: 0x34 }
  - { offset: 0x69DC9, size: 0x8, addend: 0x0, symName: __ZN3fmt3v116detail7get_argINS0_7contextEiEENS0_16basic_format_argIT_EERS5_T0_, symObjAddr: 0x18F00, symBinAddr: 0x10001F318, symSize: 0x4C }
  - { offset: 0x69EBD, size: 0x8, addend: 0x0, symName: __ZN3fmt3v116detail18parse_format_specsIcEEPKT_S5_S5_RNS1_20dynamic_format_specsIS3_EERNS0_13parse_contextIS3_EENS1_4typeE, symObjAddr: 0x19030, symBinAddr: 0x10001F448, symSize: 0x5C8 }
  - { offset: 0x6A03F, size: 0x8, addend: 0x0, symName: __ZN3fmt3v116detail19handle_dynamic_specINS0_7contextEEEvNS0_11arg_id_kindERiRKNS1_7arg_refINT_9char_typeEEERS7_, symObjAddr: 0x197A8, symBinAddr: 0x10001FBC0, symSize: 0x50 }
  - { offset: 0x6A0A0, size: 0x8, addend: 0x0, symName: __ZN3fmt3v116detail8to_asciiIcLi0EEEcT_, symObjAddr: 0x199A0, symBinAddr: 0x10001FDB8, symSize: 0x40 }
  - { offset: 0x6A0DE, size: 0x8, addend: 0x0, symName: __ZN3fmt3v116detail11parse_alignEc, symObjAddr: 0x199E0, symBinAddr: 0x10001FDF8, symSize: 0x74 }
  - { offset: 0x6A10D, size: 0x8, addend: 0x0, symName: __ZN3fmt3v116detail2inENS1_4typeEi, symObjAddr: 0x19B3C, symBinAddr: 0x10001FF54, symSize: 0x28 }
  - { offset: 0x6A14B, size: 0x8, addend: 0x0, symName: __ZN3fmt3v116detail18is_arithmetic_typeENS1_4typeE, symObjAddr: 0x19B64, symBinAddr: 0x10001FF7C, symSize: 0x44 }
  - { offset: 0x6A179, size: 0x8, addend: 0x0, symName: __ZN3fmt3v116detail11parse_widthIcEEPKT_S5_S5_RNS0_12format_specsERNS1_7arg_refIS3_EERNS0_13parse_contextIS3_EE, symObjAddr: 0x19BC8, symBinAddr: 0x10001FFE0, symSize: 0x60 }
  - { offset: 0x6A1FB, size: 0x8, addend: 0x0, symName: __ZN3fmt3v116detail15parse_precisionIcEEPKT_S5_S5_RNS0_12format_specsERNS1_7arg_refIS3_EERNS0_13parse_contextIS3_EE, symObjAddr: 0x19C28, symBinAddr: 0x100020040, symSize: 0x8C }
  - { offset: 0x6A27E, size: 0x8, addend: 0x0, symName: __ZN3fmt3v116detail17code_point_lengthIcEEiPKT_, symObjAddr: 0x19D60, symBinAddr: 0x100020178, symSize: 0x3C }
  - { offset: 0x6A2C4, size: 0x8, addend: 0x0, symName: __ZN3fmt3v116detail18parse_dynamic_specIcEENS1_25parse_dynamic_spec_resultIT_EEPKS4_S7_RiRNS1_7arg_refIS4_EERNS0_13parse_contextIS4_EE, symObjAddr: 0x19ED0, symBinAddr: 0x1000202E8, symSize: 0x210 }
  - { offset: 0x6A3A0, size: 0x8, addend: 0x0, symName: __ZN3fmt3v116detail12parse_arg_idIcNS1_20dynamic_spec_handlerIcEEEEPKT_S7_S7_OT0_, symObjAddr: 0x1A120, symBinAddr: 0x100020538, symSize: 0x20C }
  - { offset: 0x6A74E, size: 0x8, addend: 0x0, symName: __ZN3fmt3v116detail16get_dynamic_specINS0_7contextEEEiNS0_11arg_id_kindERKNS1_7arg_refINT_9char_typeEEERS6_, symObjAddr: 0x1A4C8, symBinAddr: 0x1000208E0, symSize: 0x3F0 }
  - { offset: 0x6A96D, size: 0x8, addend: 0x0, symName: __ZN3fmt3v116detail18write_int_noinlineIcNS0_14basic_appenderIcEEyEET0_S5_NS1_13write_int_argIT1_EERKNS0_12format_specsE, symObjAddr: 0x1AE2C, symBinAddr: 0x100021244, symSize: 0x41C }
  - { offset: 0x6AAB1, size: 0x8, addend: 0x0, symName: __ZN3fmt3v116detail12write_paddedIcLNS0_5alignE2ENS0_14basic_appenderIcEEZNS1_9write_intIcS5_yEET0_S7_NS1_13write_int_argIT1_EERKNS0_12format_specsEEUlS5_E_EES9_S9_SD_mOT2_, symObjAddr: 0x1B304, symBinAddr: 0x10002171C, symSize: 0x50 }
  - { offset: 0x6AB31, size: 0x8, addend: 0x0, symName: __ZN3fmt3v116detail12write_paddedIcLNS0_5alignE2ENS0_14basic_appenderIcEERZNS1_9write_intIcS5_yEET0_S7_NS1_13write_int_argIT1_EERKNS0_12format_specsEEUlS5_E_EES9_S9_SD_mmOT2_, symObjAddr: 0x1B354, symBinAddr: 0x10002176C, symSize: 0x1A8 }
  - { offset: 0x6AD9B, size: 0x8, addend: 0x0, symName: __ZN3fmt3v116detail18write_int_noinlineIcNS0_14basic_appenderIcEEoEET0_S5_NS1_13write_int_argIT1_EERKNS0_12format_specsE, symObjAddr: 0x1B714, symBinAddr: 0x100021B2C, symSize: 0x480 }
  - { offset: 0x6AEE1, size: 0x8, addend: 0x0, symName: __ZN3fmt3v116detail12write_paddedIcLNS0_5alignE2ENS0_14basic_appenderIcEEZNS1_9write_intIcS5_oEET0_S7_NS1_13write_int_argIT1_EERKNS0_12format_specsEEUlS5_E_EES9_S9_SD_mOT2_, symObjAddr: 0x1BC54, symBinAddr: 0x10002206C, symSize: 0x50 }
  - { offset: 0x6AF61, size: 0x8, addend: 0x0, symName: __ZN3fmt3v116detail12write_paddedIcLNS0_5alignE2ENS0_14basic_appenderIcEERZNS1_9write_intIcS5_oEET0_S7_NS1_13write_int_argIT1_EERKNS0_12format_specsEEUlS5_E_EES9_S9_SD_mmOT2_, symObjAddr: 0x1BCA4, symBinAddr: 0x1000220BC, symSize: 0x1A8 }
  - { offset: 0x6B0AD, size: 0x8, addend: 0x0, symName: __ZN3fmt3v116detail16check_char_specsERKNS0_12format_specsE, symObjAddr: 0x1C1B0, symBinAddr: 0x1000225C8, symSize: 0xC4 }
  - { offset: 0x6B0EA, size: 0x8, addend: 0x0, symName: __ZN3fmt3v116detail18make_write_int_argIhEENS1_13write_int_argINSt3__111conditionalIXaalecl8num_bitsIT_EELi32EntLi0EEjNS5_IXlecl8num_bitsIS6_EELi64EEyoE4typeEE4typeEEES6_NS0_4signE, symObjAddr: 0x1C2A8, symBinAddr: 0x1000226C0, symSize: 0xCC }
  - { offset: 0x6B16D, size: 0x8, addend: 0x0, symName: __ZN3fmt3v116detail11is_negativeIhLi0EEEbT_, symObjAddr: 0x1C430, symBinAddr: 0x100022848, symSize: 0x18 }
  - { offset: 0x6B1A7, size: 0x8, addend: 0x0, symName: __ZN3fmt3v116detail5writeIcNS0_14basic_appenderIcEEfLi0EEET0_S5_T1_NS0_12format_specsENS1_10locale_refE, symObjAddr: 0x1C448, symBinAddr: 0x100022860, symSize: 0xF8 }
  - { offset: 0x6B226, size: 0x8, addend: 0x0, symName: __ZN3fmt3v116detail8isfiniteIfLi0EEEbT_, symObjAddr: 0x1CAF0, symBinAddr: 0x100022F08, symSize: 0x30 }
  - { offset: 0x6B273, size: 0x8, addend: 0x0, symName: __ZN3fmt3v116detail5isnanIfEEbT_, symObjAddr: 0x1CB20, symBinAddr: 0x100022F38, symSize: 0x20 }
  - { offset: 0x6B2AB, size: 0x8, addend: 0x0, symName: __ZN3fmt3v116detail13convert_floatIfEENSt3__111conditionalIXoosr3std7is_sameIT_fEE5valueeqcl8num_bitsIS5_EEclL_ZNS1_8num_bitsIdEEivEEEdS5_E4typeES5_, symObjAddr: 0x1CF34, symBinAddr: 0x10002334C, symSize: 0x18 }
  - { offset: 0x6B2E2, size: 0x8, addend: 0x0, symName: __ZN3fmt3v116detail11write_bytesIcLNS0_5alignE2ENS0_14basic_appenderIcEEEET1_S6_NS0_17basic_string_viewIcEERKNS0_12format_specsE, symObjAddr: 0x1CF4C, symBinAddr: 0x100023364, symSize: 0x64 }
  - { offset: 0x6B378, size: 0x8, addend: 0x0, symName: __ZN3fmt3v116detail12format_floatIdEEiT_iRKNS0_12format_specsEbRNS1_6bufferIcEE, symObjAddr: 0x1CFB0, symBinAddr: 0x1000233C8, symSize: 0xAE0 }
  - { offset: 0x6B6CD, size: 0x8, addend: 0x0, symName: __ZN3fmt3v116detail11write_floatIcNS0_14basic_appenderIcEENS1_14big_decimal_fpEEET0_S6_RKT1_RKNS0_12format_specsENS0_4signEiNS1_10locale_refE, symObjAddr: 0x1DAA8, symBinAddr: 0x100023EC0, symSize: 0x64 }
  - { offset: 0x6B80B, size: 0x8, addend: 0x0, symName: __ZN3fmt3v116detail11countl_zeroEj, symObjAddr: 0x1DB70, symBinAddr: 0x100023F88, symSize: 0x18 }
  - { offset: 0x6B839, size: 0x8, addend: 0x0, symName: __ZN3fmt3v116detail12write_paddedIcLNS0_5alignE2ENS0_14basic_appenderIcEEZNS1_11write_bytesIcLS3_2ES5_EET1_S7_NS0_17basic_string_viewIcEERKNS0_12format_specsEEUlS5_E_EES7_S7_SC_mOT2_, symObjAddr: 0x1DCC4, symBinAddr: 0x1000240DC, symSize: 0x50 }
  - { offset: 0x6B8B9, size: 0x8, addend: 0x0, symName: __ZN3fmt3v116detail12write_paddedIcLNS0_5alignE2ENS0_14basic_appenderIcEERZNS1_11write_bytesIcLS3_2ES5_EET1_S7_NS0_17basic_string_viewIcEERKNS0_12format_specsEEUlS5_E_EES7_S7_SC_mmOT2_, symObjAddr: 0x1DD14, symBinAddr: 0x10002412C, symSize: 0x1A8 }
  - { offset: 0x6B9A7, size: 0x8, addend: 0x0, symName: __ZN3fmt3v116detail13convert_floatIdEENSt3__111conditionalIXoosr3std7is_sameIT_fEE5valueeqcl8num_bitsIS5_EEclL_ZNS1_8num_bitsIdEEivEEEdS5_E4typeES5_, symObjAddr: 0x1DF30, symBinAddr: 0x100024348, symSize: 0x14 }
  - { offset: 0x6B9DE, size: 0x8, addend: 0x0, symName: __ZN3fmt3v116detail6fill_nIciEEPT_S4_T0_c, symObjAddr: 0x1DF44, symBinAddr: 0x10002435C, symSize: 0x60 }
  - { offset: 0x6BA3D, size: 0x8, addend: 0x0, symName: __ZN3fmt3v116detail11countl_zeroEy, symObjAddr: 0x1DFA4, symBinAddr: 0x1000243BC, symSize: 0x1C }
  - { offset: 0x6BA6C, size: 0x8, addend: 0x0, symName: __ZN3fmt3v116detail8num_bitsIyEEiv, symObjAddr: 0x1DFC0, symBinAddr: 0x1000243D8, symSize: 0x8 }
  - { offset: 0x6BA95, size: 0x8, addend: 0x0, symName: __ZN3fmt3v116detail16adjust_precisionERii, symObjAddr: 0x1DFFC, symBinAddr: 0x100024414, symSize: 0xC4 }
  - { offset: 0x6BACF, size: 0x8, addend: 0x0, symName: __ZN3fmt3v116detail35fractional_part_rounding_thresholdsEi, symObjAddr: 0x1E294, symBinAddr: 0x1000246AC, symSize: 0x20 }
  - { offset: 0x6BBB5, size: 0x8, addend: 0x0, symName: __ZN3fmt3v116detail13format_dragonENS1_8basic_fpIoEEjiRNS1_6bufferIcEERi, symObjAddr: 0x1E5A4, symBinAddr: 0x1000249BC, symSize: 0xA54 }
  - { offset: 0x6BDE9, size: 0x8, addend: 0x0, symName: __ZN3fmt3v116detail11add_compareERKNS1_6bigintES4_S4_, symObjAddr: 0x1F58C, symBinAddr: 0x1000259A4, symSize: 0x1BC }
  - { offset: 0x6BEBC, size: 0x8, addend: 0x0, symName: __ZN3fmt3v116detail7compareERKNS1_6bigintES4_, symObjAddr: 0x1F8B8, symBinAddr: 0x100025CD0, symSize: 0x180 }
  - { offset: 0x6BF72, size: 0x8, addend: 0x0, symName: __ZN3fmt3v116detail8num_bitsIjEEiv, symObjAddr: 0x200C8, symBinAddr: 0x1000264E0, symSize: 0x8 }
  - { offset: 0x6BF9B, size: 0x8, addend: 0x0, symName: __ZN3fmt3v116detail4copyIjPjS3_Li0EEET1_T0_S5_S4_, symObjAddr: 0x2074C, symBinAddr: 0x100026B64, symSize: 0x58 }
  - { offset: 0x6C009, size: 0x8, addend: 0x0, symName: __ZN3fmt3v116detail4copyIjPKjPjLi0EEET1_T0_S7_S6_, symObjAddr: 0x2087C, symBinAddr: 0x100026C94, symSize: 0x58 }
  - { offset: 0x6C076, size: 0x8, addend: 0x0, symName: __ZN3fmt3v116detail14do_write_floatIcNS0_14basic_appenderIcEENS1_14big_decimal_fpENS1_14digit_groupingIcEEEET0_S8_RKT1_RKNS0_12format_specsENS0_4signEiNS1_10locale_refE, symObjAddr: 0x21138, symBinAddr: 0x100027550, symSize: 0x73C }
  - { offset: 0x6C4D2, size: 0x8, addend: 0x0, symName: __ZN3fmt3v116detail20get_significand_sizeERKNS1_14big_decimal_fpE, symObjAddr: 0x21874, symBinAddr: 0x100027C8C, symSize: 0x18 }
  - { offset: 0x6C500, size: 0x8, addend: 0x0, symName: __ZN3fmt3v116detail12write_paddedIcLNS0_5alignE2ENS0_14basic_appenderIcEERZNS1_14do_write_floatIcS5_NS1_14big_decimal_fpENS1_14digit_groupingIcEEEET0_SA_RKT1_RKNS0_12format_specsENS0_4signEiNS1_10locale_refEEUlS5_E_EESB_SB_SG_mOT2_, symObjAddr: 0x21990, symBinAddr: 0x100027DA8, symSize: 0x50 }
  - { offset: 0x6C580, size: 0x8, addend: 0x0, symName: __ZN3fmt3v116detail12write_paddedIcLNS0_5alignE2ENS0_14basic_appenderIcEEZNS1_14do_write_floatIcS5_NS1_14big_decimal_fpENS1_14digit_groupingIcEEEET0_SA_RKT1_RKNS0_12format_specsENS0_4signEiNS1_10locale_refEEUlS5_E0_EESB_SB_SG_mOT2_, symObjAddr: 0x21B0C, symBinAddr: 0x100027F24, symSize: 0x50 }
  - { offset: 0x6C600, size: 0x8, addend: 0x0, symName: __ZN3fmt3v116detail12write_paddedIcLNS0_5alignE2ENS0_14basic_appenderIcEEZNS1_14do_write_floatIcS5_NS1_14big_decimal_fpENS1_14digit_groupingIcEEEET0_SA_RKT1_RKNS0_12format_specsENS0_4signEiNS1_10locale_refEEUlS5_E1_EESB_SB_SG_mOT2_, symObjAddr: 0x21B5C, symBinAddr: 0x100027F74, symSize: 0x50 }
  - { offset: 0x6C680, size: 0x8, addend: 0x0, symName: __ZN3fmt3v116detail12write_paddedIcLNS0_5alignE2ENS0_14basic_appenderIcEEZNS1_14do_write_floatIcS5_NS1_14big_decimal_fpENS1_14digit_groupingIcEEEET0_SA_RKT1_RKNS0_12format_specsENS0_4signEiNS1_10locale_refEEUlS5_E2_EESB_SB_SG_mOT2_, symObjAddr: 0x21BAC, symBinAddr: 0x100027FC4, symSize: 0x50 }
  - { offset: 0x6C700, size: 0x8, addend: 0x0, symName: __ZN3fmt3v116detail12write_paddedIcLNS0_5alignE2ENS0_14basic_appenderIcEERZNS1_14do_write_floatIcS5_NS1_14big_decimal_fpENS1_14digit_groupingIcEEEET0_SA_RKT1_RKNS0_12format_specsENS0_4signEiNS1_10locale_refEEUlS5_E_EESB_SB_SG_mmOT2_, symObjAddr: 0x21BFC, symBinAddr: 0x100028014, symSize: 0x1A8 }
  - { offset: 0x6C7ED, size: 0x8, addend: 0x0, symName: __ZN3fmt3v116detail17write_significandINS0_14basic_appenderIcEEcEET_S5_PKciiT0_, symObjAddr: 0x21DA4, symBinAddr: 0x1000281BC, symSize: 0xD0 }
  - { offset: 0x6C869, size: 0x8, addend: 0x0, symName: __ZN3fmt3v116detail12write_paddedIcLNS0_5alignE2ENS0_14basic_appenderIcEERZNS1_14do_write_floatIcS5_NS1_14big_decimal_fpENS1_14digit_groupingIcEEEET0_SA_RKT1_RKNS0_12format_specsENS0_4signEiNS1_10locale_refEEUlS5_E0_EESB_SB_SG_mmOT2_, symObjAddr: 0x21E74, symBinAddr: 0x10002828C, symSize: 0x1A8 }
  - { offset: 0x6C956, size: 0x8, addend: 0x0, symName: __ZN3fmt3v116detail17write_significandIcNS0_14basic_appenderIcEEPKcNS1_14digit_groupingIcEEEET0_S9_T1_iiRKT2_, symObjAddr: 0x22174, symBinAddr: 0x10002858C, symSize: 0x1FC }
  - { offset: 0x6C9F9, size: 0x8, addend: 0x0, symName: __ZN3fmt3v116detail17write_significandIcNS0_14basic_appenderIcEEEET0_S5_PKci, symObjAddr: 0x22370, symBinAddr: 0x100028788, symSize: 0x4C }
  - { offset: 0x6CA57, size: 0x8, addend: 0x0, symName: __ZN3fmt3v116detail12write_paddedIcLNS0_5alignE2ENS0_14basic_appenderIcEERZNS1_14do_write_floatIcS5_NS1_14big_decimal_fpENS1_14digit_groupingIcEEEET0_SA_RKT1_RKNS0_12format_specsENS0_4signEiNS1_10locale_refEEUlS5_E1_EESB_SB_SG_mmOT2_, symObjAddr: 0x223BC, symBinAddr: 0x1000287D4, symSize: 0x1A8 }
  - { offset: 0x6CB44, size: 0x8, addend: 0x0, symName: __ZN3fmt3v116detail17write_significandINS0_14basic_appenderIcEEcPKcNS1_14digit_groupingIcEEEET_S9_T1_iiT0_RKT2_, symObjAddr: 0x2266C, symBinAddr: 0x100028A84, symSize: 0x1E8 }
  - { offset: 0x6CBF7, size: 0x8, addend: 0x0, symName: __ZN3fmt3v116detail12write_paddedIcLNS0_5alignE2ENS0_14basic_appenderIcEERZNS1_14do_write_floatIcS5_NS1_14big_decimal_fpENS1_14digit_groupingIcEEEET0_SA_RKT1_RKNS0_12format_specsENS0_4signEiNS1_10locale_refEEUlS5_E2_EESB_SB_SG_mmOT2_, symObjAddr: 0x22854, symBinAddr: 0x100028C6C, symSize: 0x1A8 }
  - { offset: 0x6CCE4, size: 0x8, addend: 0x0, symName: __ZN3fmt3v116detail5writeIcNS0_14basic_appenderIcEEdLi0EEET0_S5_T1_NS0_12format_specsENS1_10locale_refE, symObjAddr: 0x22B44, symBinAddr: 0x100028F5C, symSize: 0xF8 }
  - { offset: 0x6CD63, size: 0x8, addend: 0x0, symName: __ZN3fmt3v116detail8isfiniteIdLi0EEEbT_, symObjAddr: 0x231E0, symBinAddr: 0x1000295F8, symSize: 0x30 }
  - { offset: 0x6CDB0, size: 0x8, addend: 0x0, symName: __ZN3fmt3v116detail5isnanIdEEbT_, symObjAddr: 0x23210, symBinAddr: 0x100029628, symSize: 0x20 }
  - { offset: 0x6CDE7, size: 0x8, addend: 0x0, symName: __ZN3fmt3v116detail5writeIcNS0_14basic_appenderIcEEeLi0EEET0_S5_T1_NS0_12format_specsENS1_10locale_refE, symObjAddr: 0x23278, symBinAddr: 0x100029690, symSize: 0xF8 }
  - { offset: 0x6CE66, size: 0x8, addend: 0x0, symName: __ZN3fmt3v116detail8isfiniteIeLi0EEEbT_, symObjAddr: 0x23924, symBinAddr: 0x100029D3C, symSize: 0x30 }
  - { offset: 0x6CEB3, size: 0x8, addend: 0x0, symName: __ZN3fmt3v116detail5isnanIeEEbT_, symObjAddr: 0x23954, symBinAddr: 0x100029D6C, symSize: 0x20 }
  - { offset: 0x6CEEB, size: 0x8, addend: 0x0, symName: __ZN3fmt3v116detail13convert_floatIeEENSt3__111conditionalIXoosr3std7is_sameIT_fEE5valueeqcl8num_bitsIS5_EEclL_ZNS1_8num_bitsIdEEivEEEdS5_E4typeES5_, symObjAddr: 0x23974, symBinAddr: 0x100029D8C, symSize: 0x14 }
  - { offset: 0x6CF22, size: 0x8, addend: 0x0, symName: __ZN3fmt3v116detail5writeIcNS0_14basic_appenderIcEEEET0_S5_PKT_RKNS0_12format_specsENS1_10locale_refE, symObjAddr: 0x239B8, symBinAddr: 0x100029DD0, symSize: 0xC4 }
  - { offset: 0x6CF8D, size: 0x8, addend: 0x0, symName: __ZN3fmt3v116detail8bit_castImPKcLi0EEET_RKT0_, symObjAddr: 0x23A7C, symBinAddr: 0x100029E94, symSize: 0x24 }
  - { offset: 0x6CFE0, size: 0x8, addend: 0x0, symName: __ZN3fmt3v116detail5writeIcNS0_14basic_appenderIcEEEET0_S5_NS0_17basic_string_viewIT_EERKNS0_12format_specsENS1_10locale_refE, symObjAddr: 0x23AA0, symBinAddr: 0x100029EB8, symSize: 0x58 }
  - { offset: 0x6D04A, size: 0x8, addend: 0x0, symName: __ZN3fmt3v116detail5writeIcNS0_14basic_appenderIcEEEET0_S5_NS0_17basic_string_viewIT_EERKNS0_12format_specsE, symObjAddr: 0x23AF8, symBinAddr: 0x100029F10, symSize: 0x1F8 }
  - { offset: 0x6D15F, size: 0x8, addend: 0x0, symName: __ZN3fmt3v116detail16code_point_indexENS0_17basic_string_viewIcEEm, symObjAddr: 0x23CF0, symBinAddr: 0x10002A108, symSize: 0x8C }
  - { offset: 0x6D207, size: 0x8, addend: 0x0, symName: __ZN3fmt3v116detail20write_escaped_stringIcNS0_14basic_appenderIcEEEET0_S5_NS0_17basic_string_viewIT_EE, symObjAddr: 0x23DA8, symBinAddr: 0x10002A1C0, symSize: 0x128 }
  - { offset: 0x6D289, size: 0x8, addend: 0x0, symName: __ZN3fmt3v116detail12write_paddedIcLNS0_5alignE1ENS0_14basic_appenderIcEEZNS1_5writeIcS5_EET0_S7_NS0_17basic_string_viewIT_EERKNS0_12format_specsEEUlS5_E_EET1_SF_SD_mmOT2_, symObjAddr: 0x23F4C, symBinAddr: 0x10002A364, symSize: 0x1A8 }
  - { offset: 0x6D377, size: 0x8, addend: 0x0, symName: __ZN3fmt3v116detail18for_each_codepointIZNS1_16code_point_indexENS0_17basic_string_viewIcEEmEUljS4_E_EEvS4_T_, symObjAddr: 0x240F4, symBinAddr: 0x10002A50C, symSize: 0x1AC }
  - { offset: 0x6D47D, size: 0x8, addend: 0x0, symName: __ZN3fmt3v116detail4copyIcPKcPcLi0EEET1_T0_S7_S6_, symObjAddr: 0x243C4, symBinAddr: 0x10002A7DC, symSize: 0x58 }
  - { offset: 0x6D4EA, size: 0x8, addend: 0x0, symName: __ZN3fmt3v116detail11find_escapeEPKcS3_, symObjAddr: 0x247EC, symBinAddr: 0x10002AC04, symSize: 0x74 }
  - { offset: 0x6D56C, size: 0x8, addend: 0x0, symName: __ZN3fmt3v116detail18for_each_codepointIZNS1_11find_escapeEPKcS4_EUljNS0_17basic_string_viewIcEEE_EEvS6_T_, symObjAddr: 0x24860, symBinAddr: 0x10002AC78, symSize: 0x1A0 }
  - { offset: 0x6D670, size: 0x8, addend: 0x0, symName: __ZN3fmt3v116detail18for_each_codepointIZNS1_13compute_widthENS0_17basic_string_viewIcEEE17count_code_pointsEEvS4_T_, symObjAddr: 0x24BD4, symBinAddr: 0x10002AFEC, symSize: 0x1A0 }
  - { offset: 0x6D773, size: 0x8, addend: 0x0, symName: __ZN3fmt3v116detail5writeIcNS0_14basic_appenderIcEEEET0_S5_NS0_9monostateENS0_12format_specsENS1_10locale_refE, symObjAddr: 0x25248, symBinAddr: 0x10002B660, symSize: 0x34 }
  - { offset: 0x6D7D8, size: 0x8, addend: 0x0, symName: __ZN3fmt3v116detail13ignore_unusedIJNS0_17basic_string_viewIcEEEEEvDpRKT_, symObjAddr: 0x25354, symBinAddr: 0x10002B76C, symSize: 0x10 }
  - { offset: 0x6D80C, size: 0x8, addend: 0x0, symName: __ZN3fmt3v116detail22compile_string_to_viewIcLm6EEENS0_17basic_string_viewIT_EERAT0__KS4_, symObjAddr: 0x2539C, symBinAddr: 0x10002B7B4, symSize: 0x58 }
  - { offset: 0x6D84E, size: 0x8, addend: 0x0, symName: __ZN3fmt3v116detail13ignore_unusedIJiEEEvDpRKT_, symObjAddr: 0x25408, symBinAddr: 0x10002B80C, symSize: 0x10 }
  - { offset: 0x6D8CE, size: 0x8, addend: 0x0, symName: __ZN3fmt3v116detail22compile_string_to_viewIcLm12EEENS0_17basic_string_viewIT_EERAT0__KS4_, symObjAddr: 0x31C30, symBinAddr: 0x100037B8C, symSize: 0x58 }
  - { offset: 0x6D966, size: 0x8, addend: 0x0, symName: __ZN3fmt3v1112format_facetINSt3__16localeEE2idE, symObjAddr: 0x64980, symBinAddr: 0x10007D770, symSize: 0x0 }
  - { offset: 0x6ED0C, size: 0x8, addend: 0x0, symName: __ZN3fmt3v1110vformat_toIRNSt3__120back_insert_iteratorINS0_19basic_memory_bufferIcLm250ENS0_6detail9allocatorIcEEEEEELi0EEENS2_9remove_cvINS2_16remove_referenceIT_E4typeEE4typeEOSD_NS0_17basic_string_viewIcEENS0_17basic_format_argsINS0_7contextEEE, symObjAddr: 0x66B8, symBinAddr: 0x10000D0F0, symSize: 0xA0 }
  - { offset: 0x6EFF5, size: 0x8, addend: 0x0, symName: __ZN3fmt3v116max_ofIiEET_S2_S2_, symObjAddr: 0x12114, symBinAddr: 0x10001852C, symSize: 0x44 }
  - { offset: 0x6F03C, size: 0x8, addend: 0x0, symName: __ZN3fmt3v116min_ofIiEET_S2_S2_, symObjAddr: 0x1394C, symBinAddr: 0x100019D64, symSize: 0x44 }
  - { offset: 0x6F083, size: 0x8, addend: 0x0, symName: __ZN3fmt3v1112report_errorEPKc, symObjAddr: 0x16F40, symBinAddr: 0x10001D358, symSize: 0x64 }
  - { offset: 0x6F0AB, size: 0x8, addend: 0x0, symName: __ZN3fmt3v11eqENS0_17basic_string_viewIcEES2_, symObjAddr: 0x18DB8, symBinAddr: 0x10001F1D0, symSize: 0x4C }
  - { offset: 0x6F20D, size: 0x8, addend: 0x0, symName: __ZN3fmt3v117vformatENS0_17basic_string_viewIcEENS0_17basic_format_argsINS0_7contextEEE, symObjAddr: 0x3193C, symBinAddr: 0x1000379D4, symSize: 0x100 }
  - { offset: 0x6F25C, size: 0x8, addend: 0x0, symName: __ZN3fmt3v119to_stringILm500EEENSt3__112basic_stringIcNS2_11char_traitsIcEENS2_9allocatorIcEEEERKNS0_19basic_memory_bufferIcXT_ENS0_6detail9allocatorIcEEEE, symObjAddr: 0x31A3C, symBinAddr: 0x100037AD4, symSize: 0x80 }
  - { offset: 0x70375, size: 0x8, addend: 0x0, symName: __ZN6spdlog7details8registry8instanceEv, symObjAddr: 0x5C8, symBinAddr: 0x100007C88, symSize: 0xA8 }
  - { offset: 0x70397, size: 0x8, addend: 0x0, symName: __ZZN6spdlog7details8registry8instanceEvE10s_instance, symObjAddr: 0x64800, symBinAddr: 0x10007D5F0, symSize: 0x0 }
  - { offset: 0x7076C, size: 0x8, addend: 0x0, symName: __ZN6spdlog3mdc11get_contextEv, symObjAddr: 0x44F4, symBinAddr: 0x10000B500, symSize: 0x90 }
  - { offset: 0x7078C, size: 0x8, addend: 0x0, symName: __ZZN6spdlog3mdc11get_contextEvE7context, symObjAddr: 0x688F5, symBinAddr: 0x10007DA38, symSize: 0x0 }
  - { offset: 0x709FC, size: 0x8, addend: 0x0, symName: __ZN3fmt3v116detail9dragonbox14cache_accessorIfE16get_cached_powerEi, symObjAddr: 0x1104C, symBinAddr: 0x100017464, symSize: 0x6C }
  - { offset: 0x70A1D, size: 0x8, addend: 0x0, symName: __ZZN3fmt3v116detail9dragonbox14cache_accessorIfE16get_cached_powerEiE18pow10_significands, symObjAddr: 0x66E18, symBinAddr: 0x10006A8C0, symSize: 0x0 }
  - { offset: 0x70A61, size: 0x8, addend: 0x0, symName: __ZN3fmt3v116detail9dragonbox14cache_accessorIdE16get_cached_powerEi, symObjAddr: 0x14710, symBinAddr: 0x10001AB28, symSize: 0x29C }
  - { offset: 0x70A82, size: 0x8, addend: 0x0, symName: __ZZN3fmt3v116detail9dragonbox14cache_accessorIdE16get_cached_powerEiE18pow10_significands, symObjAddr: 0x67088, symBinAddr: 0x10006AB30, symSize: 0x0 }
  - { offset: 0x70A99, size: 0x8, addend: 0x0, symName: __ZZN3fmt3v116detail9dragonbox14cache_accessorIdE16get_cached_powerEiE14powers_of_5_64, symObjAddr: 0x67208, symBinAddr: 0x10006ACB0, symSize: 0x0 }
  - { offset: 0x70B99, size: 0x8, addend: 0x0, symName: __ZN6spdlog7details13console_mutex5mutexEv, symObjAddr: 0x2A714, symBinAddr: 0x100030B18, symSize: 0x6C }
  - { offset: 0x70BB9, size: 0x8, addend: 0x0, symName: __ZZN6spdlog7details13console_mutex5mutexEvE7s_mutex, symObjAddr: 0x64A00, symBinAddr: 0x10007D7F0, symSize: 0x0 }
  - { offset: 0x70BCE, size: 0x8, addend: 0x0, symName: __ZZN6spdlog7details2os17is_color_terminalEvENKUlvE_clEv, symObjAddr: 0x2AD18, symBinAddr: 0x10003111C, symSize: 0xC8 }
  - { offset: 0x70BF7, size: 0x8, addend: 0x0, symName: __ZZZN6spdlog7details2os17is_color_terminalEvENKUlvE_clEvE5terms, symObjAddr: 0x64E80, symBinAddr: 0x100078D90, symSize: 0x0 }
  - { offset: 0x70C9E, size: 0x8, addend: 0x0, symName: __ZNK6spdlog6logger12err_handler_ERKNSt3__112basic_stringIcNS1_11char_traitsIcEENS1_9allocatorIcEEEE, symObjAddr: 0x3101C, symBinAddr: 0x1000370B4, symSize: 0x284 }
  - { offset: 0x70CC4, size: 0x8, addend: 0x0, symName: __ZZNK6spdlog6logger12err_handler_ERKNSt3__112basic_stringIcNS1_11char_traitsIcEENS1_9allocatorIcEEEEE5mutex, symObjAddr: 0x64A58, symBinAddr: 0x10007D848, symSize: 0x0 }
  - { offset: 0x70CDA, size: 0x8, addend: 0x0, symName: __ZZNK6spdlog6logger12err_handler_ERKNSt3__112basic_stringIcNS1_11char_traitsIcEENS1_9allocatorIcEEEEE16last_report_time, symObjAddr: 0x64AA0, symBinAddr: 0x10007D890, symSize: 0x0 }
  - { offset: 0x70CF0, size: 0x8, addend: 0x0, symName: __ZZNK6spdlog6logger12err_handler_ERKNSt3__112basic_stringIcNS1_11char_traitsIcEENS1_9allocatorIcEEEEE11err_counter, symObjAddr: 0x64AA8, symBinAddr: 0x10007D898, symSize: 0x0 }
  - { offset: 0x711D0, size: 0x8, addend: 0x0, symName: __ZNKSt3__16chrono15__duration_castINS0_8durationIxNS_5ratioILl1ELl1000000EEEEENS2_IxNS3_ILl1ELl1EEEEES4_Lb1ELb0EEclB8de190102ERKS5_, symObjAddr: 0x615C, symBinAddr: 0x10000CB94, symSize: 0x48 }
  - { offset: 0x7126D, size: 0x8, addend: 0x0, symName: __ZN3fmt3v116detail6bigint8multiplyIoLi0EEEvT_, symObjAddr: 0x208D4, symBinAddr: 0x100026CEC, symSize: 0x324 }
  - { offset: 0x7138D, size: 0x8, addend: 0x0, symName: __ZZN6spdlog7details10fmt_helper4pad2EiRN3fmt3v1119basic_memory_bufferIcLm250ENS3_6detail9allocatorIcEEEEENKUlvE_clEv, symObjAddr: 0x6680, symBinAddr: 0x10000D0B8, symSize: 0x38 }
  - { offset: 0x713EE, size: 0x8, addend: 0x0, symName: __ZNKSt3__16chrono15__duration_castINS0_8durationIxNS_5ratioILl1ELl1000000EEEEENS2_IxNS3_ILl1ELl1000EEEEES6_Lb1ELb0EEclB8de190102ERKS5_, symObjAddr: 0x2553C, symBinAddr: 0x10002B940, symSize: 0x44 }
  - { offset: 0x71436, size: 0x8, addend: 0x0, symName: __ZNKSt3__16chrono15__duration_castINS0_8durationIxNS_5ratioILl1ELl1EEEEENS2_IxNS3_ILl1ELl1000EEEEENS3_ILl1000ELl1EEELb0ELb1EEclB8de190102ERKS5_, symObjAddr: 0x25580, symBinAddr: 0x10002B984, symSize: 0x44 }
  - { offset: 0x71F31, size: 0x8, addend: 0x0, symName: __ZNKSt3__16chrono13__duration_ltINS0_8durationIxNS_5ratioILl1ELl1000000EEEEENS2_IxNS3_ILl1ELl1EEEEEEclB8de190102ERKS5_RKS7_, symObjAddr: 0x3171C, symBinAddr: 0x1000377B4, symSize: 0x64 }
  - { offset: 0x71F8A, size: 0x8, addend: 0x0, symName: __ZNKSt3__16chrono15__duration_castINS0_8durationIxNS_5ratioILl1ELl1EEEEENS2_IxNS3_ILl1ELl1000000EEEEENS3_ILl1000000ELl1EEELb0ELb1EEclB8de190102ERKS5_, symObjAddr: 0x31830, symBinAddr: 0x1000378C8, symSize: 0x48 }
  - { offset: 0x71FC8, size: 0x8, addend: 0x0, symName: __ZN6spdlog6logger8sink_it_ERKNS_7details7log_msgE, symObjAddr: 0x2C660, symBinAddr: 0x100032998, symSize: 0x41C }
  - { offset: 0x722B6, size: 0x8, addend: 0x0, symName: __ZZN6spdlog6logger8sink_it_ERKNS_7details7log_msgEENKUlvE_clEv, symObjAddr: 0x312A0, symBinAddr: 0x100037338, symSize: 0x38 }
  - { offset: 0x73118, size: 0x8, addend: 0x0, symName: __ZNKSt3__16chrono15__duration_castINS0_8durationIxNS_5ratioILl1ELl1000000EEEEENS2_IxNS3_ILl1ELl1000000000EEEEENS3_ILl1000ELl1EEELb0ELb1EEclB8de190102ERKS5_, symObjAddr: 0x45840, symBinAddr: 0x10004B770, symSize: 0x44 }
  - { offset: 0x73160, size: 0x8, addend: 0x0, symName: __ZNKSt3__16chrono15__duration_castINS0_8durationIxNS_5ratioILl1ELl1EEEEENS2_IxNS3_ILl1ELl1000000000EEEEENS3_ILl1000000000ELl1EEELb0ELb1EEclB8de190102ERKS5_, symObjAddr: 0x45884, symBinAddr: 0x10004B7B4, symSize: 0x48 }
  - { offset: 0x757F0, size: 0x8, addend: 0x0, symName: ___cxx_global_var_init, symObjAddr: 0x61960, symBinAddr: 0x10006778C, symSize: 0x2C }
  - { offset: 0x75804, size: 0x8, addend: 0x0, symName: __ZNSt3__110shared_ptrIN6spdlog6loggerEED1B8de190102Ev, symObjAddr: 0x0, symBinAddr: 0x10000770C, symSize: 0x2C }
  - { offset: 0x7582D, size: 0x8, addend: 0x0, symName: ___cxx_global_var_init.1, symObjAddr: 0x6198C, symBinAddr: 0x1000677B8, symSize: 0x2C }
  - { offset: 0x75841, size: 0x8, addend: 0x0, symName: __ZN3MEL3Log4InitEv, symObjAddr: 0x2C, symBinAddr: 0x100007738, symSize: 0x154 }
  - { offset: 0x7585C, size: 0x8, addend: 0x0, symName: __ZNSt3__110shared_ptrIN6spdlog6loggerEEaSB8de190102EOS3_, symObjAddr: 0x384, symBinAddr: 0x100007A5C, symSize: 0x50 }
  - { offset: 0x75890, size: 0x8, addend: 0x0, symName: __ZN6spdlog6logger9set_levelENS_5level10level_enumE, symObjAddr: 0x3EC, symBinAddr: 0x100007AAC, symSize: 0x34 }
  - { offset: 0x758C5, size: 0x8, addend: 0x0, symName: __ZNSt3__112basic_stringIcNS_11char_traitsIcEENS_9allocatorIcEEEC1B8de190102EOS5_, symObjAddr: 0x490, symBinAddr: 0x100007B50, symSize: 0x34 }
  - { offset: 0x758FD, size: 0x8, addend: 0x0, symName: __ZNSt3__113unordered_mapIcNS_10unique_ptrIN6spdlog21custom_flag_formatterENS_14default_deleteIS3_EEEENS_4hashIcEENS_8equal_toIcEENS_9allocatorINS_4pairIKcS6_EEEEEC1B8de190102Ev, symObjAddr: 0x4C4, symBinAddr: 0x100007B84, symSize: 0x2C }
  - { offset: 0x75926, size: 0x8, addend: 0x0, symName: __ZN6spdlog17pattern_formatterC1ENSt3__112basic_stringIcNS1_11char_traitsIcEENS1_9allocatorIcEEEENS_17pattern_time_typeES7_NS1_13unordered_mapIcNS1_10unique_ptrINS_21custom_flag_formatterENS1_14default_deleteISB_EEEENS1_4hashIcEENS1_8equal_toIcEENS5_INS1_4pairIKcSE_EEEEEE, symObjAddr: 0x4F0, symBinAddr: 0x100007BB0, symSize: 0x4C }
  - { offset: 0x75991, size: 0x8, addend: 0x0, symName: __ZNSt3__110unique_ptrIN6spdlog9formatterENS_14default_deleteIS2_EEEC1B8de190102ILb1EvEEPS2_, symObjAddr: 0x53C, symBinAddr: 0x100007BFC, symSize: 0x34 }
  - { offset: 0x759D4, size: 0x8, addend: 0x0, symName: __ZNSt3__110unique_ptrIN6spdlog9formatterENS_14default_deleteIS2_EEED1B8de190102Ev, symObjAddr: 0x570, symBinAddr: 0x100007C30, symSize: 0x2C }
  - { offset: 0x759FD, size: 0x8, addend: 0x0, symName: __ZNSt3__113unordered_mapIcNS_10unique_ptrIN6spdlog21custom_flag_formatterENS_14default_deleteIS3_EEEENS_4hashIcEENS_8equal_toIcEENS_9allocatorINS_4pairIKcS6_EEEEED1B8de190102Ev, symObjAddr: 0x59C, symBinAddr: 0x100007C5C, symSize: 0x2C }
  - { offset: 0x75A26, size: 0x8, addend: 0x0, symName: __ZN6spdlog7details8registry13set_formatterENSt3__110unique_ptrINS_9formatterENS2_14default_deleteIS4_EEEE, symObjAddr: 0x670, symBinAddr: 0x100007D30, symSize: 0x144 }
  - { offset: 0x75AB6, size: 0x8, addend: 0x0, symName: __ZNSt3__110unique_ptrIN6spdlog9formatterENS_14default_deleteIS2_EEEC1B8de190102EOS5_, symObjAddr: 0x7B4, symBinAddr: 0x100007E74, symSize: 0x34 }
  - { offset: 0x75AEC, size: 0x8, addend: 0x0, symName: __ZN6spdlog7details8registryC1Ev, symObjAddr: 0x7E8, symBinAddr: 0x100007EA8, symSize: 0x2C }
  - { offset: 0x75B16, size: 0x8, addend: 0x0, symName: __ZN6spdlog7details8registryD1Ev, symObjAddr: 0x814, symBinAddr: 0x100007ED4, symSize: 0x2C }
  - { offset: 0x75B40, size: 0x8, addend: 0x0, symName: __ZN6spdlog7details8registryC2Ev, symObjAddr: 0x840, symBinAddr: 0x100007F00, symSize: 0x300 }
  - { offset: 0x75B91, size: 0x8, addend: 0x0, symName: __ZNSt3__15mutexC1B8de190102Ev, symObjAddr: 0xB40, symBinAddr: 0x100008200, symSize: 0x2C }
  - { offset: 0x75BBA, size: 0x8, addend: 0x0, symName: __ZNSt3__113unordered_mapINS_12basic_stringIcNS_11char_traitsIcEENS_9allocatorIcEEEENS_10shared_ptrIN6spdlog6loggerEEENS_4hashIS6_EENS_8equal_toIS6_EENS4_INS_4pairIKS6_SA_EEEEEC1B8de190102Ev, symObjAddr: 0xB6C, symBinAddr: 0x10000822C, symSize: 0x2C }
  - { offset: 0x75BE3, size: 0x8, addend: 0x0, symName: __ZNSt3__113unordered_mapINS_12basic_stringIcNS_11char_traitsIcEENS_9allocatorIcEEEEN6spdlog5level10level_enumENS_4hashIS6_EENS_8equal_toIS6_EENS4_INS_4pairIKS6_S9_EEEEEC1B8de190102Ev, symObjAddr: 0xB98, symBinAddr: 0x100008258, symSize: 0x2C }
  - { offset: 0x75C0C, size: 0x8, addend: 0x0, symName: __ZN6spdlog17pattern_formatterC1ENS_17pattern_time_typeENSt3__112basic_stringIcNS2_11char_traitsIcEENS2_9allocatorIcEEEE, symObjAddr: 0xBC4, symBinAddr: 0x100008284, symSize: 0x3C }
  - { offset: 0x75C57, size: 0x8, addend: 0x0, symName: __ZNSt3__18functionIFvRKNS_12basic_stringIcNS_11char_traitsIcEENS_9allocatorIcEEEEEEC1B8de190102Ev, symObjAddr: 0xC00, symBinAddr: 0x1000082C0, symSize: 0x2C }
  - { offset: 0x75C80, size: 0x8, addend: 0x0, symName: __ZNSt3__110shared_ptrIN6spdlog7details11thread_poolEEC1B8de190102Ev, symObjAddr: 0xC2C, symBinAddr: 0x1000082EC, symSize: 0x2C }
  - { offset: 0x75CA9, size: 0x8, addend: 0x0, symName: __ZNSt3__110unique_ptrIN6spdlog7details15periodic_workerENS_14default_deleteIS3_EEEC1B8de190102ILb1EvEEv, symObjAddr: 0xC58, symBinAddr: 0x100008318, symSize: 0x2C }
  - { offset: 0x75CDE, size: 0x8, addend: 0x0, symName: __ZNSt3__110shared_ptrIN6spdlog6loggerEEC1B8de190102Ev, symObjAddr: 0xC84, symBinAddr: 0x100008344, symSize: 0x2C }
  - { offset: 0x75D07, size: 0x8, addend: 0x0, symName: __ZNSt3__113unordered_mapINS_12basic_stringIcNS_11char_traitsIcEENS_9allocatorIcEEEENS_10shared_ptrIN6spdlog6loggerEEENS_4hashIS6_EENS_8equal_toIS6_EENS4_INS_4pairIKS6_SA_EEEEEixEOS6_, symObjAddr: 0xD30, symBinAddr: 0x1000083F0, symSize: 0xC4 }
  - { offset: 0x75D3B, size: 0x8, addend: 0x0, symName: __ZNSt3__110shared_ptrIN6spdlog6loggerEEaSB8de190102ERKS3_, symObjAddr: 0xDF4, symBinAddr: 0x1000084B4, symSize: 0x50 }
  - { offset: 0x75D92, size: 0x8, addend: 0x0, symName: __ZNSt3__110shared_ptrIN6spdlog5sinks21ansicolor_stdout_sinkINS1_7details13console_mutexEEEED1B8de190102Ev, symObjAddr: 0xE44, symBinAddr: 0x100008504, symSize: 0x2C }
  - { offset: 0x75DBB, size: 0x8, addend: 0x0, symName: __ZNSt3__110unique_ptrIN6spdlog7details15periodic_workerENS_14default_deleteIS3_EEED1B8de190102Ev, symObjAddr: 0xE70, symBinAddr: 0x100008530, symSize: 0x2C }
  - { offset: 0x75DE4, size: 0x8, addend: 0x0, symName: __ZNSt3__110shared_ptrIN6spdlog7details11thread_poolEED1B8de190102Ev, symObjAddr: 0xE9C, symBinAddr: 0x10000855C, symSize: 0x2C }
  - { offset: 0x75E0D, size: 0x8, addend: 0x0, symName: __ZNSt3__18functionIFvRKNS_12basic_stringIcNS_11char_traitsIcEENS_9allocatorIcEEEEEED1Ev, symObjAddr: 0xEC8, symBinAddr: 0x100008588, symSize: 0x2C }
  - { offset: 0x75E38, size: 0x8, addend: 0x0, symName: __ZNSt3__113unordered_mapINS_12basic_stringIcNS_11char_traitsIcEENS_9allocatorIcEEEEN6spdlog5level10level_enumENS_4hashIS6_EENS_8equal_toIS6_EENS4_INS_4pairIKS6_S9_EEEEED1B8de190102Ev, symObjAddr: 0xEF4, symBinAddr: 0x1000085B4, symSize: 0x2C }
  - { offset: 0x75E61, size: 0x8, addend: 0x0, symName: __ZNSt3__113unordered_mapINS_12basic_stringIcNS_11char_traitsIcEENS_9allocatorIcEEEENS_10shared_ptrIN6spdlog6loggerEEENS_4hashIS6_EENS_8equal_toIS6_EENS4_INS_4pairIKS6_SA_EEEEED1B8de190102Ev, symObjAddr: 0xF20, symBinAddr: 0x1000085E0, symSize: 0x2C }
  - { offset: 0x75E8A, size: 0x8, addend: 0x0, symName: __ZNSt3__15mutexC2B8de190102Ev, symObjAddr: 0xF4C, symBinAddr: 0x10000860C, symSize: 0x44 }
  - { offset: 0x75EB3, size: 0x8, addend: 0x0, symName: __ZNSt3__113unordered_mapINS_12basic_stringIcNS_11char_traitsIcEENS_9allocatorIcEEEENS_10shared_ptrIN6spdlog6loggerEEENS_4hashIS6_EENS_8equal_toIS6_EENS4_INS_4pairIKS6_SA_EEEEEC2B8de190102Ev, symObjAddr: 0xF90, symBinAddr: 0x100008650, symSize: 0x2C }
  - { offset: 0x75EDC, size: 0x8, addend: 0x0, symName: __ZNSt3__112__hash_tableINS_17__hash_value_typeINS_12basic_stringIcNS_11char_traitsIcEENS_9allocatorIcEEEENS_10shared_ptrIN6spdlog6loggerEEEEENS_22__unordered_map_hasherIS7_SC_NS_4hashIS7_EENS_8equal_toIS7_EELb1EEENS_21__unordered_map_equalIS7_SC_SH_SF_Lb1EEENS5_ISC_EEEC1Ev, symObjAddr: 0xFBC, symBinAddr: 0x10000867C, symSize: 0x2C }
  - { offset: 0x75F05, size: 0x8, addend: 0x0, symName: __ZNSt3__112__hash_tableINS_17__hash_value_typeINS_12basic_stringIcNS_11char_traitsIcEENS_9allocatorIcEEEENS_10shared_ptrIN6spdlog6loggerEEEEENS_22__unordered_map_hasherIS7_SC_NS_4hashIS7_EENS_8equal_toIS7_EELb1EEENS_21__unordered_map_equalIS7_SC_SH_SF_Lb1EEENS5_ISC_EEEC2Ev, symObjAddr: 0xFE8, symBinAddr: 0x1000086A8, symSize: 0x7C }
  - { offset: 0x75F2E, size: 0x8, addend: 0x0, symName: __ZNSt3__110unique_ptrIA_PNS_16__hash_node_baseIPNS_11__hash_nodeINS_17__hash_value_typeINS_12basic_stringIcNS_11char_traitsIcEENS_9allocatorIcEEEENS_10shared_ptrIN6spdlog6loggerEEEEEPvEEEENS_25__bucket_list_deallocatorINS7_ISJ_EEEEEC1B8de190102ILb1EvEEv, symObjAddr: 0x1064, symBinAddr: 0x100008724, symSize: 0x2C }
  - { offset: 0x75F63, size: 0x8, addend: 0x0, symName: __ZNSt3__117__compressed_pairINS_16__hash_node_baseIPNS_11__hash_nodeINS_17__hash_value_typeINS_12basic_stringIcNS_11char_traitsIcEENS_9allocatorIcEEEENS_10shared_ptrIN6spdlog6loggerEEEEEPvEEEENS7_ISG_EEEC1B8de190102ILb1ELi0EEEv, symObjAddr: 0x1090, symBinAddr: 0x100008750, symSize: 0x2C }
  - { offset: 0x75FA6, size: 0x8, addend: 0x0, symName: __ZNSt3__117__compressed_pairImNS_22__unordered_map_hasherINS_12basic_stringIcNS_11char_traitsIcEENS_9allocatorIcEEEENS_17__hash_value_typeIS7_NS_10shared_ptrIN6spdlog6loggerEEEEENS_4hashIS7_EENS_8equal_toIS7_EELb1EEEEC1B8de190102IiNS_18__default_init_tagEEEOT_OT0_, symObjAddr: 0x10CC, symBinAddr: 0x10000877C, symSize: 0x3C }
  - { offset: 0x76002, size: 0x8, addend: 0x0, symName: __ZNSt3__117__compressed_pairIfNS_21__unordered_map_equalINS_12basic_stringIcNS_11char_traitsIcEENS_9allocatorIcEEEENS_17__hash_value_typeIS7_NS_10shared_ptrIN6spdlog6loggerEEEEENS_8equal_toIS7_EENS_4hashIS7_EELb1EEEEC1B8de190102IfNS_18__default_init_tagEEEOT_OT0_, symObjAddr: 0x1108, symBinAddr: 0x1000087B8, symSize: 0x3C }
  - { offset: 0x76059, size: 0x8, addend: 0x0, symName: __ZNSt3__110unique_ptrIA_PNS_16__hash_node_baseIPNS_11__hash_nodeINS_17__hash_value_typeINS_12basic_stringIcNS_11char_traitsIcEENS_9allocatorIcEEEENS_10shared_ptrIN6spdlog6loggerEEEEEPvEEEENS_25__bucket_list_deallocatorINS7_ISJ_EEEEEC2B8de190102ILb1EvEEv, symObjAddr: 0x1144, symBinAddr: 0x1000087F4, symSize: 0x3C }
  - { offset: 0x76093, size: 0x8, addend: 0x0, symName: __ZNSt3__117__compressed_pairIPPNS_16__hash_node_baseIPNS_11__hash_nodeINS_17__hash_value_typeINS_12basic_stringIcNS_11char_traitsIcEENS_9allocatorIcEEEENS_10shared_ptrIN6spdlog6loggerEEEEEPvEEEENS_25__bucket_list_deallocatorINS7_ISJ_EEEEEC1B8de190102INS_16__value_init_tagESQ_EEOT_OT0_, symObjAddr: 0x1180, symBinAddr: 0x100008830, symSize: 0x3C }
  - { offset: 0x760EA, size: 0x8, addend: 0x0, symName: __ZNSt3__117__compressed_pairIPPNS_16__hash_node_baseIPNS_11__hash_nodeINS_17__hash_value_typeINS_12basic_stringIcNS_11char_traitsIcEENS_9allocatorIcEEEENS_10shared_ptrIN6spdlog6loggerEEEEEPvEEEENS_25__bucket_list_deallocatorINS7_ISJ_EEEEEC2B8de190102INS_16__value_init_tagESQ_EEOT_OT0_, symObjAddr: 0x11BC, symBinAddr: 0x10000886C, symSize: 0x40 }
  - { offset: 0x76141, size: 0x8, addend: 0x0, symName: __ZNSt3__122__compressed_pair_elemIPPNS_16__hash_node_baseIPNS_11__hash_nodeINS_17__hash_value_typeINS_12basic_stringIcNS_11char_traitsIcEENS_9allocatorIcEEEENS_10shared_ptrIN6spdlog6loggerEEEEEPvEEEELi0ELb0EEC2B8de190102ENS_16__value_init_tagE, symObjAddr: 0x11FC, symBinAddr: 0x1000088AC, symSize: 0x18 }
  - { offset: 0x76175, size: 0x8, addend: 0x0, symName: __ZNSt3__122__compressed_pair_elemINS_25__bucket_list_deallocatorINS_9allocatorIPNS_16__hash_node_baseIPNS_11__hash_nodeINS_17__hash_value_typeINS_12basic_stringIcNS_11char_traitsIcEENS2_IcEEEENS_10shared_ptrIN6spdlog6loggerEEEEEPvEEEEEEEELi1ELb0EEC2B8de190102ENS_16__value_init_tagE, symObjAddr: 0x1214, symBinAddr: 0x1000088C4, symSize: 0x2C }
  - { offset: 0x761A9, size: 0x8, addend: 0x0, symName: __ZNSt3__125__bucket_list_deallocatorINS_9allocatorIPNS_16__hash_node_baseIPNS_11__hash_nodeINS_17__hash_value_typeINS_12basic_stringIcNS_11char_traitsIcEENS1_IcEEEENS_10shared_ptrIN6spdlog6loggerEEEEEPvEEEEEEEC1B8de190102Ev, symObjAddr: 0x1240, symBinAddr: 0x1000088F0, symSize: 0x2C }
  - { offset: 0x761D2, size: 0x8, addend: 0x0, symName: __ZNSt3__125__bucket_list_deallocatorINS_9allocatorIPNS_16__hash_node_baseIPNS_11__hash_nodeINS_17__hash_value_typeINS_12basic_stringIcNS_11char_traitsIcEENS1_IcEEEENS_10shared_ptrIN6spdlog6loggerEEEEEPvEEEEEEEC2B8de190102Ev, symObjAddr: 0x126C, symBinAddr: 0x10000891C, symSize: 0x40 }
  - { offset: 0x761FB, size: 0x8, addend: 0x0, symName: __ZNSt3__117__compressed_pairImNS_9allocatorIPNS_16__hash_node_baseIPNS_11__hash_nodeINS_17__hash_value_typeINS_12basic_stringIcNS_11char_traitsIcEENS1_IcEEEENS_10shared_ptrIN6spdlog6loggerEEEEEPvEEEEEEEC1B8de190102IiNS_18__default_init_tagEEEOT_OT0_, symObjAddr: 0x12AC, symBinAddr: 0x10000895C, symSize: 0x3C }
  - { offset: 0x76252, size: 0x8, addend: 0x0, symName: __ZNSt3__117__compressed_pairImNS_9allocatorIPNS_16__hash_node_baseIPNS_11__hash_nodeINS_17__hash_value_typeINS_12basic_stringIcNS_11char_traitsIcEENS1_IcEEEENS_10shared_ptrIN6spdlog6loggerEEEEEPvEEEEEEEC2B8de190102IiNS_18__default_init_tagEEEOT_OT0_, symObjAddr: 0x12E8, symBinAddr: 0x100008998, symSize: 0x40 }
  - { offset: 0x762A9, size: 0x8, addend: 0x0, symName: __ZNSt3__122__compressed_pair_elemImLi0ELb0EEC2B8de190102IiLi0EEEOT_, symObjAddr: 0x1328, symBinAddr: 0x1000089D8, symSize: 0x24 }
  - { offset: 0x762EF, size: 0x8, addend: 0x0, symName: __ZNSt3__122__compressed_pair_elemINS_9allocatorIPNS_16__hash_node_baseIPNS_11__hash_nodeINS_17__hash_value_typeINS_12basic_stringIcNS_11char_traitsIcEENS1_IcEEEENS_10shared_ptrIN6spdlog6loggerEEEEEPvEEEEEELi1ELb1EEC2B8de190102ENS_18__default_init_tagE, symObjAddr: 0x134C, symBinAddr: 0x1000089FC, symSize: 0x2C }
  - { offset: 0x76323, size: 0x8, addend: 0x0, symName: __ZNSt3__19allocatorIPNS_16__hash_node_baseIPNS_11__hash_nodeINS_17__hash_value_typeINS_12basic_stringIcNS_11char_traitsIcEENS0_IcEEEENS_10shared_ptrIN6spdlog6loggerEEEEEPvEEEEEC2B8de190102Ev, symObjAddr: 0x1378, symBinAddr: 0x100008A28, symSize: 0x2C }
  - { offset: 0x7634C, size: 0x8, addend: 0x0, symName: __ZNSt3__116__non_trivial_ifILb1ENS_9allocatorIPNS_16__hash_node_baseIPNS_11__hash_nodeINS_17__hash_value_typeINS_12basic_stringIcNS_11char_traitsIcEENS1_IcEEEENS_10shared_ptrIN6spdlog6loggerEEEEEPvEEEEEEEC2B8de190102Ev, symObjAddr: 0x13A4, symBinAddr: 0x100008A54, symSize: 0x14 }
  - { offset: 0x76375, size: 0x8, addend: 0x0, symName: __ZNSt3__117__compressed_pairINS_16__hash_node_baseIPNS_11__hash_nodeINS_17__hash_value_typeINS_12basic_stringIcNS_11char_traitsIcEENS_9allocatorIcEEEENS_10shared_ptrIN6spdlog6loggerEEEEEPvEEEENS7_ISG_EEEC2B8de190102ILb1ELi0EEEv, symObjAddr: 0x13B8, symBinAddr: 0x100008A68, symSize: 0x34 }
  - { offset: 0x763AE, size: 0x8, addend: 0x0, symName: __ZNSt3__122__compressed_pair_elemINS_16__hash_node_baseIPNS_11__hash_nodeINS_17__hash_value_typeINS_12basic_stringIcNS_11char_traitsIcEENS_9allocatorIcEEEENS_10shared_ptrIN6spdlog6loggerEEEEEPvEEEELi0ELb0EEC2B8de190102ENS_16__value_init_tagE, symObjAddr: 0x13EC, symBinAddr: 0x100008A9C, symSize: 0x2C }
  - { offset: 0x763E2, size: 0x8, addend: 0x0, symName: __ZNSt3__122__compressed_pair_elemINS_9allocatorINS_11__hash_nodeINS_17__hash_value_typeINS_12basic_stringIcNS_11char_traitsIcEENS1_IcEEEENS_10shared_ptrIN6spdlog6loggerEEEEEPvEEEELi1ELb1EEC2B8de190102ENS_16__value_init_tagE, symObjAddr: 0x1418, symBinAddr: 0x100008AC8, symSize: 0x2C }
  - { offset: 0x76416, size: 0x8, addend: 0x0, symName: __ZNSt3__116__hash_node_baseIPNS_11__hash_nodeINS_17__hash_value_typeINS_12basic_stringIcNS_11char_traitsIcEENS_9allocatorIcEEEENS_10shared_ptrIN6spdlog6loggerEEEEEPvEEEC1B8de190102Ev, symObjAddr: 0x1444, symBinAddr: 0x100008AF4, symSize: 0x2C }
  - { offset: 0x7643F, size: 0x8, addend: 0x0, symName: __ZNSt3__116__hash_node_baseIPNS_11__hash_nodeINS_17__hash_value_typeINS_12basic_stringIcNS_11char_traitsIcEENS_9allocatorIcEEEENS_10shared_ptrIN6spdlog6loggerEEEEEPvEEEC2B8de190102Ev, symObjAddr: 0x1470, symBinAddr: 0x100008B20, symSize: 0x18 }
  - { offset: 0x76468, size: 0x8, addend: 0x0, symName: __ZNSt3__19allocatorINS_11__hash_nodeINS_17__hash_value_typeINS_12basic_stringIcNS_11char_traitsIcEENS0_IcEEEENS_10shared_ptrIN6spdlog6loggerEEEEEPvEEEC2B8de190102Ev, symObjAddr: 0x1488, symBinAddr: 0x100008B38, symSize: 0x2C }
  - { offset: 0x76491, size: 0x8, addend: 0x0, symName: __ZNSt3__116__non_trivial_ifILb1ENS_9allocatorINS_11__hash_nodeINS_17__hash_value_typeINS_12basic_stringIcNS_11char_traitsIcEENS1_IcEEEENS_10shared_ptrIN6spdlog6loggerEEEEEPvEEEEEC2B8de190102Ev, symObjAddr: 0x14B4, symBinAddr: 0x100008B64, symSize: 0x14 }
  - { offset: 0x764BA, size: 0x8, addend: 0x0, symName: __ZNSt3__117__compressed_pairImNS_22__unordered_map_hasherINS_12basic_stringIcNS_11char_traitsIcEENS_9allocatorIcEEEENS_17__hash_value_typeIS7_NS_10shared_ptrIN6spdlog6loggerEEEEENS_4hashIS7_EENS_8equal_toIS7_EELb1EEEEC2B8de190102IiNS_18__default_init_tagEEEOT_OT0_, symObjAddr: 0x14C8, symBinAddr: 0x100008B78, symSize: 0x40 }
  - { offset: 0x76511, size: 0x8, addend: 0x0, symName: __ZNSt3__122__compressed_pair_elemINS_22__unordered_map_hasherINS_12basic_stringIcNS_11char_traitsIcEENS_9allocatorIcEEEENS_17__hash_value_typeIS7_NS_10shared_ptrIN6spdlog6loggerEEEEENS_4hashIS7_EENS_8equal_toIS7_EELb1EEELi1ELb1EEC2B8de190102ENS_18__default_init_tagE, symObjAddr: 0x1508, symBinAddr: 0x100008BB8, symSize: 0x2C }
  - { offset: 0x76545, size: 0x8, addend: 0x0, symName: __ZNSt3__122__unordered_map_hasherINS_12basic_stringIcNS_11char_traitsIcEENS_9allocatorIcEEEENS_17__hash_value_typeIS6_NS_10shared_ptrIN6spdlog6loggerEEEEENS_4hashIS6_EENS_8equal_toIS6_EELb1EEC2B8de190102Ev, symObjAddr: 0x1534, symBinAddr: 0x100008BE4, symSize: 0x14 }
  - { offset: 0x7656E, size: 0x8, addend: 0x0, symName: __ZNSt3__117__compressed_pairIfNS_21__unordered_map_equalINS_12basic_stringIcNS_11char_traitsIcEENS_9allocatorIcEEEENS_17__hash_value_typeIS7_NS_10shared_ptrIN6spdlog6loggerEEEEENS_8equal_toIS7_EENS_4hashIS7_EELb1EEEEC2B8de190102IfNS_18__default_init_tagEEEOT_OT0_, symObjAddr: 0x1548, symBinAddr: 0x100008BF8, symSize: 0x40 }
  - { offset: 0x765C5, size: 0x8, addend: 0x0, symName: __ZNSt3__122__compressed_pair_elemIfLi0ELb0EEC2B8de190102IfLi0EEEOT_, symObjAddr: 0x1588, symBinAddr: 0x100008C38, symSize: 0x24 }
  - { offset: 0x7660B, size: 0x8, addend: 0x0, symName: __ZNSt3__122__compressed_pair_elemINS_21__unordered_map_equalINS_12basic_stringIcNS_11char_traitsIcEENS_9allocatorIcEEEENS_17__hash_value_typeIS7_NS_10shared_ptrIN6spdlog6loggerEEEEENS_8equal_toIS7_EENS_4hashIS7_EELb1EEELi1ELb1EEC2B8de190102ENS_18__default_init_tagE, symObjAddr: 0x15AC, symBinAddr: 0x100008C5C, symSize: 0x2C }
  - { offset: 0x7663F, size: 0x8, addend: 0x0, symName: __ZNSt3__121__unordered_map_equalINS_12basic_stringIcNS_11char_traitsIcEENS_9allocatorIcEEEENS_17__hash_value_typeIS6_NS_10shared_ptrIN6spdlog6loggerEEEEENS_8equal_toIS6_EENS_4hashIS6_EELb1EEC2B8de190102Ev, symObjAddr: 0x15D8, symBinAddr: 0x100008C88, symSize: 0x14 }
  - { offset: 0x76668, size: 0x8, addend: 0x0, symName: __ZNSt3__113unordered_mapINS_12basic_stringIcNS_11char_traitsIcEENS_9allocatorIcEEEEN6spdlog5level10level_enumENS_4hashIS6_EENS_8equal_toIS6_EENS4_INS_4pairIKS6_S9_EEEEEC2B8de190102Ev, symObjAddr: 0x15EC, symBinAddr: 0x100008C9C, symSize: 0x2C }
  - { offset: 0x76691, size: 0x8, addend: 0x0, symName: __ZNSt3__112__hash_tableINS_17__hash_value_typeINS_12basic_stringIcNS_11char_traitsIcEENS_9allocatorIcEEEEN6spdlog5level10level_enumEEENS_22__unordered_map_hasherIS7_SB_NS_4hashIS7_EENS_8equal_toIS7_EELb1EEENS_21__unordered_map_equalIS7_SB_SG_SE_Lb1EEENS5_ISB_EEEC1Ev, symObjAddr: 0x1618, symBinAddr: 0x100008CC8, symSize: 0x2C }
  - { offset: 0x766BA, size: 0x8, addend: 0x0, symName: __ZNSt3__112__hash_tableINS_17__hash_value_typeINS_12basic_stringIcNS_11char_traitsIcEENS_9allocatorIcEEEEN6spdlog5level10level_enumEEENS_22__unordered_map_hasherIS7_SB_NS_4hashIS7_EENS_8equal_toIS7_EELb1EEENS_21__unordered_map_equalIS7_SB_SG_SE_Lb1EEENS5_ISB_EEEC2Ev, symObjAddr: 0x1644, symBinAddr: 0x100008CF4, symSize: 0x7C }
  - { offset: 0x766E3, size: 0x8, addend: 0x0, symName: __ZNSt3__110unique_ptrIA_PNS_16__hash_node_baseIPNS_11__hash_nodeINS_17__hash_value_typeINS_12basic_stringIcNS_11char_traitsIcEENS_9allocatorIcEEEEN6spdlog5level10level_enumEEEPvEEEENS_25__bucket_list_deallocatorINS7_ISI_EEEEEC1B8de190102ILb1EvEEv, symObjAddr: 0x16C0, symBinAddr: 0x100008D70, symSize: 0x2C }
  - { offset: 0x76718, size: 0x8, addend: 0x0, symName: __ZNSt3__117__compressed_pairINS_16__hash_node_baseIPNS_11__hash_nodeINS_17__hash_value_typeINS_12basic_stringIcNS_11char_traitsIcEENS_9allocatorIcEEEEN6spdlog5level10level_enumEEEPvEEEENS7_ISF_EEEC1B8de190102ILb1ELi0EEEv, symObjAddr: 0x16EC, symBinAddr: 0x100008D9C, symSize: 0x2C }
  - { offset: 0x76751, size: 0x8, addend: 0x0, symName: __ZNSt3__117__compressed_pairImNS_22__unordered_map_hasherINS_12basic_stringIcNS_11char_traitsIcEENS_9allocatorIcEEEENS_17__hash_value_typeIS7_N6spdlog5level10level_enumEEENS_4hashIS7_EENS_8equal_toIS7_EELb1EEEEC1B8de190102IiNS_18__default_init_tagEEEOT_OT0_, symObjAddr: 0x1718, symBinAddr: 0x100008DC8, symSize: 0x3C }
  - { offset: 0x767A8, size: 0x8, addend: 0x0, symName: __ZNSt3__117__compressed_pairIfNS_21__unordered_map_equalINS_12basic_stringIcNS_11char_traitsIcEENS_9allocatorIcEEEENS_17__hash_value_typeIS7_N6spdlog5level10level_enumEEENS_8equal_toIS7_EENS_4hashIS7_EELb1EEEEC1B8de190102IfNS_18__default_init_tagEEEOT_OT0_, symObjAddr: 0x1754, symBinAddr: 0x100008E04, symSize: 0x3C }
  - { offset: 0x767FF, size: 0x8, addend: 0x0, symName: __ZNSt3__110unique_ptrIA_PNS_16__hash_node_baseIPNS_11__hash_nodeINS_17__hash_value_typeINS_12basic_stringIcNS_11char_traitsIcEENS_9allocatorIcEEEEN6spdlog5level10level_enumEEEPvEEEENS_25__bucket_list_deallocatorINS7_ISI_EEEEEC2B8de190102ILb1EvEEv, symObjAddr: 0x1790, symBinAddr: 0x100008E40, symSize: 0x3C }
  - { offset: 0x76834, size: 0x8, addend: 0x0, symName: __ZNSt3__117__compressed_pairIPPNS_16__hash_node_baseIPNS_11__hash_nodeINS_17__hash_value_typeINS_12basic_stringIcNS_11char_traitsIcEENS_9allocatorIcEEEEN6spdlog5level10level_enumEEEPvEEEENS_25__bucket_list_deallocatorINS7_ISI_EEEEEC1B8de190102INS_16__value_init_tagESP_EEOT_OT0_, symObjAddr: 0x17CC, symBinAddr: 0x100008E7C, symSize: 0x3C }
  - { offset: 0x7688B, size: 0x8, addend: 0x0, symName: __ZNSt3__117__compressed_pairIPPNS_16__hash_node_baseIPNS_11__hash_nodeINS_17__hash_value_typeINS_12basic_stringIcNS_11char_traitsIcEENS_9allocatorIcEEEEN6spdlog5level10level_enumEEEPvEEEENS_25__bucket_list_deallocatorINS7_ISI_EEEEEC2B8de190102INS_16__value_init_tagESP_EEOT_OT0_, symObjAddr: 0x1808, symBinAddr: 0x100008EB8, symSize: 0x40 }
  - { offset: 0x768E2, size: 0x8, addend: 0x0, symName: __ZNSt3__122__compressed_pair_elemIPPNS_16__hash_node_baseIPNS_11__hash_nodeINS_17__hash_value_typeINS_12basic_stringIcNS_11char_traitsIcEENS_9allocatorIcEEEEN6spdlog5level10level_enumEEEPvEEEELi0ELb0EEC2B8de190102ENS_16__value_init_tagE, symObjAddr: 0x1848, symBinAddr: 0x100008EF8, symSize: 0x18 }
  - { offset: 0x76916, size: 0x8, addend: 0x0, symName: __ZNSt3__122__compressed_pair_elemINS_25__bucket_list_deallocatorINS_9allocatorIPNS_16__hash_node_baseIPNS_11__hash_nodeINS_17__hash_value_typeINS_12basic_stringIcNS_11char_traitsIcEENS2_IcEEEEN6spdlog5level10level_enumEEEPvEEEEEEEELi1ELb0EEC2B8de190102ENS_16__value_init_tagE, symObjAddr: 0x1860, symBinAddr: 0x100008F10, symSize: 0x2C }
  - { offset: 0x7694A, size: 0x8, addend: 0x0, symName: __ZNSt3__125__bucket_list_deallocatorINS_9allocatorIPNS_16__hash_node_baseIPNS_11__hash_nodeINS_17__hash_value_typeINS_12basic_stringIcNS_11char_traitsIcEENS1_IcEEEEN6spdlog5level10level_enumEEEPvEEEEEEEC1B8de190102Ev, symObjAddr: 0x188C, symBinAddr: 0x100008F3C, symSize: 0x2C }
  - { offset: 0x76973, size: 0x8, addend: 0x0, symName: __ZNSt3__125__bucket_list_deallocatorINS_9allocatorIPNS_16__hash_node_baseIPNS_11__hash_nodeINS_17__hash_value_typeINS_12basic_stringIcNS_11char_traitsIcEENS1_IcEEEEN6spdlog5level10level_enumEEEPvEEEEEEEC2B8de190102Ev, symObjAddr: 0x18B8, symBinAddr: 0x100008F68, symSize: 0x40 }
  - { offset: 0x7699C, size: 0x8, addend: 0x0, symName: __ZNSt3__117__compressed_pairImNS_9allocatorIPNS_16__hash_node_baseIPNS_11__hash_nodeINS_17__hash_value_typeINS_12basic_stringIcNS_11char_traitsIcEENS1_IcEEEEN6spdlog5level10level_enumEEEPvEEEEEEEC1B8de190102IiNS_18__default_init_tagEEEOT_OT0_, symObjAddr: 0x18F8, symBinAddr: 0x100008FA8, symSize: 0x3C }
  - { offset: 0x769F3, size: 0x8, addend: 0x0, symName: __ZNSt3__117__compressed_pairImNS_9allocatorIPNS_16__hash_node_baseIPNS_11__hash_nodeINS_17__hash_value_typeINS_12basic_stringIcNS_11char_traitsIcEENS1_IcEEEEN6spdlog5level10level_enumEEEPvEEEEEEEC2B8de190102IiNS_18__default_init_tagEEEOT_OT0_, symObjAddr: 0x1934, symBinAddr: 0x100008FE4, symSize: 0x40 }
  - { offset: 0x76A4A, size: 0x8, addend: 0x0, symName: __ZNSt3__122__compressed_pair_elemINS_9allocatorIPNS_16__hash_node_baseIPNS_11__hash_nodeINS_17__hash_value_typeINS_12basic_stringIcNS_11char_traitsIcEENS1_IcEEEEN6spdlog5level10level_enumEEEPvEEEEEELi1ELb1EEC2B8de190102ENS_18__default_init_tagE, symObjAddr: 0x1974, symBinAddr: 0x100009024, symSize: 0x2C }
  - { offset: 0x76A7E, size: 0x8, addend: 0x0, symName: __ZNSt3__19allocatorIPNS_16__hash_node_baseIPNS_11__hash_nodeINS_17__hash_value_typeINS_12basic_stringIcNS_11char_traitsIcEENS0_IcEEEEN6spdlog5level10level_enumEEEPvEEEEEC2B8de190102Ev, symObjAddr: 0x19A0, symBinAddr: 0x100009050, symSize: 0x2C }
  - { offset: 0x76AA7, size: 0x8, addend: 0x0, symName: __ZNSt3__116__non_trivial_ifILb1ENS_9allocatorIPNS_16__hash_node_baseIPNS_11__hash_nodeINS_17__hash_value_typeINS_12basic_stringIcNS_11char_traitsIcEENS1_IcEEEEN6spdlog5level10level_enumEEEPvEEEEEEEC2B8de190102Ev, symObjAddr: 0x19CC, symBinAddr: 0x10000907C, symSize: 0x14 }
  - { offset: 0x76AD0, size: 0x8, addend: 0x0, symName: __ZNSt3__117__compressed_pairINS_16__hash_node_baseIPNS_11__hash_nodeINS_17__hash_value_typeINS_12basic_stringIcNS_11char_traitsIcEENS_9allocatorIcEEEEN6spdlog5level10level_enumEEEPvEEEENS7_ISF_EEEC2B8de190102ILb1ELi0EEEv, symObjAddr: 0x19E0, symBinAddr: 0x100009090, symSize: 0x34 }
  - { offset: 0x76B09, size: 0x8, addend: 0x0, symName: __ZNSt3__122__compressed_pair_elemINS_16__hash_node_baseIPNS_11__hash_nodeINS_17__hash_value_typeINS_12basic_stringIcNS_11char_traitsIcEENS_9allocatorIcEEEEN6spdlog5level10level_enumEEEPvEEEELi0ELb0EEC2B8de190102ENS_16__value_init_tagE, symObjAddr: 0x1A14, symBinAddr: 0x1000090C4, symSize: 0x2C }
  - { offset: 0x76B3D, size: 0x8, addend: 0x0, symName: __ZNSt3__122__compressed_pair_elemINS_9allocatorINS_11__hash_nodeINS_17__hash_value_typeINS_12basic_stringIcNS_11char_traitsIcEENS1_IcEEEEN6spdlog5level10level_enumEEEPvEEEELi1ELb1EEC2B8de190102ENS_16__value_init_tagE, symObjAddr: 0x1A40, symBinAddr: 0x1000090F0, symSize: 0x2C }
  - { offset: 0x76B71, size: 0x8, addend: 0x0, symName: __ZNSt3__116__hash_node_baseIPNS_11__hash_nodeINS_17__hash_value_typeINS_12basic_stringIcNS_11char_traitsIcEENS_9allocatorIcEEEEN6spdlog5level10level_enumEEEPvEEEC1B8de190102Ev, symObjAddr: 0x1A6C, symBinAddr: 0x10000911C, symSize: 0x2C }
  - { offset: 0x76B9A, size: 0x8, addend: 0x0, symName: __ZNSt3__116__hash_node_baseIPNS_11__hash_nodeINS_17__hash_value_typeINS_12basic_stringIcNS_11char_traitsIcEENS_9allocatorIcEEEEN6spdlog5level10level_enumEEEPvEEEC2B8de190102Ev, symObjAddr: 0x1A98, symBinAddr: 0x100009148, symSize: 0x18 }
  - { offset: 0x76BC3, size: 0x8, addend: 0x0, symName: __ZNSt3__19allocatorINS_11__hash_nodeINS_17__hash_value_typeINS_12basic_stringIcNS_11char_traitsIcEENS0_IcEEEEN6spdlog5level10level_enumEEEPvEEEC2B8de190102Ev, symObjAddr: 0x1AB0, symBinAddr: 0x100009160, symSize: 0x2C }
  - { offset: 0x76BEC, size: 0x8, addend: 0x0, symName: __ZNSt3__116__non_trivial_ifILb1ENS_9allocatorINS_11__hash_nodeINS_17__hash_value_typeINS_12basic_stringIcNS_11char_traitsIcEENS1_IcEEEEN6spdlog5level10level_enumEEEPvEEEEEC2B8de190102Ev, symObjAddr: 0x1ADC, symBinAddr: 0x10000918C, symSize: 0x14 }
  - { offset: 0x76C15, size: 0x8, addend: 0x0, symName: __ZNSt3__117__compressed_pairImNS_22__unordered_map_hasherINS_12basic_stringIcNS_11char_traitsIcEENS_9allocatorIcEEEENS_17__hash_value_typeIS7_N6spdlog5level10level_enumEEENS_4hashIS7_EENS_8equal_toIS7_EELb1EEEEC2B8de190102IiNS_18__default_init_tagEEEOT_OT0_, symObjAddr: 0x1AF0, symBinAddr: 0x1000091A0, symSize: 0x40 }
  - { offset: 0x76C6C, size: 0x8, addend: 0x0, symName: __ZNSt3__122__compressed_pair_elemINS_22__unordered_map_hasherINS_12basic_stringIcNS_11char_traitsIcEENS_9allocatorIcEEEENS_17__hash_value_typeIS7_N6spdlog5level10level_enumEEENS_4hashIS7_EENS_8equal_toIS7_EELb1EEELi1ELb1EEC2B8de190102ENS_18__default_init_tagE, symObjAddr: 0x1B30, symBinAddr: 0x1000091E0, symSize: 0x2C }
  - { offset: 0x76CA0, size: 0x8, addend: 0x0, symName: __ZNSt3__122__unordered_map_hasherINS_12basic_stringIcNS_11char_traitsIcEENS_9allocatorIcEEEENS_17__hash_value_typeIS6_N6spdlog5level10level_enumEEENS_4hashIS6_EENS_8equal_toIS6_EELb1EEC2B8de190102Ev, symObjAddr: 0x1B5C, symBinAddr: 0x10000920C, symSize: 0x14 }
  - { offset: 0x76CC9, size: 0x8, addend: 0x0, symName: __ZNSt3__117__compressed_pairIfNS_21__unordered_map_equalINS_12basic_stringIcNS_11char_traitsIcEENS_9allocatorIcEEEENS_17__hash_value_typeIS7_N6spdlog5level10level_enumEEENS_8equal_toIS7_EENS_4hashIS7_EELb1EEEEC2B8de190102IfNS_18__default_init_tagEEEOT_OT0_, symObjAddr: 0x1B70, symBinAddr: 0x100009220, symSize: 0x40 }
  - { offset: 0x76D20, size: 0x8, addend: 0x0, symName: __ZNSt3__122__compressed_pair_elemINS_21__unordered_map_equalINS_12basic_stringIcNS_11char_traitsIcEENS_9allocatorIcEEEENS_17__hash_value_typeIS7_N6spdlog5level10level_enumEEENS_8equal_toIS7_EENS_4hashIS7_EELb1EEELi1ELb1EEC2B8de190102ENS_18__default_init_tagE, symObjAddr: 0x1BB0, symBinAddr: 0x100009260, symSize: 0x2C }
  - { offset: 0x76D54, size: 0x8, addend: 0x0, symName: __ZNSt3__121__unordered_map_equalINS_12basic_stringIcNS_11char_traitsIcEENS_9allocatorIcEEEENS_17__hash_value_typeIS6_N6spdlog5level10level_enumEEENS_8equal_toIS6_EENS_4hashIS6_EELb1EEC2B8de190102Ev, symObjAddr: 0x1BDC, symBinAddr: 0x10000928C, symSize: 0x14 }
  - { offset: 0x76D7D, size: 0x8, addend: 0x0, symName: __ZN6spdlog17pattern_formatterC2ENS_17pattern_time_typeENSt3__112basic_stringIcNS2_11char_traitsIcEENS2_9allocatorIcEEEE, symObjAddr: 0x1BF0, symBinAddr: 0x1000092A0, symSize: 0x1C0 }
  - { offset: 0x76DC7, size: 0x8, addend: 0x0, symName: __ZN6spdlog9formatterC2Ev, symObjAddr: 0x1DB0, symBinAddr: 0x100009460, symSize: 0x24 }
  - { offset: 0x76DF7, size: 0x8, addend: 0x0, symName: __ZNSt3__16chrono8durationIxNS_5ratioILl1ELl1EEEEC1B8de190102IiLi0EEERKT_, symObjAddr: 0x1DD4, symBinAddr: 0x100009484, symSize: 0x34 }
  - { offset: 0x76E3D, size: 0x8, addend: 0x0, symName: __ZNSt3__16vectorINS_10unique_ptrIN6spdlog7details14flag_formatterENS_14default_deleteIS4_EEEENS_9allocatorIS7_EEEC1B8de190102Ev, symObjAddr: 0x1E08, symBinAddr: 0x1000094B8, symSize: 0x2C }
  - { offset: 0x76E66, size: 0x8, addend: 0x0, symName: __ZNSt3__16vectorINS_10unique_ptrIN6spdlog7details14flag_formatterENS_14default_deleteIS4_EEEENS_9allocatorIS7_EEE9push_backB8de190102EOS7_, symObjAddr: 0x1E34, symBinAddr: 0x1000094E4, symSize: 0x8C }
  - { offset: 0x76EA9, size: 0x8, addend: 0x0, symName: __ZN6spdlog7details12padding_infoC1Ev, symObjAddr: 0x1F3C, symBinAddr: 0x1000095EC, symSize: 0x2C }
  - { offset: 0x76ED2, size: 0x8, addend: 0x0, symName: __ZNSt3__110unique_ptrIN6spdlog7details14flag_formatterENS_14default_deleteIS3_EEEC1B8de190102INS2_14full_formatterENS4_IS8_EEvvEEONS0_IT_T0_EE, symObjAddr: 0x1F68, symBinAddr: 0x100009618, symSize: 0x34 }
  - { offset: 0x76F1F, size: 0x8, addend: 0x0, symName: __ZNSt3__110unique_ptrIN6spdlog7details14flag_formatterENS_14default_deleteIS3_EEED1B8de190102Ev, symObjAddr: 0x1F9C, symBinAddr: 0x10000964C, symSize: 0x2C }
  - { offset: 0x76F48, size: 0x8, addend: 0x0, symName: __ZNSt3__110unique_ptrIN6spdlog7details14full_formatterENS_14default_deleteIS3_EEED1B8de190102Ev, symObjAddr: 0x1FC8, symBinAddr: 0x100009678, symSize: 0x2C }
  - { offset: 0x76F71, size: 0x8, addend: 0x0, symName: __ZNSt3__16vectorINS_10unique_ptrIN6spdlog7details14flag_formatterENS_14default_deleteIS4_EEEENS_9allocatorIS7_EEED1B8de190102Ev, symObjAddr: 0x1FF4, symBinAddr: 0x1000096A4, symSize: 0x2C }
  - { offset: 0x76F9A, size: 0x8, addend: 0x0, symName: __ZN6spdlog9formatterD2Ev, symObjAddr: 0x2020, symBinAddr: 0x1000096D0, symSize: 0x14 }
  - { offset: 0x76FC2, size: 0x8, addend: 0x0, symName: __ZN6spdlog17pattern_formatterD1Ev, symObjAddr: 0x2034, symBinAddr: 0x1000096E4, symSize: 0x2C }
  - { offset: 0x76FEC, size: 0x8, addend: 0x0, symName: __ZN6spdlog17pattern_formatterD0Ev, symObjAddr: 0x2060, symBinAddr: 0x100009710, symSize: 0x30 }
  - { offset: 0x77017, size: 0x8, addend: 0x0, symName: __ZN6spdlog17pattern_formatter6formatERKNS_7details7log_msgERN3fmt3v1119basic_memory_bufferIcLm250ENS6_6detail9allocatorIcEEEE, symObjAddr: 0x2090, symBinAddr: 0x100009740, symSize: 0x14C }
  - { offset: 0x770CF, size: 0x8, addend: 0x0, symName: __ZNK6spdlog17pattern_formatter5cloneEv, symObjAddr: 0x21DC, symBinAddr: 0x10000988C, symSize: 0x1A4 }
  - { offset: 0x77163, size: 0x8, addend: 0x0, symName: __ZN6spdlog9formatterD1Ev, symObjAddr: 0x2380, symBinAddr: 0x100009A30, symSize: 0x14 }
  - { offset: 0x7718C, size: 0x8, addend: 0x0, symName: __ZN6spdlog9formatterD0Ev, symObjAddr: 0x2394, symBinAddr: 0x100009A44, symSize: 0xC }
  - { offset: 0x771B5, size: 0x8, addend: 0x0, symName: __ZNSt3__16chrono8durationIxNS_5ratioILl1ELl1EEEEC2B8de190102IiLi0EEERKT_, symObjAddr: 0x23A0, symBinAddr: 0x100009A50, symSize: 0x24 }
  - { offset: 0x771FB, size: 0x8, addend: 0x0, symName: __ZNSt3__16vectorINS_10unique_ptrIN6spdlog7details14flag_formatterENS_14default_deleteIS4_EEEENS_9allocatorIS7_EEEC2B8de190102Ev, symObjAddr: 0x23C4, symBinAddr: 0x100009A74, symSize: 0x4C }
  - { offset: 0x77229, size: 0x8, addend: 0x0, symName: __ZNSt3__117__compressed_pairIPNS_10unique_ptrIN6spdlog7details14flag_formatterENS_14default_deleteIS4_EEEENS_9allocatorIS7_EEEC1B8de190102IDnNS_18__default_init_tagEEEOT_OT0_, symObjAddr: 0x2410, symBinAddr: 0x100009AC0, symSize: 0x3C }
  - { offset: 0x77280, size: 0x8, addend: 0x0, symName: __ZNSt3__117__compressed_pairIPNS_10unique_ptrIN6spdlog7details14flag_formatterENS_14default_deleteIS4_EEEENS_9allocatorIS7_EEEC2B8de190102IDnNS_18__default_init_tagEEEOT_OT0_, symObjAddr: 0x244C, symBinAddr: 0x100009AFC, symSize: 0x40 }
  - { offset: 0x772D7, size: 0x8, addend: 0x0, symName: __ZNSt3__122__compressed_pair_elemIPNS_10unique_ptrIN6spdlog7details14flag_formatterENS_14default_deleteIS4_EEEELi0ELb0EEC2B8de190102IDnLi0EEEOT_, symObjAddr: 0x248C, symBinAddr: 0x100009B3C, symSize: 0x1C }
  - { offset: 0x7731D, size: 0x8, addend: 0x0, symName: __ZNSt3__122__compressed_pair_elemINS_9allocatorINS_10unique_ptrIN6spdlog7details14flag_formatterENS_14default_deleteIS5_EEEEEELi1ELb1EEC2B8de190102ENS_18__default_init_tagE, symObjAddr: 0x24A8, symBinAddr: 0x100009B58, symSize: 0x2C }
  - { offset: 0x77351, size: 0x8, addend: 0x0, symName: __ZNSt3__19allocatorINS_10unique_ptrIN6spdlog7details14flag_formatterENS_14default_deleteIS4_EEEEEC2B8de190102Ev, symObjAddr: 0x24D4, symBinAddr: 0x100009B84, symSize: 0x2C }
  - { offset: 0x7737A, size: 0x8, addend: 0x0, symName: __ZNSt3__116__non_trivial_ifILb1ENS_9allocatorINS_10unique_ptrIN6spdlog7details14flag_formatterENS_14default_deleteIS5_EEEEEEEC2B8de190102Ev, symObjAddr: 0x2500, symBinAddr: 0x100009BB0, symSize: 0x14 }
  - { offset: 0x773A3, size: 0x8, addend: 0x0, symName: __ZNSt3__16vectorINS_10unique_ptrIN6spdlog7details14flag_formatterENS_14default_deleteIS4_EEEENS_9allocatorIS7_EEE9__end_capB8de190102Ev, symObjAddr: 0x2514, symBinAddr: 0x100009BC4, symSize: 0x28 }
  - { offset: 0x773C8, size: 0x8, addend: 0x0, symName: __ZNSt3__16vectorINS_10unique_ptrIN6spdlog7details14flag_formatterENS_14default_deleteIS4_EEEENS_9allocatorIS7_EEE22__construct_one_at_endB8de190102IJS7_EEEvDpOT_, symObjAddr: 0x253C, symBinAddr: 0x100009BEC, symSize: 0x90 }
  - { offset: 0x77418, size: 0x8, addend: 0x0, symName: __ZNSt3__16vectorINS_10unique_ptrIN6spdlog7details14flag_formatterENS_14default_deleteIS4_EEEENS_9allocatorIS7_EEE21__push_back_slow_pathIS7_EEPS7_OT_, symObjAddr: 0x25CC, symBinAddr: 0x100009C7C, symSize: 0xE8 }
  - { offset: 0x77473, size: 0x8, addend: 0x0, symName: __ZNSt3__117__compressed_pairIPNS_10unique_ptrIN6spdlog7details14flag_formatterENS_14default_deleteIS4_EEEENS_9allocatorIS7_EEE5firstB8de190102Ev, symObjAddr: 0x26B4, symBinAddr: 0x100009D64, symSize: 0x24 }
  - { offset: 0x77498, size: 0x8, addend: 0x0, symName: __ZNSt3__122__compressed_pair_elemIPNS_10unique_ptrIN6spdlog7details14flag_formatterENS_14default_deleteIS4_EEEELi0ELb0EE5__getB8de190102Ev, symObjAddr: 0x26D8, symBinAddr: 0x100009D88, symSize: 0x14 }
  - { offset: 0x774D6, size: 0x8, addend: 0x0, symName: __ZNSt3__16vectorINS_10unique_ptrIN6spdlog7details14flag_formatterENS_14default_deleteIS4_EEEENS_9allocatorIS7_EEE21_ConstructTransactionC1B8de190102ERSA_m, symObjAddr: 0x26EC, symBinAddr: 0x100009D9C, symSize: 0x3C }
  - { offset: 0x7751D, size: 0x8, addend: 0x0, symName: __ZNSt3__116allocator_traitsINS_9allocatorINS_10unique_ptrIN6spdlog7details14flag_formatterENS_14default_deleteIS5_EEEEEEE9constructB8de190102IS8_JS8_ELi0EEEvRS9_PT_DpOT0_, symObjAddr: 0x2728, symBinAddr: 0x100009DD8, symSize: 0x34 }
  - { offset: 0x7757B, size: 0x8, addend: 0x0, symName: __ZNSt3__16vectorINS_10unique_ptrIN6spdlog7details14flag_formatterENS_14default_deleteIS4_EEEENS_9allocatorIS7_EEE7__allocB8de190102Ev, symObjAddr: 0x275C, symBinAddr: 0x100009E0C, symSize: 0x28 }
  - { offset: 0x775A0, size: 0x8, addend: 0x0, symName: __ZNSt3__16vectorINS_10unique_ptrIN6spdlog7details14flag_formatterENS_14default_deleteIS4_EEEENS_9allocatorIS7_EEE21_ConstructTransactionD1B8de190102Ev, symObjAddr: 0x2798, symBinAddr: 0x100009E48, symSize: 0x2C }
  - { offset: 0x775C9, size: 0x8, addend: 0x0, symName: __ZNSt3__16vectorINS_10unique_ptrIN6spdlog7details14flag_formatterENS_14default_deleteIS4_EEEENS_9allocatorIS7_EEE21_ConstructTransactionC2B8de190102ERSA_m, symObjAddr: 0x27C4, symBinAddr: 0x100009E74, symSize: 0x44 }
  - { offset: 0x77610, size: 0x8, addend: 0x0, symName: __ZNSt3__19allocatorINS_10unique_ptrIN6spdlog7details14flag_formatterENS_14default_deleteIS4_EEEEE9constructB8de190102IS7_JS7_EEEvPT_DpOT0_, symObjAddr: 0x2808, symBinAddr: 0x100009EB8, symSize: 0x30 }
  - { offset: 0x77667, size: 0x8, addend: 0x0, symName: __ZNSt3__110unique_ptrIN6spdlog7details14flag_formatterENS_14default_deleteIS3_EEEC1B8de190102EOS6_, symObjAddr: 0x2838, symBinAddr: 0x100009EE8, symSize: 0x34 }
  - { offset: 0x7769E, size: 0x8, addend: 0x0, symName: __ZNSt3__110unique_ptrIN6spdlog7details14flag_formatterENS_14default_deleteIS3_EEEC2B8de190102EOS6_, symObjAddr: 0x286C, symBinAddr: 0x100009F1C, symSize: 0x60 }
  - { offset: 0x776D5, size: 0x8, addend: 0x0, symName: __ZNSt3__110unique_ptrIN6spdlog7details14flag_formatterENS_14default_deleteIS3_EEE7releaseB8de190102Ev, symObjAddr: 0x28CC, symBinAddr: 0x100009F7C, symSize: 0x44 }
  - { offset: 0x77709, size: 0x8, addend: 0x0, symName: __ZNSt3__110unique_ptrIN6spdlog7details14flag_formatterENS_14default_deleteIS3_EEE11get_deleterB8de190102Ev, symObjAddr: 0x2910, symBinAddr: 0x100009FC0, symSize: 0x24 }
  - { offset: 0x77738, size: 0x8, addend: 0x0, symName: __ZNSt3__117__compressed_pairIPN6spdlog7details14flag_formatterENS_14default_deleteIS3_EEEC1B8de190102IS4_S6_EEOT_OT0_, symObjAddr: 0x2934, symBinAddr: 0x100009FE4, symSize: 0x3C }
  - { offset: 0x7778F, size: 0x8, addend: 0x0, symName: __ZNSt3__117__compressed_pairIPN6spdlog7details14flag_formatterENS_14default_deleteIS3_EEE5firstB8de190102Ev, symObjAddr: 0x2970, symBinAddr: 0x10000A020, symSize: 0x24 }
  - { offset: 0x777B4, size: 0x8, addend: 0x0, symName: __ZNSt3__122__compressed_pair_elemIPN6spdlog7details14flag_formatterELi0ELb0EE5__getB8de190102Ev, symObjAddr: 0x2994, symBinAddr: 0x10000A044, symSize: 0x14 }
  - { offset: 0x777D9, size: 0x8, addend: 0x0, symName: __ZNSt3__117__compressed_pairIPN6spdlog7details14flag_formatterENS_14default_deleteIS3_EEE6secondB8de190102Ev, symObjAddr: 0x29A8, symBinAddr: 0x10000A058, symSize: 0x24 }
  - { offset: 0x777FE, size: 0x8, addend: 0x0, symName: __ZNSt3__122__compressed_pair_elemINS_14default_deleteIN6spdlog7details14flag_formatterEEELi1ELb1EE5__getB8de190102Ev, symObjAddr: 0x29CC, symBinAddr: 0x10000A07C, symSize: 0x14 }
  - { offset: 0x77823, size: 0x8, addend: 0x0, symName: __ZNSt3__117__compressed_pairIPN6spdlog7details14flag_formatterENS_14default_deleteIS3_EEEC2B8de190102IS4_S6_EEOT_OT0_, symObjAddr: 0x29E0, symBinAddr: 0x10000A090, symSize: 0x44 }
  - { offset: 0x7787A, size: 0x8, addend: 0x0, symName: __ZNSt3__122__compressed_pair_elemIPN6spdlog7details14flag_formatterELi0ELb0EEC2B8de190102IS4_Li0EEEOT_, symObjAddr: 0x2A24, symBinAddr: 0x10000A0D4, symSize: 0x24 }
  - { offset: 0x778C0, size: 0x8, addend: 0x0, symName: __ZNSt3__122__compressed_pair_elemINS_14default_deleteIN6spdlog7details14flag_formatterEEELi1ELb1EEC2B8de190102IS5_Li0EEEOT_, symObjAddr: 0x2A48, symBinAddr: 0x10000A0F8, symSize: 0x18 }
  - { offset: 0x77906, size: 0x8, addend: 0x0, symName: __ZNSt3__117__compressed_pairIPNS_10unique_ptrIN6spdlog7details14flag_formatterENS_14default_deleteIS4_EEEENS_9allocatorIS7_EEE6secondB8de190102Ev, symObjAddr: 0x2A60, symBinAddr: 0x10000A110, symSize: 0x24 }
  - { offset: 0x7792B, size: 0x8, addend: 0x0, symName: __ZNSt3__122__compressed_pair_elemINS_9allocatorINS_10unique_ptrIN6spdlog7details14flag_formatterENS_14default_deleteIS5_EEEEEELi1ELb1EE5__getB8de190102Ev, symObjAddr: 0x2A84, symBinAddr: 0x10000A134, symSize: 0x14 }
  - { offset: 0x77950, size: 0x8, addend: 0x0, symName: __ZNSt3__16vectorINS_10unique_ptrIN6spdlog7details14flag_formatterENS_14default_deleteIS4_EEEENS_9allocatorIS7_EEE21_ConstructTransactionD2B8de190102Ev, symObjAddr: 0x2A98, symBinAddr: 0x10000A148, symSize: 0x20 }
  - { offset: 0x77979, size: 0x8, addend: 0x0, symName: __ZNKSt3__16vectorINS_10unique_ptrIN6spdlog7details14flag_formatterENS_14default_deleteIS4_EEEENS_9allocatorIS7_EEE11__recommendB8de190102Em, symObjAddr: 0x2AB8, symBinAddr: 0x10000A168, symSize: 0xAC }
  - { offset: 0x779CB, size: 0x8, addend: 0x0, symName: __ZNKSt3__16vectorINS_10unique_ptrIN6spdlog7details14flag_formatterENS_14default_deleteIS4_EEEENS_9allocatorIS7_EEE4sizeB8de190102Ev, symObjAddr: 0x2B64, symBinAddr: 0x10000A214, symSize: 0x28 }
  - { offset: 0x779F0, size: 0x8, addend: 0x0, symName: __ZNSt3__114__split_bufferINS_10unique_ptrIN6spdlog7details14flag_formatterENS_14default_deleteIS4_EEEERNS_9allocatorIS7_EEEC1EmmSA_, symObjAddr: 0x2B8C, symBinAddr: 0x10000A23C, symSize: 0x44 }
  - { offset: 0x77A43, size: 0x8, addend: 0x0, symName: __ZNSt3__16vectorINS_10unique_ptrIN6spdlog7details14flag_formatterENS_14default_deleteIS4_EEEENS_9allocatorIS7_EEE26__swap_out_circular_bufferERNS_14__split_bufferIS7_RS9_EE, symObjAddr: 0x2BD0, symBinAddr: 0x10000A280, symSize: 0x11C }
  - { offset: 0x77A86, size: 0x8, addend: 0x0, symName: __ZNSt3__114__split_bufferINS_10unique_ptrIN6spdlog7details14flag_formatterENS_14default_deleteIS4_EEEERNS_9allocatorIS7_EEED1Ev, symObjAddr: 0x2CEC, symBinAddr: 0x10000A39C, symSize: 0x2C }
  - { offset: 0x77AAF, size: 0x8, addend: 0x0, symName: __ZNKSt3__16vectorINS_10unique_ptrIN6spdlog7details14flag_formatterENS_14default_deleteIS4_EEEENS_9allocatorIS7_EEE8max_sizeEv, symObjAddr: 0x2D18, symBinAddr: 0x10000A3C8, symSize: 0x60 }
  - { offset: 0x77AD4, size: 0x8, addend: 0x0, symName: __ZNKSt3__16vectorINS_10unique_ptrIN6spdlog7details14flag_formatterENS_14default_deleteIS4_EEEENS_9allocatorIS7_EEE20__throw_length_errorB8de190102Ev, symObjAddr: 0x2D78, symBinAddr: 0x10000A428, symSize: 0x1C }
  - { offset: 0x77AF9, size: 0x8, addend: 0x0, symName: __ZNKSt3__16vectorINS_10unique_ptrIN6spdlog7details14flag_formatterENS_14default_deleteIS4_EEEENS_9allocatorIS7_EEE8capacityB8de190102Ev, symObjAddr: 0x2D94, symBinAddr: 0x10000A444, symSize: 0x40 }
  - { offset: 0x77B28, size: 0x8, addend: 0x0, symName: __ZNSt3__116allocator_traitsINS_9allocatorINS_10unique_ptrIN6spdlog7details14flag_formatterENS_14default_deleteIS5_EEEEEEE8max_sizeB8de190102IS9_Li0EEEmRKS9_, symObjAddr: 0x2E2C, symBinAddr: 0x10000A4DC, symSize: 0x24 }
  - { offset: 0x77B5B, size: 0x8, addend: 0x0, symName: __ZNKSt3__16vectorINS_10unique_ptrIN6spdlog7details14flag_formatterENS_14default_deleteIS4_EEEENS_9allocatorIS7_EEE7__allocB8de190102Ev, symObjAddr: 0x2E50, symBinAddr: 0x10000A500, symSize: 0x28 }
  - { offset: 0x77B80, size: 0x8, addend: 0x0, symName: __ZNSt3__114numeric_limitsIlE3maxB8de190102Ev, symObjAddr: 0x2E78, symBinAddr: 0x10000A528, symSize: 0x14 }
  - { offset: 0x77B9E, size: 0x8, addend: 0x0, symName: __ZNKSt3__16__lessIvvEclB8de190102ImmEEbRKT_RKT0_, symObjAddr: 0x2EE0, symBinAddr: 0x10000A590, symSize: 0x30 }
  - { offset: 0x77BF1, size: 0x8, addend: 0x0, symName: __ZNKSt3__19allocatorINS_10unique_ptrIN6spdlog7details14flag_formatterENS_14default_deleteIS4_EEEEE8max_sizeB8de190102Ev, symObjAddr: 0x2F10, symBinAddr: 0x10000A5C0, symSize: 0x14 }
  - { offset: 0x77C16, size: 0x8, addend: 0x0, symName: __ZNKSt3__117__compressed_pairIPNS_10unique_ptrIN6spdlog7details14flag_formatterENS_14default_deleteIS4_EEEENS_9allocatorIS7_EEE6secondB8de190102Ev, symObjAddr: 0x2F24, symBinAddr: 0x10000A5D4, symSize: 0x24 }
  - { offset: 0x77C3B, size: 0x8, addend: 0x0, symName: __ZNKSt3__122__compressed_pair_elemINS_9allocatorINS_10unique_ptrIN6spdlog7details14flag_formatterENS_14default_deleteIS5_EEEEEELi1ELb1EE5__getB8de190102Ev, symObjAddr: 0x2F48, symBinAddr: 0x10000A5F8, symSize: 0x14 }
  - { offset: 0x77C60, size: 0x8, addend: 0x0, symName: __ZNSt3__123__libcpp_numeric_limitsIlLb1EE3maxB8de190102Ev, symObjAddr: 0x2F5C, symBinAddr: 0x10000A60C, symSize: 0x8 }
  - { offset: 0x77C74, size: 0x8, addend: 0x0, symName: __ZNKSt3__16vectorINS_10unique_ptrIN6spdlog7details14flag_formatterENS_14default_deleteIS4_EEEENS_9allocatorIS7_EEE9__end_capB8de190102Ev, symObjAddr: 0x3040, symBinAddr: 0x10000A614, symSize: 0x28 }
  - { offset: 0x77C99, size: 0x8, addend: 0x0, symName: __ZNKSt3__117__compressed_pairIPNS_10unique_ptrIN6spdlog7details14flag_formatterENS_14default_deleteIS4_EEEENS_9allocatorIS7_EEE5firstB8de190102Ev, symObjAddr: 0x3068, symBinAddr: 0x10000A63C, symSize: 0x24 }
  - { offset: 0x77CBE, size: 0x8, addend: 0x0, symName: __ZNKSt3__122__compressed_pair_elemIPNS_10unique_ptrIN6spdlog7details14flag_formatterENS_14default_deleteIS4_EEEELi0ELb0EE5__getB8de190102Ev, symObjAddr: 0x308C, symBinAddr: 0x10000A660, symSize: 0x14 }
  - { offset: 0x77CE3, size: 0x8, addend: 0x0, symName: __ZNSt3__114__split_bufferINS_10unique_ptrIN6spdlog7details14flag_formatterENS_14default_deleteIS4_EEEERNS_9allocatorIS7_EEEC2EmmSA_, symObjAddr: 0x30F4, symBinAddr: 0x10000A6C8, symSize: 0xCC }
  - { offset: 0x77D54, size: 0x8, addend: 0x0, symName: __ZNSt3__117__compressed_pairIPNS_10unique_ptrIN6spdlog7details14flag_formatterENS_14default_deleteIS4_EEEERNS_9allocatorIS7_EEEC1B8de190102IDnSB_EEOT_OT0_, symObjAddr: 0x31C0, symBinAddr: 0x10000A794, symSize: 0x3C }
  - { offset: 0x77DAB, size: 0x8, addend: 0x0, symName: __ZNSt3__114__split_bufferINS_10unique_ptrIN6spdlog7details14flag_formatterENS_14default_deleteIS4_EEEERNS_9allocatorIS7_EEE7__allocB8de190102Ev, symObjAddr: 0x323C, symBinAddr: 0x10000A810, symSize: 0x28 }
  - { offset: 0x77DD0, size: 0x8, addend: 0x0, symName: __ZNSt3__114__split_bufferINS_10unique_ptrIN6spdlog7details14flag_formatterENS_14default_deleteIS4_EEEERNS_9allocatorIS7_EEE9__end_capB8de190102Ev, symObjAddr: 0x3264, symBinAddr: 0x10000A838, symSize: 0x28 }
  - { offset: 0x77DF5, size: 0x8, addend: 0x0, symName: __ZNSt3__117__compressed_pairIPNS_10unique_ptrIN6spdlog7details14flag_formatterENS_14default_deleteIS4_EEEERNS_9allocatorIS7_EEEC2B8de190102IDnSB_EEOT_OT0_, symObjAddr: 0x328C, symBinAddr: 0x10000A860, symSize: 0x48 }
  - { offset: 0x77E4C, size: 0x8, addend: 0x0, symName: __ZNSt3__122__compressed_pair_elemIRNS_9allocatorINS_10unique_ptrIN6spdlog7details14flag_formatterENS_14default_deleteIS5_EEEEEELi1ELb0EEC2B8de190102ISA_Li0EEEOT_, symObjAddr: 0x32D4, symBinAddr: 0x10000A8A8, symSize: 0x20 }
  - { offset: 0x77E92, size: 0x8, addend: 0x0, symName: __ZNSt3__19allocatorINS_10unique_ptrIN6spdlog7details14flag_formatterENS_14default_deleteIS4_EEEEE8allocateB8de190102Em, symObjAddr: 0x32F4, symBinAddr: 0x10000A8C8, symSize: 0x54 }
  - { offset: 0x77EC5, size: 0x8, addend: 0x0, symName: __ZNSt3__117__compressed_pairIPNS_10unique_ptrIN6spdlog7details14flag_formatterENS_14default_deleteIS4_EEEERNS_9allocatorIS7_EEE6secondB8de190102Ev, symObjAddr: 0x33C8, symBinAddr: 0x10000A91C, symSize: 0x28 }
  - { offset: 0x77EEA, size: 0x8, addend: 0x0, symName: __ZNSt3__122__compressed_pair_elemIRNS_9allocatorINS_10unique_ptrIN6spdlog7details14flag_formatterENS_14default_deleteIS5_EEEEEELi1ELb0EE5__getB8de190102Ev, symObjAddr: 0x33F0, symBinAddr: 0x10000A944, symSize: 0x18 }
  - { offset: 0x77F0F, size: 0x8, addend: 0x0, symName: __ZNSt3__117__compressed_pairIPNS_10unique_ptrIN6spdlog7details14flag_formatterENS_14default_deleteIS4_EEEERNS_9allocatorIS7_EEE5firstB8de190102Ev, symObjAddr: 0x3408, symBinAddr: 0x10000A95C, symSize: 0x24 }
  - { offset: 0x77F34, size: 0x8, addend: 0x0, symName: __ZNKSt3__16vectorINS_10unique_ptrIN6spdlog7details14flag_formatterENS_14default_deleteIS4_EEEENS_9allocatorIS7_EEE17__annotate_deleteB8de190102Ev, symObjAddr: 0x342C, symBinAddr: 0x10000A980, symSize: 0x10 }
  - { offset: 0x77F59, size: 0x8, addend: 0x0, symName: __ZNKSt3__16vectorINS_10unique_ptrIN6spdlog7details14flag_formatterENS_14default_deleteIS4_EEEENS_9allocatorIS7_EEE14__annotate_newB8de190102Em, symObjAddr: 0x34C4, symBinAddr: 0x10000AA18, symSize: 0x14 }
  - { offset: 0x77F8D, size: 0x8, addend: 0x0, symName: __ZNSt3__114__split_bufferINS_10unique_ptrIN6spdlog7details14flag_formatterENS_14default_deleteIS4_EEEERNS_9allocatorIS7_EEED2Ev, symObjAddr: 0x34D8, symBinAddr: 0x10000AA2C, symSize: 0x84 }
  - { offset: 0x77FB6, size: 0x8, addend: 0x0, symName: __ZNSt3__114__split_bufferINS_10unique_ptrIN6spdlog7details14flag_formatterENS_14default_deleteIS4_EEEERNS_9allocatorIS7_EEE5clearB8de190102Ev, symObjAddr: 0x355C, symBinAddr: 0x10000AAB0, symSize: 0x28 }
  - { offset: 0x77FDB, size: 0x8, addend: 0x0, symName: __ZNSt3__116allocator_traitsINS_9allocatorINS_10unique_ptrIN6spdlog7details14flag_formatterENS_14default_deleteIS5_EEEEEEE10deallocateB8de190102ERS9_PS8_m, symObjAddr: 0x3584, symBinAddr: 0x10000AAD8, symSize: 0x34 }
  - { offset: 0x7801D, size: 0x8, addend: 0x0, symName: __ZNKSt3__114__split_bufferINS_10unique_ptrIN6spdlog7details14flag_formatterENS_14default_deleteIS4_EEEERNS_9allocatorIS7_EEE8capacityB8de190102Ev, symObjAddr: 0x35B8, symBinAddr: 0x10000AB0C, symSize: 0x40 }
  - { offset: 0x78042, size: 0x8, addend: 0x0, symName: __ZNSt3__114__split_bufferINS_10unique_ptrIN6spdlog7details14flag_formatterENS_14default_deleteIS4_EEEERNS_9allocatorIS7_EEE17__destruct_at_endB8de190102EPS7_, symObjAddr: 0x35F8, symBinAddr: 0x10000AB4C, symSize: 0x2C }
  - { offset: 0x78075, size: 0x8, addend: 0x0, symName: __ZNSt3__114__split_bufferINS_10unique_ptrIN6spdlog7details14flag_formatterENS_14default_deleteIS4_EEEERNS_9allocatorIS7_EEE17__destruct_at_endB8de190102EPS7_NS_17integral_constantIbLb0EEE, symObjAddr: 0x3624, symBinAddr: 0x10000AB78, symSize: 0x7C }
  - { offset: 0x780B3, size: 0x8, addend: 0x0, symName: __ZNSt3__116allocator_traitsINS_9allocatorINS_10unique_ptrIN6spdlog7details14flag_formatterENS_14default_deleteIS5_EEEEEEE7destroyB8de190102IS8_Li0EEEvRS9_PT_, symObjAddr: 0x36A0, symBinAddr: 0x10000ABF4, symSize: 0x2C }
  - { offset: 0x780F5, size: 0x8, addend: 0x0, symName: __ZNSt3__19allocatorINS_10unique_ptrIN6spdlog7details14flag_formatterENS_14default_deleteIS4_EEEEE7destroyB8de190102EPS7_, symObjAddr: 0x36CC, symBinAddr: 0x10000AC20, symSize: 0x28 }
  - { offset: 0x78128, size: 0x8, addend: 0x0, symName: __ZNSt3__19allocatorINS_10unique_ptrIN6spdlog7details14flag_formatterENS_14default_deleteIS4_EEEEE10deallocateB8de190102EPS7_m, symObjAddr: 0x36F4, symBinAddr: 0x10000AC48, symSize: 0x40 }
  - { offset: 0x78169, size: 0x8, addend: 0x0, symName: __ZNKSt3__114__split_bufferINS_10unique_ptrIN6spdlog7details14flag_formatterENS_14default_deleteIS4_EEEERNS_9allocatorIS7_EEE9__end_capB8de190102Ev, symObjAddr: 0x37B0, symBinAddr: 0x10000AC88, symSize: 0x28 }
  - { offset: 0x7818E, size: 0x8, addend: 0x0, symName: __ZNKSt3__117__compressed_pairIPNS_10unique_ptrIN6spdlog7details14flag_formatterENS_14default_deleteIS4_EEEERNS_9allocatorIS7_EEE5firstB8de190102Ev, symObjAddr: 0x37D8, symBinAddr: 0x10000ACB0, symSize: 0x24 }
  - { offset: 0x781B3, size: 0x8, addend: 0x0, symName: __ZN6spdlog7details14full_formatterC1ENS0_12padding_infoE, symObjAddr: 0x37FC, symBinAddr: 0x10000ACD4, symSize: 0x3C }
  - { offset: 0x781EB, size: 0x8, addend: 0x0, symName: __ZNSt3__110unique_ptrIN6spdlog7details14full_formatterENS_14default_deleteIS3_EEEC1B8de190102ILb1EvEEPS3_, symObjAddr: 0x3838, symBinAddr: 0x10000AD10, symSize: 0x34 }
  - { offset: 0x7822E, size: 0x8, addend: 0x0, symName: __ZN6spdlog7details14full_formatterC2ENS0_12padding_infoE, symObjAddr: 0x386C, symBinAddr: 0x10000AD44, symSize: 0xF4 }
  - { offset: 0x78266, size: 0x8, addend: 0x0, symName: __ZN6spdlog7details14flag_formatterC2ENS0_12padding_infoE, symObjAddr: 0x3960, symBinAddr: 0x10000AE38, symSize: 0x34 }
  - { offset: 0x7829D, size: 0x8, addend: 0x0, symName: __ZN6spdlog7details13mdc_formatterINS0_18null_scoped_padderEEC1ENS0_12padding_infoE, symObjAddr: 0x39C8, symBinAddr: 0x10000AE6C, symSize: 0x3C }
  - { offset: 0x782D5, size: 0x8, addend: 0x0, symName: __ZN6spdlog7details14flag_formatterD2Ev, symObjAddr: 0x3A30, symBinAddr: 0x10000AEA8, symSize: 0x14 }
  - { offset: 0x782FE, size: 0x8, addend: 0x0, symName: __ZN6spdlog7details14full_formatterD1Ev, symObjAddr: 0x3A44, symBinAddr: 0x10000AEBC, symSize: 0x2C }
  - { offset: 0x7832A, size: 0x8, addend: 0x0, symName: __ZN6spdlog7details14full_formatterD0Ev, symObjAddr: 0x3A70, symBinAddr: 0x10000AEE8, symSize: 0x30 }
  - { offset: 0x78356, size: 0x8, addend: 0x0, symName: __ZN6spdlog7details14full_formatter6formatERKNS0_7log_msgERK2tmRN3fmt3v1119basic_memory_bufferIcLm250ENS9_6detail9allocatorIcEEEE, symObjAddr: 0x3AA0, symBinAddr: 0x10000AF18, symSize: 0x474 }
  - { offset: 0x78415, size: 0x8, addend: 0x0, symName: __ZN6spdlog7details14flag_formatterD1Ev, symObjAddr: 0x3F14, symBinAddr: 0x10000B38C, symSize: 0x14 }
  - { offset: 0x7843E, size: 0x8, addend: 0x0, symName: __ZN6spdlog7details14flag_formatterD0Ev, symObjAddr: 0x3F28, symBinAddr: 0x10000B3A0, symSize: 0xC }
  - { offset: 0x78467, size: 0x8, addend: 0x0, symName: __ZN6spdlog7details13mdc_formatterINS0_18null_scoped_padderEEC2ENS0_12padding_infoE, symObjAddr: 0x43A0, symBinAddr: 0x10000B3AC, symSize: 0x54 }
  - { offset: 0x7849F, size: 0x8, addend: 0x0, symName: __ZN6spdlog7details13mdc_formatterINS0_18null_scoped_padderEED1Ev, symObjAddr: 0x43F4, symBinAddr: 0x10000B400, symSize: 0x2C }
  - { offset: 0x784CB, size: 0x8, addend: 0x0, symName: __ZN6spdlog7details13mdc_formatterINS0_18null_scoped_padderEED0Ev, symObjAddr: 0x4420, symBinAddr: 0x10000B42C, symSize: 0x30 }
  - { offset: 0x784F7, size: 0x8, addend: 0x0, symName: __ZN6spdlog7details13mdc_formatterINS0_18null_scoped_padderEE6formatERKNS0_7log_msgERK2tmRN3fmt3v1119basic_memory_bufferIcLm250ENSB_6detail9allocatorIcEEEE, symObjAddr: 0x4450, symBinAddr: 0x10000B45C, symSize: 0x78 }
  - { offset: 0x78570, size: 0x8, addend: 0x0, symName: __ZN6spdlog7details13mdc_formatterINS0_18null_scoped_padderEED2Ev, symObjAddr: 0x44C8, symBinAddr: 0x10000B4D4, symSize: 0x2C }
  - { offset: 0x7859C, size: 0x8, addend: 0x0, symName: __ZNKSt3__13mapINS_12basic_stringIcNS_11char_traitsIcEENS_9allocatorIcEEEES6_NS_4lessIS6_EENS4_INS_4pairIKS6_S6_EEEEE5emptyB8de190102Ev, symObjAddr: 0x4584, symBinAddr: 0x10000B590, symSize: 0x30 }
  - { offset: 0x785C1, size: 0x8, addend: 0x0, symName: __ZN6spdlog7details18null_scoped_padderC1EmRKNS0_12padding_infoERN3fmt3v1119basic_memory_bufferIcLm250ENS6_6detail9allocatorIcEEEE, symObjAddr: 0x45B4, symBinAddr: 0x10000B5C0, symSize: 0x44 }
  - { offset: 0x7860B, size: 0x8, addend: 0x0, symName: __ZN6spdlog7details13mdc_formatterINS0_18null_scoped_padderEE10format_mdcERKNSt3__13mapINS4_12basic_stringIcNS4_11char_traitsIcEENS4_9allocatorIcEEEESB_NS4_4lessISB_EENS9_INS4_4pairIKSB_SB_EEEEEERN3fmt3v1119basic_memory_bufferIcLm250ENSM_6detail9allocatorIcEEEE, symObjAddr: 0x45F8, symBinAddr: 0x10000B604, symSize: 0x1A4 }
  - { offset: 0x786D9, size: 0x8, addend: 0x0, symName: __ZNSt3__13mapINS_12basic_stringIcNS_11char_traitsIcEENS_9allocatorIcEEEES6_NS_4lessIS6_EENS4_INS_4pairIKS6_S6_EEEEEC1B8de190102Ev, symObjAddr: 0x479C, symBinAddr: 0x10000B7A8, symSize: 0x2C }
  - { offset: 0x78702, size: 0x8, addend: 0x0, symName: __ZNSt3__13mapINS_12basic_stringIcNS_11char_traitsIcEENS_9allocatorIcEEEES6_NS_4lessIS6_EENS4_INS_4pairIKS6_S6_EEEEED1B8de190102Ev, symObjAddr: 0x47C8, symBinAddr: 0x10000B7D4, symSize: 0x2C }
  - { offset: 0x7872B, size: 0x8, addend: 0x0, symName: __ZNSt3__13mapINS_12basic_stringIcNS_11char_traitsIcEENS_9allocatorIcEEEES6_NS_4lessIS6_EENS4_INS_4pairIKS6_S6_EEEEEC2B8de190102Ev, symObjAddr: 0x47F4, symBinAddr: 0x10000B800, symSize: 0x40 }
  - { offset: 0x78754, size: 0x8, addend: 0x0, symName: __ZNSt3__119__map_value_compareINS_12basic_stringIcNS_11char_traitsIcEENS_9allocatorIcEEEENS_12__value_typeIS6_S6_EENS_4lessIS6_EELb1EEC1B8de190102ESA_, symObjAddr: 0x4834, symBinAddr: 0x10000B840, symSize: 0x2C }
  - { offset: 0x7878C, size: 0x8, addend: 0x0, symName: __ZNSt3__16__treeINS_12__value_typeINS_12basic_stringIcNS_11char_traitsIcEENS_9allocatorIcEEEES7_EENS_19__map_value_compareIS7_S8_NS_4lessIS7_EELb1EEENS5_IS8_EEEC1ERKSC_, symObjAddr: 0x4860, symBinAddr: 0x10000B86C, symSize: 0x34 }
  - { offset: 0x787C4, size: 0x8, addend: 0x0, symName: __ZNSt3__119__map_value_compareINS_12basic_stringIcNS_11char_traitsIcEENS_9allocatorIcEEEENS_12__value_typeIS6_S6_EENS_4lessIS6_EELb1EEC2B8de190102ESA_, symObjAddr: 0x4894, symBinAddr: 0x10000B8A0, symSize: 0x14 }
  - { offset: 0x787FC, size: 0x8, addend: 0x0, symName: __ZNSt3__16__treeINS_12__value_typeINS_12basic_stringIcNS_11char_traitsIcEENS_9allocatorIcEEEES7_EENS_19__map_value_compareIS7_S8_NS_4lessIS7_EELb1EEENS5_IS8_EEEC2ERKSC_, symObjAddr: 0x48A8, symBinAddr: 0x10000B8B4, symSize: 0x7C }
  - { offset: 0x78834, size: 0x8, addend: 0x0, symName: __ZNSt3__117__compressed_pairINS_15__tree_end_nodeIPNS_16__tree_node_baseIPvEEEENS_9allocatorINS_11__tree_nodeINS_12__value_typeINS_12basic_stringIcNS_11char_traitsIcEENS7_IcEEEESE_EES3_EEEEEC1B8de190102ILb1ELi0EEEv, symObjAddr: 0x4924, symBinAddr: 0x10000B930, symSize: 0x2C }
  - { offset: 0x7886D, size: 0x8, addend: 0x0, symName: __ZNSt3__117__compressed_pairImNS_19__map_value_compareINS_12basic_stringIcNS_11char_traitsIcEENS_9allocatorIcEEEENS_12__value_typeIS7_S7_EENS_4lessIS7_EELb1EEEEC1B8de190102IiRKSC_EEOT_OT0_, symObjAddr: 0x4950, symBinAddr: 0x10000B95C, symSize: 0x3C }
  - { offset: 0x788C4, size: 0x8, addend: 0x0, symName: __ZNSt3__16__treeINS_12__value_typeINS_12basic_stringIcNS_11char_traitsIcEENS_9allocatorIcEEEES7_EENS_19__map_value_compareIS7_S8_NS_4lessIS7_EELb1EEENS5_IS8_EEE10__end_nodeB8de190102Ev, symObjAddr: 0x498C, symBinAddr: 0x10000B998, symSize: 0x2C }
  - { offset: 0x788E9, size: 0x8, addend: 0x0, symName: __ZNSt3__16__treeINS_12__value_typeINS_12basic_stringIcNS_11char_traitsIcEENS_9allocatorIcEEEES7_EENS_19__map_value_compareIS7_S8_NS_4lessIS7_EELb1EEENS5_IS8_EEE12__begin_nodeB8de190102Ev, symObjAddr: 0x49B8, symBinAddr: 0x10000B9C4, symSize: 0x14 }
  - { offset: 0x7890E, size: 0x8, addend: 0x0, symName: __ZNSt3__117__compressed_pairINS_15__tree_end_nodeIPNS_16__tree_node_baseIPvEEEENS_9allocatorINS_11__tree_nodeINS_12__value_typeINS_12basic_stringIcNS_11char_traitsIcEENS7_IcEEEESE_EES3_EEEEEC2B8de190102ILb1ELi0EEEv, symObjAddr: 0x49CC, symBinAddr: 0x10000B9D8, symSize: 0x34 }
  - { offset: 0x78947, size: 0x8, addend: 0x0, symName: __ZNSt3__122__compressed_pair_elemINS_15__tree_end_nodeIPNS_16__tree_node_baseIPvEEEELi0ELb0EEC2B8de190102ENS_16__value_init_tagE, symObjAddr: 0x4A00, symBinAddr: 0x10000BA0C, symSize: 0x2C }
  - { offset: 0x7897B, size: 0x8, addend: 0x0, symName: __ZNSt3__122__compressed_pair_elemINS_9allocatorINS_11__tree_nodeINS_12__value_typeINS_12basic_stringIcNS_11char_traitsIcEENS1_IcEEEES8_EEPvEEEELi1ELb1EEC2B8de190102ENS_16__value_init_tagE, symObjAddr: 0x4A2C, symBinAddr: 0x10000BA38, symSize: 0x2C }
  - { offset: 0x789AF, size: 0x8, addend: 0x0, symName: __ZNSt3__115__tree_end_nodeIPNS_16__tree_node_baseIPvEEEC1B8de190102Ev, symObjAddr: 0x4A58, symBinAddr: 0x10000BA64, symSize: 0x2C }
  - { offset: 0x789D8, size: 0x8, addend: 0x0, symName: __ZNSt3__115__tree_end_nodeIPNS_16__tree_node_baseIPvEEEC2B8de190102Ev, symObjAddr: 0x4A84, symBinAddr: 0x10000BA90, symSize: 0x18 }
  - { offset: 0x78A01, size: 0x8, addend: 0x0, symName: __ZNSt3__19allocatorINS_11__tree_nodeINS_12__value_typeINS_12basic_stringIcNS_11char_traitsIcEENS0_IcEEEES7_EEPvEEEC2B8de190102Ev, symObjAddr: 0x4A9C, symBinAddr: 0x10000BAA8, symSize: 0x2C }
  - { offset: 0x78A2A, size: 0x8, addend: 0x0, symName: __ZNSt3__116__non_trivial_ifILb1ENS_9allocatorINS_11__tree_nodeINS_12__value_typeINS_12basic_stringIcNS_11char_traitsIcEENS1_IcEEEES8_EEPvEEEEEC2B8de190102Ev, symObjAddr: 0x4AC8, symBinAddr: 0x10000BAD4, symSize: 0x14 }
  - { offset: 0x78A53, size: 0x8, addend: 0x0, symName: __ZNSt3__117__compressed_pairImNS_19__map_value_compareINS_12basic_stringIcNS_11char_traitsIcEENS_9allocatorIcEEEENS_12__value_typeIS7_S7_EENS_4lessIS7_EELb1EEEEC2B8de190102IiRKSC_EEOT_OT0_, symObjAddr: 0x4ADC, symBinAddr: 0x10000BAE8, symSize: 0x44 }
  - { offset: 0x78AAA, size: 0x8, addend: 0x0, symName: __ZNSt3__122__compressed_pair_elemINS_19__map_value_compareINS_12basic_stringIcNS_11char_traitsIcEENS_9allocatorIcEEEENS_12__value_typeIS7_S7_EENS_4lessIS7_EELb1EEELi1ELb1EEC2B8de190102IRKSC_Li0EEEOT_, symObjAddr: 0x4B20, symBinAddr: 0x10000BB2C, symSize: 0x18 }
  - { offset: 0x78AF0, size: 0x8, addend: 0x0, symName: __ZNSt3__114pointer_traitsIPNS_15__tree_end_nodeIPNS_16__tree_node_baseIPvEEEEE10pointer_toB8de190102ERS6_, symObjAddr: 0x4B38, symBinAddr: 0x10000BB44, symSize: 0x14 }
  - { offset: 0x78B13, size: 0x8, addend: 0x0, symName: __ZNSt3__117__compressed_pairINS_15__tree_end_nodeIPNS_16__tree_node_baseIPvEEEENS_9allocatorINS_11__tree_nodeINS_12__value_typeINS_12basic_stringIcNS_11char_traitsIcEENS7_IcEEEESE_EES3_EEEEE5firstB8de190102Ev, symObjAddr: 0x4B4C, symBinAddr: 0x10000BB58, symSize: 0x24 }
  - { offset: 0x78B38, size: 0x8, addend: 0x0, symName: __ZNSt3__122__compressed_pair_elemINS_15__tree_end_nodeIPNS_16__tree_node_baseIPvEEEELi0ELb0EE5__getB8de190102Ev, symObjAddr: 0x4B70, symBinAddr: 0x10000BB7C, symSize: 0x14 }
  - { offset: 0x78B5D, size: 0x8, addend: 0x0, symName: __ZNSt3__13mapINS_12basic_stringIcNS_11char_traitsIcEENS_9allocatorIcEEEES6_NS_4lessIS6_EENS4_INS_4pairIKS6_S6_EEEEED2B8de190102Ev, symObjAddr: 0x4B84, symBinAddr: 0x10000BB90, symSize: 0x2C }
  - { offset: 0x78B86, size: 0x8, addend: 0x0, symName: __ZNSt3__16__treeINS_12__value_typeINS_12basic_stringIcNS_11char_traitsIcEENS_9allocatorIcEEEES7_EENS_19__map_value_compareIS7_S8_NS_4lessIS7_EELb1EEENS5_IS8_EEED1Ev, symObjAddr: 0x4BB0, symBinAddr: 0x10000BBBC, symSize: 0x2C }
  - { offset: 0x78BAF, size: 0x8, addend: 0x0, symName: __ZNSt3__16__treeINS_12__value_typeINS_12basic_stringIcNS_11char_traitsIcEENS_9allocatorIcEEEES7_EENS_19__map_value_compareIS7_S8_NS_4lessIS7_EELb1EEENS5_IS8_EEED2Ev, symObjAddr: 0x4BDC, symBinAddr: 0x10000BBE8, symSize: 0x38 }
  - { offset: 0x78BD8, size: 0x8, addend: 0x0, symName: __ZNSt3__16__treeINS_12__value_typeINS_12basic_stringIcNS_11char_traitsIcEENS_9allocatorIcEEEES7_EENS_19__map_value_compareIS7_S8_NS_4lessIS7_EELb1EEENS5_IS8_EEE7destroyEPNS_11__tree_nodeIS8_PvEE, symObjAddr: 0x4C14, symBinAddr: 0x10000BC20, symSize: 0xA4 }
  - { offset: 0x78C21, size: 0x8, addend: 0x0, symName: __ZNKSt3__16__treeINS_12__value_typeINS_12basic_stringIcNS_11char_traitsIcEENS_9allocatorIcEEEES7_EENS_19__map_value_compareIS7_S8_NS_4lessIS7_EELb1EEENS5_IS8_EEE6__rootB8de190102Ev, symObjAddr: 0x4CB8, symBinAddr: 0x10000BCC4, symSize: 0x28 }
  - { offset: 0x78C46, size: 0x8, addend: 0x0, symName: __ZNSt3__16__treeINS_12__value_typeINS_12basic_stringIcNS_11char_traitsIcEENS_9allocatorIcEEEES7_EENS_19__map_value_compareIS7_S8_NS_4lessIS7_EELb1EEENS5_IS8_EEE12__node_allocB8de190102Ev, symObjAddr: 0x4CE0, symBinAddr: 0x10000BCEC, symSize: 0x28 }
  - { offset: 0x78C6B, size: 0x8, addend: 0x0, symName: __ZNSt3__116allocator_traitsINS_9allocatorINS_11__tree_nodeINS_12__value_typeINS_12basic_stringIcNS_11char_traitsIcEENS1_IcEEEES8_EEPvEEEEE7destroyB8de190102INS_4pairIKS8_S8_EEvLi0EEEvRSC_PT_, symObjAddr: 0x4D08, symBinAddr: 0x10000BD14, symSize: 0x28 }
  - { offset: 0x78CAC, size: 0x8, addend: 0x0, symName: __ZNSt3__122__tree_key_value_typesINS_12__value_typeINS_12basic_stringIcNS_11char_traitsIcEENS_9allocatorIcEEEES7_EEE9__get_ptrB8de190102ERS8_, symObjAddr: 0x4D30, symBinAddr: 0x10000BD3C, symSize: 0x24 }
  - { offset: 0x78CD0, size: 0x8, addend: 0x0, symName: __ZNSt3__116allocator_traitsINS_9allocatorINS_11__tree_nodeINS_12__value_typeINS_12basic_stringIcNS_11char_traitsIcEENS1_IcEEEES8_EEPvEEEEE10deallocateB8de190102ERSC_PSB_m, symObjAddr: 0x4D54, symBinAddr: 0x10000BD60, symSize: 0x34 }
  - { offset: 0x78D12, size: 0x8, addend: 0x0, symName: __ZNSt3__117__compressed_pairINS_15__tree_end_nodeIPNS_16__tree_node_baseIPvEEEENS_9allocatorINS_11__tree_nodeINS_12__value_typeINS_12basic_stringIcNS_11char_traitsIcEENS7_IcEEEESE_EES3_EEEEE6secondB8de190102Ev, symObjAddr: 0x4D88, symBinAddr: 0x10000BD94, symSize: 0x24 }
  - { offset: 0x78D37, size: 0x8, addend: 0x0, symName: __ZNSt3__122__compressed_pair_elemINS_9allocatorINS_11__tree_nodeINS_12__value_typeINS_12basic_stringIcNS_11char_traitsIcEENS1_IcEEEES8_EEPvEEEELi1ELb1EE5__getB8de190102Ev, symObjAddr: 0x4DAC, symBinAddr: 0x10000BDB8, symSize: 0x14 }
  - { offset: 0x78D5B, size: 0x8, addend: 0x0, symName: __ZNSt3__14pairIKNS_12basic_stringIcNS_11char_traitsIcEENS_9allocatorIcEEEES6_ED1Ev, symObjAddr: 0x4DF8, symBinAddr: 0x10000BE04, symSize: 0x2C }
  - { offset: 0x78D85, size: 0x8, addend: 0x0, symName: __ZNSt3__14pairIKNS_12basic_stringIcNS_11char_traitsIcEENS_9allocatorIcEEEES6_ED2Ev, symObjAddr: 0x4E24, symBinAddr: 0x10000BE30, symSize: 0x38 }
  - { offset: 0x78DB0, size: 0x8, addend: 0x0, symName: __ZNSt3__112__value_typeINS_12basic_stringIcNS_11char_traitsIcEENS_9allocatorIcEEEES6_E11__get_valueB8de190102Ev, symObjAddr: 0x4E5C, symBinAddr: 0x10000BE68, symSize: 0x14 }
  - { offset: 0x78DD5, size: 0x8, addend: 0x0, symName: __ZNSt3__19allocatorINS_11__tree_nodeINS_12__value_typeINS_12basic_stringIcNS_11char_traitsIcEENS0_IcEEEES7_EEPvEEE10deallocateB8de190102EPSA_m, symObjAddr: 0x4E70, symBinAddr: 0x10000BE7C, symSize: 0x44 }
  - { offset: 0x78E16, size: 0x8, addend: 0x0, symName: __ZNKSt3__16__treeINS_12__value_typeINS_12basic_stringIcNS_11char_traitsIcEENS_9allocatorIcEEEES7_EENS_19__map_value_compareIS7_S8_NS_4lessIS7_EELb1EEENS5_IS8_EEE10__end_nodeB8de190102Ev, symObjAddr: 0x4EB4, symBinAddr: 0x10000BEC0, symSize: 0x2C }
  - { offset: 0x78E3B, size: 0x8, addend: 0x0, symName: __ZNKSt3__117__compressed_pairINS_15__tree_end_nodeIPNS_16__tree_node_baseIPvEEEENS_9allocatorINS_11__tree_nodeINS_12__value_typeINS_12basic_stringIcNS_11char_traitsIcEENS7_IcEEEESE_EES3_EEEEE5firstB8de190102Ev, symObjAddr: 0x4EE0, symBinAddr: 0x10000BEEC, symSize: 0x24 }
  - { offset: 0x78E60, size: 0x8, addend: 0x0, symName: __ZNKSt3__122__compressed_pair_elemINS_15__tree_end_nodeIPNS_16__tree_node_baseIPvEEEELi0ELb0EE5__getB8de190102Ev, symObjAddr: 0x4F04, symBinAddr: 0x10000BF10, symSize: 0x14 }
  - { offset: 0x78E85, size: 0x8, addend: 0x0, symName: __ZNKSt3__16__treeINS_12__value_typeINS_12basic_stringIcNS_11char_traitsIcEENS_9allocatorIcEEEES7_EENS_19__map_value_compareIS7_S8_NS_4lessIS7_EELb1EEENS5_IS8_EEE4sizeB8de190102Ev, symObjAddr: 0x4F18, symBinAddr: 0x10000BF24, symSize: 0x28 }
  - { offset: 0x78EAA, size: 0x8, addend: 0x0, symName: __ZNKSt3__117__compressed_pairImNS_19__map_value_compareINS_12basic_stringIcNS_11char_traitsIcEENS_9allocatorIcEEEENS_12__value_typeIS7_S7_EENS_4lessIS7_EELb1EEEE5firstB8de190102Ev, symObjAddr: 0x4F40, symBinAddr: 0x10000BF4C, symSize: 0x24 }
  - { offset: 0x78ECF, size: 0x8, addend: 0x0, symName: __ZNKSt3__122__compressed_pair_elemImLi0ELb0EE5__getB8de190102Ev, symObjAddr: 0x4F64, symBinAddr: 0x10000BF70, symSize: 0x14 }
  - { offset: 0x78EF4, size: 0x8, addend: 0x0, symName: __ZN6spdlog7details18null_scoped_padderC2EmRKNS0_12padding_infoERN3fmt3v1119basic_memory_bufferIcLm250ENS6_6detail9allocatorIcEEEE, symObjAddr: 0x4F78, symBinAddr: 0x10000BF84, symSize: 0x20 }
  - { offset: 0x78F3E, size: 0x8, addend: 0x0, symName: __ZNKSt3__13mapINS_12basic_stringIcNS_11char_traitsIcEENS_9allocatorIcEEEES6_NS_4lessIS6_EENS4_INS_4pairIKS6_S6_EEEEE3endB8de190102Ev, symObjAddr: 0x4F98, symBinAddr: 0x10000BFA4, symSize: 0x38 }
  - { offset: 0x78F63, size: 0x8, addend: 0x0, symName: __ZNSt3__120__map_const_iteratorINS_21__tree_const_iteratorINS_12__value_typeINS_12basic_stringIcNS_11char_traitsIcEENS_9allocatorIcEEEES8_EEPNS_11__tree_nodeIS9_PvEElEEEmmB8de190102Ev, symObjAddr: 0x4FD0, symBinAddr: 0x10000BFDC, symSize: 0x2C }
  - { offset: 0x78F88, size: 0x8, addend: 0x0, symName: __ZNKSt3__13mapINS_12basic_stringIcNS_11char_traitsIcEENS_9allocatorIcEEEES6_NS_4lessIS6_EENS4_INS_4pairIKS6_S6_EEEEE5beginB8de190102Ev, symObjAddr: 0x4FFC, symBinAddr: 0x10000C008, symSize: 0x38 }
  - { offset: 0x78FAD, size: 0x8, addend: 0x0, symName: __ZNKSt3__120__map_const_iteratorINS_21__tree_const_iteratorINS_12__value_typeINS_12basic_stringIcNS_11char_traitsIcEENS_9allocatorIcEEEES8_EEPNS_11__tree_nodeIS9_PvEElEEEdeB8de190102Ev, symObjAddr: 0x5060, symBinAddr: 0x10000C06C, symSize: 0x28 }
  - { offset: 0x78FD2, size: 0x8, addend: 0x0, symName: __ZNSt3__120__map_const_iteratorINS_21__tree_const_iteratorINS_12__value_typeINS_12basic_stringIcNS_11char_traitsIcEENS_9allocatorIcEEEES8_EEPNS_11__tree_nodeIS9_PvEElEEEppB8de190102Ev, symObjAddr: 0x51B8, symBinAddr: 0x10000C108, symSize: 0x2C }
  - { offset: 0x78FF7, size: 0x8, addend: 0x0, symName: __ZNKSt3__16__treeINS_12__value_typeINS_12basic_stringIcNS_11char_traitsIcEENS_9allocatorIcEEEES7_EENS_19__map_value_compareIS7_S8_NS_4lessIS7_EELb1EEENS5_IS8_EEE3endB8de190102Ev, symObjAddr: 0x51E4, symBinAddr: 0x10000C134, symSize: 0x34 }
  - { offset: 0x7901C, size: 0x8, addend: 0x0, symName: __ZNSt3__120__map_const_iteratorINS_21__tree_const_iteratorINS_12__value_typeINS_12basic_stringIcNS_11char_traitsIcEENS_9allocatorIcEEEES8_EEPNS_11__tree_nodeIS9_PvEElEEEC1B8de190102ESE_, symObjAddr: 0x5218, symBinAddr: 0x10000C168, symSize: 0x34 }
  - { offset: 0x79054, size: 0x8, addend: 0x0, symName: __ZNSt3__121__tree_const_iteratorINS_12__value_typeINS_12basic_stringIcNS_11char_traitsIcEENS_9allocatorIcEEEES7_EEPNS_11__tree_nodeIS8_PvEElEC1B8de190102EPNS_15__tree_end_nodeIPNS_16__tree_node_baseISA_EEEE, symObjAddr: 0x524C, symBinAddr: 0x10000C19C, symSize: 0x34 }
  - { offset: 0x7908C, size: 0x8, addend: 0x0, symName: __ZNSt3__121__tree_const_iteratorINS_12__value_typeINS_12basic_stringIcNS_11char_traitsIcEENS_9allocatorIcEEEES7_EEPNS_11__tree_nodeIS8_PvEElEC2B8de190102EPNS_15__tree_end_nodeIPNS_16__tree_node_baseISA_EEEE, symObjAddr: 0x5280, symBinAddr: 0x10000C1D0, symSize: 0x20 }
  - { offset: 0x790C4, size: 0x8, addend: 0x0, symName: __ZNSt3__120__map_const_iteratorINS_21__tree_const_iteratorINS_12__value_typeINS_12basic_stringIcNS_11char_traitsIcEENS_9allocatorIcEEEES8_EEPNS_11__tree_nodeIS9_PvEElEEEC2B8de190102ESE_, symObjAddr: 0x52A0, symBinAddr: 0x10000C1F0, symSize: 0x20 }
  - { offset: 0x790FC, size: 0x8, addend: 0x0, symName: __ZNSt3__121__tree_const_iteratorINS_12__value_typeINS_12basic_stringIcNS_11char_traitsIcEENS_9allocatorIcEEEES7_EEPNS_11__tree_nodeIS8_PvEElEmmB8de190102Ev, symObjAddr: 0x52C0, symBinAddr: 0x10000C210, symSize: 0x38 }
  - { offset: 0x79121, size: 0x8, addend: 0x0, symName: __ZNKSt3__116__tree_node_baseIPvE15__parent_unsafeB8de190102Ev, symObjAddr: 0x5428, symBinAddr: 0x10000C378, symSize: 0x18 }
  - { offset: 0x79146, size: 0x8, addend: 0x0, symName: __ZNKSt3__16__treeINS_12__value_typeINS_12basic_stringIcNS_11char_traitsIcEENS_9allocatorIcEEEES7_EENS_19__map_value_compareIS7_S8_NS_4lessIS7_EELb1EEENS5_IS8_EEE5beginB8de190102Ev, symObjAddr: 0x5440, symBinAddr: 0x10000C390, symSize: 0x34 }
  - { offset: 0x7916B, size: 0x8, addend: 0x0, symName: __ZNKSt3__16__treeINS_12__value_typeINS_12basic_stringIcNS_11char_traitsIcEENS_9allocatorIcEEEES7_EENS_19__map_value_compareIS7_S8_NS_4lessIS7_EELb1EEENS5_IS8_EEE12__begin_nodeB8de190102Ev, symObjAddr: 0x5474, symBinAddr: 0x10000C3C4, symSize: 0x14 }
  - { offset: 0x79190, size: 0x8, addend: 0x0, symName: __ZNKSt3__121__tree_const_iteratorINS_12__value_typeINS_12basic_stringIcNS_11char_traitsIcEENS_9allocatorIcEEEES7_EEPNS_11__tree_nodeIS8_PvEElEptB8de190102Ev, symObjAddr: 0x54E4, symBinAddr: 0x10000C434, symSize: 0x2C }
  - { offset: 0x791B5, size: 0x8, addend: 0x0, symName: __ZNKSt3__112__value_typeINS_12basic_stringIcNS_11char_traitsIcEENS_9allocatorIcEEEES6_E11__get_valueB8de190102Ev, symObjAddr: 0x5510, symBinAddr: 0x10000C460, symSize: 0x14 }
  - { offset: 0x791DA, size: 0x8, addend: 0x0, symName: __ZNSt3__114pointer_traitsIPKNS_12__value_typeINS_12basic_stringIcNS_11char_traitsIcEENS_9allocatorIcEEEES7_EEE10pointer_toB8de190102ERS9_, symObjAddr: 0x5524, symBinAddr: 0x10000C474, symSize: 0x14 }
  - { offset: 0x791FD, size: 0x8, addend: 0x0, symName: __ZNKSt3__121__tree_const_iteratorINS_12__value_typeINS_12basic_stringIcNS_11char_traitsIcEENS_9allocatorIcEEEES7_EEPNS_11__tree_nodeIS8_PvEElE8__get_npB8de190102Ev, symObjAddr: 0x5538, symBinAddr: 0x10000C488, symSize: 0x18 }
  - { offset: 0x79222, size: 0x8, addend: 0x0, symName: __ZNK3fmt3v1117basic_string_viewIcE4dataEv, symObjAddr: 0x563C, symBinAddr: 0x10000C4A0, symSize: 0x18 }
  - { offset: 0x79247, size: 0x8, addend: 0x0, symName: __ZNSt3__121__tree_const_iteratorINS_12__value_typeINS_12basic_stringIcNS_11char_traitsIcEENS_9allocatorIcEEEES7_EEPNS_11__tree_nodeIS8_PvEElEppB8de190102Ev, symObjAddr: 0x59C0, symBinAddr: 0x10000C4B8, symSize: 0x38 }
  - { offset: 0x7926C, size: 0x8, addend: 0x0, symName: __ZN6spdlog7details14full_formatterD2Ev, symObjAddr: 0x5B84, symBinAddr: 0x10000C5D4, symSize: 0x44 }
  - { offset: 0x79298, size: 0x8, addend: 0x0, symName: __ZNKSt3__16chrono10time_pointINS0_12system_clockENS0_8durationIxNS_5ratioILl1ELl1000000EEEEEE16time_since_epochB8de190102Ev, symObjAddr: 0x5BC8, symBinAddr: 0x10000C618, symSize: 0x20 }
  - { offset: 0x792BD, size: 0x8, addend: 0x0, symName: __ZN3fmt3v116detail6bufferIcE9push_backERKc, symObjAddr: 0x5C60, symBinAddr: 0x10000C698, symSize: 0x58 }
  - { offset: 0x7949E, size: 0x8, addend: 0x0, symName: __ZN3fmt3v116detail6bufferIcE5beginEv, symObjAddr: 0x5F1C, symBinAddr: 0x10000C954, symSize: 0x18 }
  - { offset: 0x794C3, size: 0x8, addend: 0x0, symName: __ZN3fmt3v116detail6bufferIcE3endEv, symObjAddr: 0x5F34, symBinAddr: 0x10000C96C, symSize: 0x20 }
  - { offset: 0x794E8, size: 0x8, addend: 0x0, symName: __ZNKSt3__16chrono8durationIxNS_5ratioILl1ELl1000EEEE5countB8de190102Ev, symObjAddr: 0x60A8, symBinAddr: 0x10000CAE0, symSize: 0x18 }
  - { offset: 0x7950D, size: 0x8, addend: 0x0, symName: __ZNK6spdlog10source_loc5emptyEv, symObjAddr: 0x60E0, symBinAddr: 0x10000CB18, symSize: 0x20 }
  - { offset: 0x79532, size: 0x8, addend: 0x0, symName: __ZN6spdlog7details24short_filename_formatterINS0_18null_scoped_padderEE8basenameEPKc, symObjAddr: 0x6100, symBinAddr: 0x10000CB38, symSize: 0x5C }
  - { offset: 0x79574, size: 0x8, addend: 0x0, symName: __ZNKSt3__16chrono8durationIxNS_5ratioILl1ELl1000000EEEE5countB8de190102Ev, symObjAddr: 0x61A4, symBinAddr: 0x10000CBDC, symSize: 0x18 }
  - { offset: 0x795A3, size: 0x8, addend: 0x0, symName: __ZNSt3__16chrono8durationIxNS_5ratioILl1ELl1EEEEC1B8de190102IxLi0EEERKT_, symObjAddr: 0x61BC, symBinAddr: 0x10000CBF4, symSize: 0x34 }
  - { offset: 0x795E9, size: 0x8, addend: 0x0, symName: __ZNSt3__16chrono8durationIxNS_5ratioILl1ELl1EEEEC2B8de190102IxLi0EEERKT_, symObjAddr: 0x61F0, symBinAddr: 0x10000CC28, symSize: 0x24 }
  - { offset: 0x79639, size: 0x8, addend: 0x0, symName: __ZNKSt3__16chrono13__duration_eqINS0_8durationIxNS_5ratioILl1ELl1EEEEES5_EclB8de190102ERKS5_S8_, symObjAddr: 0x6244, symBinAddr: 0x10000CC7C, symSize: 0x48 }
  - { offset: 0x7967C, size: 0x8, addend: 0x0, symName: __ZNKSt3__16chrono8durationIxNS_5ratioILl1ELl1EEEE5countB8de190102Ev, symObjAddr: 0x628C, symBinAddr: 0x10000CCC4, symSize: 0x18 }
  - { offset: 0x796A1, size: 0x8, addend: 0x0, symName: __ZN3fmt3v1110format_intC1Ei, symObjAddr: 0x62A4, symBinAddr: 0x10000CCDC, symSize: 0x34 }
  - { offset: 0x796D9, size: 0x8, addend: 0x0, symName: __ZNK3fmt3v1110format_int4dataEv, symObjAddr: 0x62D8, symBinAddr: 0x10000CD10, symSize: 0x18 }
  - { offset: 0x796FE, size: 0x8, addend: 0x0, symName: __ZNK3fmt3v1110format_int4sizeEv, symObjAddr: 0x62F0, symBinAddr: 0x10000CD28, symSize: 0x34 }
  - { offset: 0x79723, size: 0x8, addend: 0x0, symName: __ZN3fmt3v1110format_intC2Ei, symObjAddr: 0x6324, symBinAddr: 0x10000CD5C, symSize: 0x3C }
  - { offset: 0x7975B, size: 0x8, addend: 0x0, symName: __ZN3fmt3v1110format_int13format_signedIiEEPcT_, symObjAddr: 0x6360, symBinAddr: 0x10000CD98, symSize: 0x9C }
  - { offset: 0x797C5, size: 0x8, addend: 0x0, symName: __ZN3fmt3v1110format_int15format_unsignedIjEEPcT_, symObjAddr: 0x63FC, symBinAddr: 0x10000CE34, symSize: 0x38 }
  - { offset: 0x7984F, size: 0x8, addend: 0x0, symName: __ZN3fmt3v116detail10locale_refC1Ev, symObjAddr: 0x6B34, symBinAddr: 0x10000D56C, symSize: 0x2C }
  - { offset: 0x79878, size: 0x8, addend: 0x0, symName: __ZZN3fmt3v116detail13get_containerINSt3__120back_insert_iteratorINS0_19basic_memory_bufferIcLm250ENS1_9allocatorIcEEEEEEEERNT_14container_typeESA_EN8accessorC1ES9_, symObjAddr: 0x6BB4, symBinAddr: 0x10000D5EC, symSize: 0x34 }
  - { offset: 0x798B0, size: 0x8, addend: 0x0, symName: __ZZN3fmt3v116detail13get_containerINSt3__120back_insert_iteratorINS0_19basic_memory_bufferIcLm250ENS1_9allocatorIcEEEEEEEERNT_14container_typeESA_EN8accessorC2ES9_, symObjAddr: 0x6BE8, symBinAddr: 0x10000D620, symSize: 0x20 }
  - { offset: 0x798E8, size: 0x8, addend: 0x0, symName: __ZN3fmt3v1114basic_appenderIcEC1ERNS0_6detail6bufferIcEE, symObjAddr: 0x6C08, symBinAddr: 0x10000D640, symSize: 0x34 }
  - { offset: 0x79920, size: 0x8, addend: 0x0, symName: __ZNK3fmt3v1117basic_format_argsINS0_7contextEE3getEi, symObjAddr: 0x6C74, symBinAddr: 0x10000D6AC, symSize: 0xE8 }
  - { offset: 0x799A5, size: 0x8, addend: 0x0, symName: __ZN3fmt3v1113parse_contextIcEC1ENS0_17basic_string_viewIcEEi, symObjAddr: 0x76D8, symBinAddr: 0x10000E110, symSize: 0x44 }
  - { offset: 0x799EC, size: 0x8, addend: 0x0, symName: __ZN3fmt3v117contextC1ENS0_14basic_appenderIcEENS0_17basic_format_argsIS1_EENS0_6detail10locale_refE, symObjAddr: 0x771C, symBinAddr: 0x10000E154, symSize: 0x4C }
  - { offset: 0x79A42, size: 0x8, addend: 0x0, symName: __ZN3fmt3v1114basic_appenderIcEC2ERNS0_6detail6bufferIcEE, symObjAddr: 0x7768, symBinAddr: 0x10000E1A0, symSize: 0x20 }
  - { offset: 0x79A7A, size: 0x8, addend: 0x0, symName: __ZN3fmt3v1116basic_format_argINS0_7contextEEC1Ev, symObjAddr: 0x7788, symBinAddr: 0x10000E1C0, symSize: 0x2C }
  - { offset: 0x79AA3, size: 0x8, addend: 0x0, symName: __ZNK3fmt3v1117basic_format_argsINS0_7contextEE9is_packedEv, symObjAddr: 0x77B4, symBinAddr: 0x10000E1EC, symSize: 0x20 }
  - { offset: 0x79AC8, size: 0x8, addend: 0x0, symName: __ZNK3fmt3v1117basic_format_argsINS0_7contextEE8max_sizeEv, symObjAddr: 0x77D4, symBinAddr: 0x10000E20C, symSize: 0x60 }
  - { offset: 0x79AFC, size: 0x8, addend: 0x0, symName: __ZNK3fmt3v1117basic_format_argsINS0_7contextEE4typeEi, symObjAddr: 0x7834, symBinAddr: 0x10000E26C, symSize: 0x44 }
  - { offset: 0x79B82, size: 0x8, addend: 0x0, symName: __ZN3fmt3v1116basic_format_argINS0_7contextEEC2Ev, symObjAddr: 0x7878, symBinAddr: 0x10000E2B0, symSize: 0x40 }
  - { offset: 0x79BEB, size: 0x8, addend: 0x0, symName: __ZN3fmt3v119monostateC1Ev, symObjAddr: 0x78B8, symBinAddr: 0x10000E2F0, symSize: 0x2C }
  - { offset: 0x79C14, size: 0x8, addend: 0x0, symName: __ZN3fmt3v119monostateC2Ev, symObjAddr: 0x78E4, symBinAddr: 0x10000E31C, symSize: 0x14 }
  - { offset: 0x79C3D, size: 0x8, addend: 0x0, symName: __ZN3fmt3v116detail21default_arg_formatterIcEclIiLi0EEEvT_, symObjAddr: 0x78F8, symBinAddr: 0x10000E330, symSize: 0x3C }
  - { offset: 0x79C80, size: 0x8, addend: 0x0, symName: __ZN3fmt3v116detail21default_arg_formatterIcEclIjLi0EEEvT_, symObjAddr: 0x7934, symBinAddr: 0x10000E36C, symSize: 0x3C }
  - { offset: 0x79CC3, size: 0x8, addend: 0x0, symName: __ZN3fmt3v116detail21default_arg_formatterIcEclIxLi0EEEvT_, symObjAddr: 0x7970, symBinAddr: 0x10000E3A8, symSize: 0x3C }
  - { offset: 0x79D06, size: 0x8, addend: 0x0, symName: __ZN3fmt3v116detail21default_arg_formatterIcEclIyLi0EEEvT_, symObjAddr: 0x79AC, symBinAddr: 0x10000E3E4, symSize: 0x3C }
  - { offset: 0x79D49, size: 0x8, addend: 0x0, symName: __ZN3fmt3v116detail21default_arg_formatterIcEclInLi0EEEvT_, symObjAddr: 0x79E8, symBinAddr: 0x10000E420, symSize: 0x54 }
  - { offset: 0x79D8C, size: 0x8, addend: 0x0, symName: __ZN3fmt3v116detail21default_arg_formatterIcEclIoLi0EEEvT_, symObjAddr: 0x7A68, symBinAddr: 0x10000E4A0, symSize: 0x54 }
  - { offset: 0x79DCF, size: 0x8, addend: 0x0, symName: __ZN3fmt3v116detail21default_arg_formatterIcEclIbLi0EEEvT_, symObjAddr: 0x7AE8, symBinAddr: 0x10000E520, symSize: 0x64 }
  - { offset: 0x79E12, size: 0x8, addend: 0x0, symName: __ZN3fmt3v116detail21default_arg_formatterIcEclIcLi0EEEvT_, symObjAddr: 0x7B4C, symBinAddr: 0x10000E584, symSize: 0x3C }
  - { offset: 0x79E55, size: 0x8, addend: 0x0, symName: __ZN3fmt3v116detail21default_arg_formatterIcEclIfLi0EEEvT_, symObjAddr: 0x7B88, symBinAddr: 0x10000E5C0, symSize: 0x3C }
  - { offset: 0x79E98, size: 0x8, addend: 0x0, symName: __ZN3fmt3v116detail21default_arg_formatterIcEclIdLi0EEEvT_, symObjAddr: 0x7BC4, symBinAddr: 0x10000E5FC, symSize: 0x3C }
  - { offset: 0x79EDB, size: 0x8, addend: 0x0, symName: __ZN3fmt3v116detail21default_arg_formatterIcEclIeLi0EEEvT_, symObjAddr: 0x7C00, symBinAddr: 0x10000E638, symSize: 0x3C }
  - { offset: 0x79F1E, size: 0x8, addend: 0x0, symName: __ZN3fmt3v116detail21default_arg_formatterIcEclIPKcLi0EEEvT_, symObjAddr: 0x7C3C, symBinAddr: 0x10000E674, symSize: 0x3C }
  - { offset: 0x79F61, size: 0x8, addend: 0x0, symName: __ZN3fmt3v116detail21default_arg_formatterIcEclINS0_17basic_string_viewIcEELi0EEEvT_, symObjAddr: 0x7C78, symBinAddr: 0x10000E6B0, symSize: 0x4C }
  - { offset: 0x79FA4, size: 0x8, addend: 0x0, symName: __ZNK3fmt3v116detail12string_valueIcE3strEv, symObjAddr: 0x7CC4, symBinAddr: 0x10000E6FC, symSize: 0x38 }
  - { offset: 0x79FC9, size: 0x8, addend: 0x0, symName: __ZN3fmt3v116detail21default_arg_formatterIcEclIPKvLi0EEEvT_, symObjAddr: 0x7CFC, symBinAddr: 0x10000E734, symSize: 0x60 }
  - { offset: 0x7A00C, size: 0x8, addend: 0x0, symName: __ZN3fmt3v116detail21default_arg_formatterIcEclENS0_16basic_format_argINS0_7contextEE6handleE, symObjAddr: 0x7D5C, symBinAddr: 0x10000E794, symSize: 0x9C }
  - { offset: 0x7A05F, size: 0x8, addend: 0x0, symName: __ZN3fmt3v1116basic_format_argINS0_7contextEE6handleC1ENS0_6detail12custom_valueIS2_EE, symObjAddr: 0x7DF8, symBinAddr: 0x10000E830, symSize: 0x3C }
  - { offset: 0x7A097, size: 0x8, addend: 0x0, symName: __ZN3fmt3v116detail21default_arg_formatterIcEclENS0_9monostateE, symObjAddr: 0x7E34, symBinAddr: 0x10000E86C, symSize: 0x1C }
  - { offset: 0x7A0C8, size: 0x8, addend: 0x0, symName: __ZN3fmt3v1114basic_appenderIcEppEi, symObjAddr: 0x807C, symBinAddr: 0x10000EAB4, symSize: 0x24 }
  - { offset: 0x7A0F9, size: 0x8, addend: 0x0, symName: __ZN3fmt3v1114basic_appenderIcEdeEv, symObjAddr: 0x80A0, symBinAddr: 0x10000EAD8, symSize: 0x14 }
  - { offset: 0x7A11E, size: 0x8, addend: 0x0, symName: __ZN3fmt3v1114basic_appenderIcEaSEc, symObjAddr: 0x80B4, symBinAddr: 0x10000EAEC, symSize: 0x3C }
  - { offset: 0x7A152, size: 0x8, addend: 0x0, symName: __ZZN3fmt3v116detail13get_containerINS0_14basic_appenderIcEEEERNT_14container_typeES5_EN8accessorC1ES4_, symObjAddr: 0x8254, symBinAddr: 0x10000EC44, symSize: 0x34 }
  - { offset: 0x7A18A, size: 0x8, addend: 0x0, symName: __ZZN3fmt3v116detail13get_containerINS0_14basic_appenderIcEEEERNT_14container_typeES5_EN8accessorC2ES4_, symObjAddr: 0x8288, symBinAddr: 0x10000EC78, symSize: 0x20 }
  - { offset: 0x7A1C2, size: 0x8, addend: 0x0, symName: __ZN3fmt3v1112format_specsC1Ev, symObjAddr: 0x94F0, symBinAddr: 0x10000FE9C, symSize: 0x2C }
  - { offset: 0x7A1EB, size: 0x8, addend: 0x0, symName: __ZNK3fmt3v1111basic_specs4typeEv, symObjAddr: 0x951C, symBinAddr: 0x10000FEC8, symSize: 0x1C }
  - { offset: 0x7A210, size: 0x8, addend: 0x0, symName: __ZNK3fmt3v1111basic_specs9localizedEv, symObjAddr: 0x959C, symBinAddr: 0x10000FF48, symSize: 0x20 }
  - { offset: 0x7A23A, size: 0x8, addend: 0x0, symName: __ZN3fmt3v119loc_valueC1IiLi0EEET_, symObjAddr: 0x9764, symBinAddr: 0x100010110, symSize: 0x34 }
  - { offset: 0x7A292, size: 0x8, addend: 0x0, symName: __ZNK3fmt3v1111basic_specs4signEv, symObjAddr: 0x9C74, symBinAddr: 0x100010620, symSize: 0x20 }
  - { offset: 0x7A2B7, size: 0x8, addend: 0x0, symName: __ZNK3fmt3v116detail10locale_ref3getINSt3__16localeEEET_v, symObjAddr: 0x9C94, symBinAddr: 0x100010640, symSize: 0x58 }
  - { offset: 0x7A2E5, size: 0x8, addend: 0x0, symName: __ZNK3fmt3v1112format_facetINSt3__16localeEE3putENS0_14basic_appenderIcEENS0_9loc_valueERKNS0_12format_specsE, symObjAddr: 0x9D54, symBinAddr: 0x100010700, symSize: 0x9C }
  - { offset: 0x7A338, size: 0x8, addend: 0x0, symName: __ZN3fmt3v1112format_facetINSt3__16localeEEC1ERS3_, symObjAddr: 0x9DF0, symBinAddr: 0x10001079C, symSize: 0x34 }
  - { offset: 0x7A370, size: 0x8, addend: 0x0, symName: __ZN3fmt3v1112format_facetINSt3__16localeEED1Ev, symObjAddr: 0x9E24, symBinAddr: 0x1000107D0, symSize: 0x2C }
  - { offset: 0x7A39C, size: 0x8, addend: 0x0, symName: __ZN3fmt3v1112format_facetINSt3__16localeEEC2ERS3_, symObjAddr: 0x9E50, symBinAddr: 0x1000107FC, symSize: 0x150 }
  - { offset: 0x7A3E9, size: 0x8, addend: 0x0, symName: __ZNSt3__16locale5facetC2B8de190102Em, symObjAddr: 0x9FA0, symBinAddr: 0x10001094C, symSize: 0x48 }
  - { offset: 0x7A42F, size: 0x8, addend: 0x0, symName: __ZNKSt3__18numpunctIcE8groupingB8de190102Ev, symObjAddr: 0xA040, symBinAddr: 0x1000109C0, symSize: 0x34 }
  - { offset: 0x7A454, size: 0x8, addend: 0x0, symName: __ZNSt3__112basic_stringIcNS_11char_traitsIcEENS_9allocatorIcEEEaSB8de190102EOS5_, symObjAddr: 0xA074, symBinAddr: 0x1000109F4, symSize: 0x34 }
  - { offset: 0x7A488, size: 0x8, addend: 0x0, symName: __ZNKSt3__112basic_stringIcNS_11char_traitsIcEENS_9allocatorIcEEE5emptyB8de190102Ev, symObjAddr: 0xA0A8, symBinAddr: 0x100010A28, symSize: 0x2C }
  - { offset: 0x7A4AD, size: 0x8, addend: 0x0, symName: __ZNKSt3__18numpunctIcE13thousands_sepB8de190102Ev, symObjAddr: 0xA0D4, symBinAddr: 0x100010A54, symSize: 0x2C }
  - { offset: 0x7A4D2, size: 0x8, addend: 0x0, symName: __ZN3fmt3v1112format_facetINSt3__16localeEED0Ev, symObjAddr: 0xA13C, symBinAddr: 0x100010A80, symSize: 0x30 }
  - { offset: 0x7A4FE, size: 0x8, addend: 0x0, symName: __ZNK3fmt3v1112format_facetINSt3__16localeEE6do_putENS0_14basic_appenderIcEENS0_9loc_valueERKNS0_12format_specsE, symObjAddr: 0xA16C, symBinAddr: 0x100010AB0, symSize: 0x104 }
  - { offset: 0x7A54E, size: 0x8, addend: 0x0, symName: __ZNSt3__114__shared_countC2B8de190102El, symObjAddr: 0xA270, symBinAddr: 0x100010BB4, symSize: 0x30 }
  - { offset: 0x7A585, size: 0x8, addend: 0x0, symName: __ZNSt3__112basic_stringIcNS_11char_traitsIcEENS_9allocatorIcEEE13__move_assignB8de190102ERS5_NS_17integral_constantIbLb1EEE, symObjAddr: 0xA400, symBinAddr: 0x100010BE4, symSize: 0x174 }
  - { offset: 0x7A5E5, size: 0x8, addend: 0x0, symName: __ZNKSt3__112basic_stringIcNS_11char_traitsIcEENS_9allocatorIcEEE17__annotate_deleteB8de190102Ev, symObjAddr: 0xA574, symBinAddr: 0x100010D58, symSize: 0x10 }
  - { offset: 0x7A60A, size: 0x8, addend: 0x0, symName: __ZNSt3__112basic_stringIcNS_11char_traitsIcEENS_9allocatorIcEEE19__move_assign_allocB8de190102ERS5_, symObjAddr: 0xA634, symBinAddr: 0x100010D68, symSize: 0x2C }
  - { offset: 0x7A63E, size: 0x8, addend: 0x0, symName: __ZNKSt3__112basic_stringIcNS_11char_traitsIcEENS_9allocatorIcEEE17__annotate_shrinkB8de190102Em, symObjAddr: 0xA764, symBinAddr: 0x100010D94, symSize: 0x14 }
  - { offset: 0x7A672, size: 0x8, addend: 0x0, symName: __ZNSt3__112basic_stringIcNS_11char_traitsIcEENS_9allocatorIcEEE19__move_assign_allocB8de190102ERS5_NS_17integral_constantIbLb1EEE, symObjAddr: 0xA7F0, symBinAddr: 0x100010DA8, symSize: 0x38 }
  - { offset: 0x7A6F0, size: 0x8, addend: 0x0, symName: __ZN3fmt3v119loc_value5visitINS0_6detail10loc_writerIcEEEEDTclfp_Li0EEEOT_, symObjAddr: 0xA928, symBinAddr: 0x100010DE0, symSize: 0x2DC }
  - { offset: 0x7A75D, size: 0x8, addend: 0x0, symName: __ZN3fmt3v116detail10loc_writerIcED1Ev, symObjAddr: 0xAC44, symBinAddr: 0x1000110FC, symSize: 0x2C }
  - { offset: 0x7A789, size: 0x8, addend: 0x0, symName: __ZN3fmt3v116detail10loc_writerIcEclIiLi0EEEbT_, symObjAddr: 0xAC70, symBinAddr: 0x100011128, symSize: 0x144 }
  - { offset: 0x7A7DB, size: 0x8, addend: 0x0, symName: __ZN3fmt3v116detail10loc_writerIcEclIjLi0EEEbT_, symObjAddr: 0xADB4, symBinAddr: 0x10001126C, symSize: 0x144 }
  - { offset: 0x7A82D, size: 0x8, addend: 0x0, symName: __ZN3fmt3v116detail10loc_writerIcEclIxLi0EEEbT_, symObjAddr: 0xAEF8, symBinAddr: 0x1000113B0, symSize: 0x144 }
  - { offset: 0x7A87F, size: 0x8, addend: 0x0, symName: __ZN3fmt3v116detail10loc_writerIcEclIyLi0EEEbT_, symObjAddr: 0xB03C, symBinAddr: 0x1000114F4, symSize: 0x144 }
  - { offset: 0x7A8D1, size: 0x8, addend: 0x0, symName: __ZN3fmt3v116detail10loc_writerIcEclInLi0EEEbT_, symObjAddr: 0xB180, symBinAddr: 0x100011638, symSize: 0x170 }
  - { offset: 0x7A924, size: 0x8, addend: 0x0, symName: __ZN3fmt3v116detail10loc_writerIcEclIoLi0EEEbT_, symObjAddr: 0xB2F0, symBinAddr: 0x1000117A8, symSize: 0x170 }
  - { offset: 0x7A977, size: 0x8, addend: 0x0, symName: __ZN3fmt3v116detail10loc_writerIcEclIbLi0EEEbT_, symObjAddr: 0xB460, symBinAddr: 0x100011918, symSize: 0x1C }
  - { offset: 0x7A9B7, size: 0x8, addend: 0x0, symName: __ZN3fmt3v116detail10loc_writerIcEclIcLi0EEEbT_, symObjAddr: 0xB47C, symBinAddr: 0x100011934, symSize: 0x1C }
  - { offset: 0x7A9F7, size: 0x8, addend: 0x0, symName: __ZN3fmt3v116detail10loc_writerIcEclIfLi0EEEbT_, symObjAddr: 0xB498, symBinAddr: 0x100011950, symSize: 0x1C }
  - { offset: 0x7AA37, size: 0x8, addend: 0x0, symName: __ZN3fmt3v116detail10loc_writerIcEclIdLi0EEEbT_, symObjAddr: 0xB4B4, symBinAddr: 0x10001196C, symSize: 0x1C }
  - { offset: 0x7AA77, size: 0x8, addend: 0x0, symName: __ZN3fmt3v116detail10loc_writerIcEclIeLi0EEEbT_, symObjAddr: 0xB4D0, symBinAddr: 0x100011988, symSize: 0x1C }
  - { offset: 0x7AAB7, size: 0x8, addend: 0x0, symName: __ZN3fmt3v116detail10loc_writerIcEclIPKcLi0EEEbT_, symObjAddr: 0xB4EC, symBinAddr: 0x1000119A4, symSize: 0x1C }
  - { offset: 0x7AAF7, size: 0x8, addend: 0x0, symName: __ZN3fmt3v116detail10loc_writerIcEclINS0_17basic_string_viewIcEELi0EEEbT_, symObjAddr: 0xB508, symBinAddr: 0x1000119C0, symSize: 0x20 }
  - { offset: 0x7AB37, size: 0x8, addend: 0x0, symName: __ZN3fmt3v116detail10loc_writerIcEclIPKvLi0EEEbT_, symObjAddr: 0xB528, symBinAddr: 0x1000119E0, symSize: 0x1C }
  - { offset: 0x7AB77, size: 0x8, addend: 0x0, symName: __ZN3fmt3v116detail10loc_writerIcEclINS0_16basic_format_argINS0_7contextEE6handleELi0EEEbT_, symObjAddr: 0xB544, symBinAddr: 0x1000119FC, symSize: 0x20 }
  - { offset: 0x7ABB7, size: 0x8, addend: 0x0, symName: __ZN3fmt3v116detail10loc_writerIcEclINS0_9monostateELi0EEEbT_, symObjAddr: 0xB564, symBinAddr: 0x100011A1C, symSize: 0x18 }
  - { offset: 0x7AC0B, size: 0x8, addend: 0x0, symName: __ZN3fmt3v116detail14digit_groupingIcEC1ENSt3__112basic_stringIcNS4_11char_traitsIcEENS4_9allocatorIcEEEESA_, symObjAddr: 0xBA2C, symBinAddr: 0x100011EE4, symSize: 0x3C }
  - { offset: 0x7AC54, size: 0x8, addend: 0x0, symName: __ZN3fmt3v116detail14digit_groupingIcED1Ev, symObjAddr: 0xBA68, symBinAddr: 0x100011F20, symSize: 0x2C }
  - { offset: 0x7ACA7, size: 0x8, addend: 0x0, symName: __ZN3fmt3v1119basic_memory_bufferIcLm500ENS0_6detail9allocatorIcEEEC1ERKS4_, symObjAddr: 0xBA94, symBinAddr: 0x100011F4C, symSize: 0x34 }
  - { offset: 0x7ACDF, size: 0x8, addend: 0x0, symName: __ZNK3fmt3v1111basic_specs3altEv, symObjAddr: 0xBAC8, symBinAddr: 0x100011F80, symSize: 0x20 }
  - { offset: 0x7AD04, size: 0x8, addend: 0x0, symName: __ZNK3fmt3v1111basic_specs5upperEv, symObjAddr: 0xBB60, symBinAddr: 0x100012018, symSize: 0x20 }
  - { offset: 0x7AD29, size: 0x8, addend: 0x0, symName: __ZNK3fmt3v116detail14digit_groupingIcE16count_separatorsEi, symObjAddr: 0xBD74, symBinAddr: 0x10001222C, symSize: 0xBC }
  - { offset: 0x7AD7B, size: 0x8, addend: 0x0, symName: __ZN3fmt3v1119basic_memory_bufferIcLm500ENS0_6detail9allocatorIcEEED1Ev, symObjAddr: 0xBFD8, symBinAddr: 0x100012490, symSize: 0x2C }
  - { offset: 0x7ADA4, size: 0x8, addend: 0x0, symName: __ZN3fmt3v1119basic_memory_bufferIcLm500ENS0_6detail9allocatorIcEEEC2ERKS4_, symObjAddr: 0xC004, symBinAddr: 0x1000124BC, symSize: 0x58 }
  - { offset: 0x7ADDC, size: 0x8, addend: 0x0, symName: __ZN3fmt3v1119basic_memory_bufferIcLm500ENS0_6detail9allocatorIcEEE4growERNS2_6bufferIcEEm, symObjAddr: 0xC05C, symBinAddr: 0x100012514, symSize: 0x160 }
  - { offset: 0x7AE73, size: 0x8, addend: 0x0, symName: __ZZN3fmt3v116detail12count_digitsILi4EyEEiT0_ENKUlyE_clEy, symObjAddr: 0xC1BC, symBinAddr: 0x100012674, symSize: 0x44 }
  - { offset: 0x7AEC4, size: 0x8, addend: 0x0, symName: __ZZN3fmt3v116detail12count_digitsILi3EyEEiT0_ENKUlyE_clEy, symObjAddr: 0xC354, symBinAddr: 0x10001280C, symSize: 0x44 }
  - { offset: 0x7AF15, size: 0x8, addend: 0x0, symName: __ZZN3fmt3v116detail12count_digitsILi1EyEEiT0_ENKUlyE_clEy, symObjAddr: 0xC398, symBinAddr: 0x100012850, symSize: 0x44 }
  - { offset: 0x7AF5C, size: 0x8, addend: 0x0, symName: __ZNK3fmt3v1111basic_specs5alignEv, symObjAddr: 0xC5D4, symBinAddr: 0x100012A8C, symSize: 0x20 }
  - { offset: 0x7AF81, size: 0x8, addend: 0x0, symName: __ZNK3fmt3v1111basic_specs9fill_sizeEv, symObjAddr: 0xC658, symBinAddr: 0x100012B10, symSize: 0x28 }
  - { offset: 0x7AFB0, size: 0x8, addend: 0x0, symName: __ZZN3fmt3v116detail10write_charIcNS0_14basic_appenderIcEEEET0_S5_T_RKNS0_12format_specsEENKUlS4_E_clES4_, symObjAddr: 0xC77C, symBinAddr: 0x100012C34, symSize: 0x94 }
  - { offset: 0x7AFE8, size: 0x8, addend: 0x0, symName: __ZNK3fmt3v1111basic_specs9fill_unitIcEET_v, symObjAddr: 0xC8C0, symBinAddr: 0x100012D78, symSize: 0x2C }
  - { offset: 0x7B016, size: 0x8, addend: 0x0, symName: __ZNK3fmt3v1111basic_specs4fillIcLi0EEEPKT_v, symObjAddr: 0xC8EC, symBinAddr: 0x100012DA4, symSize: 0x18 }
  - { offset: 0x7B04A, size: 0x8, addend: 0x0, symName: __ZNK3fmt3v116detail14digit_groupingIcE13initial_stateEv, symObjAddr: 0xD7EC, symBinAddr: 0x100013C04, symSize: 0x34 }
  - { offset: 0x7B06F, size: 0x8, addend: 0x0, symName: __ZNK3fmt3v116detail14digit_groupingIcE4nextERNS3_10next_stateE, symObjAddr: 0xD820, symBinAddr: 0x100013C38, symSize: 0x120 }
  - { offset: 0x7B0A3, size: 0x8, addend: 0x0, symName: __ZNKSt3__112basic_stringIcNS_11char_traitsIcEENS_9allocatorIcEEE5beginB8de190102Ev, symObjAddr: 0xD940, symBinAddr: 0x100013D58, symSize: 0x4C }
  - { offset: 0x7B0C8, size: 0x8, addend: 0x0, symName: __ZNKSt3__112basic_stringIcNS_11char_traitsIcEENS_9allocatorIcEEE21__make_const_iteratorB8de190102EPKc, symObjAddr: 0xD98C, symBinAddr: 0x100013DA4, symSize: 0x30 }
  - { offset: 0x7B0FC, size: 0x8, addend: 0x0, symName: __ZNSt3__111__wrap_iterIPKcEC1B8de190102ES2_, symObjAddr: 0xD9BC, symBinAddr: 0x100013DD4, symSize: 0x34 }
  - { offset: 0x7B133, size: 0x8, addend: 0x0, symName: __ZNSt3__111__wrap_iterIPKcEC2B8de190102ES2_, symObjAddr: 0xD9F0, symBinAddr: 0x100013E08, symSize: 0x20 }
  - { offset: 0x7B16A, size: 0x8, addend: 0x0, symName: __ZNKSt3__112basic_stringIcNS_11char_traitsIcEENS_9allocatorIcEEE3endB8de190102Ev, symObjAddr: 0xDA68, symBinAddr: 0x100013E80, symSize: 0x54 }
  - { offset: 0x7B18F, size: 0x8, addend: 0x0, symName: __ZNKSt3__112basic_stringIcNS_11char_traitsIcEENS_9allocatorIcEEE4backB8de190102Ev, symObjAddr: 0xDABC, symBinAddr: 0x100013ED4, symSize: 0x60 }
  - { offset: 0x7B1B4, size: 0x8, addend: 0x0, symName: __ZNKSt3__111__wrap_iterIPKcEdeB8de190102Ev, symObjAddr: 0xDB1C, symBinAddr: 0x100013F34, symSize: 0x18 }
  - { offset: 0x7B1D9, size: 0x8, addend: 0x0, symName: __ZNSt3__111__wrap_iterIPKcEppB8de190102Ei, symObjAddr: 0xDB48, symBinAddr: 0x100013F60, symSize: 0x34 }
  - { offset: 0x7B218, size: 0x8, addend: 0x0, symName: __ZNSt3__114numeric_limitsIiE3maxB8de190102Ev, symObjAddr: 0xDB7C, symBinAddr: 0x100013F94, symSize: 0x14 }
  - { offset: 0x7B22C, size: 0x8, addend: 0x0, symName: __ZNSt3__123__libcpp_numeric_limitsIiLb1EE3maxB8de190102Ev, symObjAddr: 0xDB90, symBinAddr: 0x100013FA8, symSize: 0x8 }
  - { offset: 0x7B240, size: 0x8, addend: 0x0, symName: __ZNKSt3__111__wrap_iterIPKcE4baseB8de190102Ev, symObjAddr: 0xDB98, symBinAddr: 0x100013FB0, symSize: 0x18 }
  - { offset: 0x7B265, size: 0x8, addend: 0x0, symName: __ZNSt3__114numeric_limitsIcE3maxB8de190102Ev, symObjAddr: 0xDBB0, symBinAddr: 0x100013FC8, symSize: 0x14 }
  - { offset: 0x7B279, size: 0x8, addend: 0x0, symName: __ZNSt3__123__libcpp_numeric_limitsIcLb1EE3maxB8de190102Ev, symObjAddr: 0xDBC4, symBinAddr: 0x100013FDC, symSize: 0x8 }
  - { offset: 0x7B28D, size: 0x8, addend: 0x0, symName: __ZNSt3__111__wrap_iterIPKcEppB8de190102Ev, symObjAddr: 0xDBCC, symBinAddr: 0x100013FE4, symSize: 0x20 }
  - { offset: 0x7B2CB, size: 0x8, addend: 0x0, symName: __ZZN3fmt3v116detail9write_intINS0_14basic_appenderIcEEycEET_S5_T0_jRKNS0_12format_specsERKNS1_14digit_groupingIT1_EEENKUlS4_E_clES4_, symObjAddr: 0xDBEC, symBinAddr: 0x100014004, symSize: 0xE4 }
  - { offset: 0x7B321, size: 0x8, addend: 0x0, symName: __ZNK3fmt3v116detail14digit_groupingIcE5applyINS0_14basic_appenderIcEEcEET_S7_NS0_17basic_string_viewIT0_EE, symObjAddr: 0xDCD0, symBinAddr: 0x1000140E8, symSize: 0x2A0 }
  - { offset: 0x7B453, size: 0x8, addend: 0x0, symName: __ZN3fmt3v1119basic_memory_bufferIiLm500ENS0_6detail9allocatorIiEEEC1ERKS4_, symObjAddr: 0xDF70, symBinAddr: 0x100014388, symSize: 0x34 }
  - { offset: 0x7B48B, size: 0x8, addend: 0x0, symName: __ZN3fmt3v116detail6bufferIiE9push_backERKi, symObjAddr: 0xDFA4, symBinAddr: 0x1000143BC, symSize: 0x54 }
  - { offset: 0x7B4BF, size: 0x8, addend: 0x0, symName: __ZNK3fmt3v116detail6bufferIiE4sizeEv, symObjAddr: 0xDFF8, symBinAddr: 0x100014410, symSize: 0x18 }
  - { offset: 0x7B4E4, size: 0x8, addend: 0x0, symName: __ZN3fmt3v116detail6bufferIiEixIiEERiT_, symObjAddr: 0xE010, symBinAddr: 0x100014428, symSize: 0x24 }
  - { offset: 0x7B521, size: 0x8, addend: 0x0, symName: __ZNK3fmt3v1117basic_string_viewIcEixEm, symObjAddr: 0xE034, symBinAddr: 0x10001444C, symSize: 0x24 }
  - { offset: 0x7B555, size: 0x8, addend: 0x0, symName: __ZN3fmt3v1119basic_memory_bufferIiLm500ENS0_6detail9allocatorIiEEED1Ev, symObjAddr: 0xE058, symBinAddr: 0x100014470, symSize: 0x2C }
  - { offset: 0x7B57E, size: 0x8, addend: 0x0, symName: __ZN3fmt3v1119basic_memory_bufferIiLm500ENS0_6detail9allocatorIiEEEC2ERKS4_, symObjAddr: 0xE084, symBinAddr: 0x10001449C, symSize: 0x58 }
  - { offset: 0x7B5B6, size: 0x8, addend: 0x0, symName: __ZN3fmt3v1119basic_memory_bufferIiLm500ENS0_6detail9allocatorIiEEE4growERNS2_6bufferIiEEm, symObjAddr: 0xE0DC, symBinAddr: 0x1000144F4, symSize: 0x160 }
  - { offset: 0x7B643, size: 0x8, addend: 0x0, symName: __ZN3fmt3v116detail6bufferIiEC2EPFvRS3_mEPimm, symObjAddr: 0xE23C, symBinAddr: 0x100014654, symSize: 0x44 }
  - { offset: 0x7B6A8, size: 0x8, addend: 0x0, symName: __ZN3fmt3v116detail6bufferIiE3setEPim, symObjAddr: 0xE280, symBinAddr: 0x100014698, symSize: 0x2C }
  - { offset: 0x7B6FA, size: 0x8, addend: 0x0, symName: __ZNSt3__116allocator_traitsIN3fmt3v116detail9allocatorIiEEE8max_sizeB8de190102IS5_vLi0EEEmRKS5_, symObjAddr: 0xE2AC, symBinAddr: 0x1000146C4, symSize: 0x28 }
  - { offset: 0x7B72C, size: 0x8, addend: 0x0, symName: __ZNK3fmt3v116detail6bufferIiE8capacityEv, symObjAddr: 0xE2D4, symBinAddr: 0x1000146EC, symSize: 0x18 }
  - { offset: 0x7B751, size: 0x8, addend: 0x0, symName: __ZN3fmt3v116detail6bufferIiE4dataEv, symObjAddr: 0xE2EC, symBinAddr: 0x100014704, symSize: 0x18 }
  - { offset: 0x7B776, size: 0x8, addend: 0x0, symName: __ZN3fmt3v116detail9allocatorIiE8allocateEm, symObjAddr: 0xE304, symBinAddr: 0x10001471C, symSize: 0xA8 }
  - { offset: 0x7B7B9, size: 0x8, addend: 0x0, symName: __ZN3fmt3v116detail9allocatorIiE10deallocateEPim, symObjAddr: 0xE3AC, symBinAddr: 0x1000147C4, symSize: 0x2C }
  - { offset: 0x7B7F9, size: 0x8, addend: 0x0, symName: __ZN3fmt3v116detail6bufferIiE11try_reserveEm, symObjAddr: 0xE3D8, symBinAddr: 0x1000147F0, symSize: 0x50 }
  - { offset: 0x7B82D, size: 0x8, addend: 0x0, symName: __ZN3fmt3v1119basic_memory_bufferIiLm500ENS0_6detail9allocatorIiEEED2Ev, symObjAddr: 0xE428, symBinAddr: 0x100014840, symSize: 0x34 }
  - { offset: 0x7B856, size: 0x8, addend: 0x0, symName: __ZN3fmt3v1119basic_memory_bufferIiLm500ENS0_6detail9allocatorIiEEE10deallocateEv, symObjAddr: 0xE45C, symBinAddr: 0x100014874, symSize: 0x74 }
  - { offset: 0x7B88A, size: 0x8, addend: 0x0, symName: __ZN3fmt3v1119basic_memory_bufferIcLm500ENS0_6detail9allocatorIcEEED2Ev, symObjAddr: 0xE4D0, symBinAddr: 0x1000148E8, symSize: 0x34 }
  - { offset: 0x7B8B3, size: 0x8, addend: 0x0, symName: __ZN3fmt3v1119basic_memory_bufferIcLm500ENS0_6detail9allocatorIcEEE10deallocateEv, symObjAddr: 0xE504, symBinAddr: 0x10001491C, symSize: 0x74 }
  - { offset: 0x7B8E7, size: 0x8, addend: 0x0, symName: __ZN3fmt3v116detail14digit_groupingIcEC2ENSt3__112basic_stringIcNS4_11char_traitsIcEENS4_9allocatorIcEEEESA_, symObjAddr: 0xE578, symBinAddr: 0x100014990, symSize: 0x4C }
  - { offset: 0x7B930, size: 0x8, addend: 0x0, symName: __ZN3fmt3v116detail14digit_groupingIcED2Ev, symObjAddr: 0xE5C4, symBinAddr: 0x1000149DC, symSize: 0x38 }
  - { offset: 0x7B966, size: 0x8, addend: 0x0, symName: __ZZN3fmt3v116detail12count_digitsILi4EoEEiT0_ENKUloE_clEo, symObjAddr: 0xF220, symBinAddr: 0x100015638, symSize: 0x80 }
  - { offset: 0x7B9B7, size: 0x8, addend: 0x0, symName: __ZZN3fmt3v116detail12count_digitsILi3EoEEiT0_ENKUloE_clEo, symObjAddr: 0xF488, symBinAddr: 0x1000158A0, symSize: 0x80 }
  - { offset: 0x7BA08, size: 0x8, addend: 0x0, symName: __ZZN3fmt3v116detail12count_digitsILi1EoEEiT0_ENKUloE_clEo, symObjAddr: 0xF508, symBinAddr: 0x100015920, symSize: 0x80 }
  - { offset: 0x7BA59, size: 0x8, addend: 0x0, symName: __ZZN3fmt3v116detail9write_intINS0_14basic_appenderIcEEocEET_S5_T0_jRKNS0_12format_specsERKNS1_14digit_groupingIT1_EEENKUlS4_E_clES4_, symObjAddr: 0xF588, symBinAddr: 0x1000159A0, symSize: 0xE4 }
  - { offset: 0x7BAAF, size: 0x8, addend: 0x0, symName: __ZN3fmt3v116detail10loc_writerIcED2Ev, symObjAddr: 0xF770, symBinAddr: 0x100015B88, symSize: 0x48 }
  - { offset: 0x7BADB, size: 0x8, addend: 0x0, symName: __ZN3fmt3v1112format_facetINSt3__16localeEED2Ev, symObjAddr: 0xF7B8, symBinAddr: 0x100015BD0, symSize: 0x60 }
  - { offset: 0x7BB07, size: 0x8, addend: 0x0, symName: __ZN3fmt3v119loc_valueC2IiLi0EEET_, symObjAddr: 0xF818, symBinAddr: 0x100015C30, symSize: 0x38 }
  - { offset: 0x7BB4E, size: 0x8, addend: 0x0, symName: __ZN3fmt3v1116basic_format_argINS0_7contextEEC1IRiEEOT_, symObjAddr: 0xF850, symBinAddr: 0x100015C68, symSize: 0x34 }
  - { offset: 0x7BB8F, size: 0x8, addend: 0x0, symName: __ZN3fmt3v1116basic_format_argINS0_7contextEEC2IRiEEOT_, symObjAddr: 0xF884, symBinAddr: 0x100015C9C, symSize: 0x50 }
  - { offset: 0x7BC22, size: 0x8, addend: 0x0, symName: __ZN3fmt3v116detail12size_paddingC1EijRKNS0_12format_specsE, symObjAddr: 0xF8D4, symBinAddr: 0x100015CEC, symSize: 0x44 }
  - { offset: 0x7BC78, size: 0x8, addend: 0x0, symName: __ZN3fmt3v116detail12size_paddingC2EijRKNS0_12format_specsE, symObjAddr: 0xF968, symBinAddr: 0x100015D80, symSize: 0x11C }
  - { offset: 0x7BCF6, size: 0x8, addend: 0x0, symName: __ZZN3fmt3v116detail9write_intIcNS0_14basic_appenderIcEEjEET0_S5_NS1_13write_int_argIT1_EERKNS0_12format_specsEENKUlS4_E_clES4_, symObjAddr: 0xFC2C, symBinAddr: 0x100016044, symSize: 0xDC }
  - { offset: 0x7BD56, size: 0x8, addend: 0x0, symName: __ZZN3fmt3v116detail11write_bytesIcLNS0_5alignE1ENS0_14basic_appenderIcEEEET1_S6_NS0_17basic_string_viewIcEERKNS0_12format_specsEENKUlS5_E_clES5_, symObjAddr: 0xFF90, symBinAddr: 0x1000163A8, symSize: 0x74 }
  - { offset: 0x7BD9D, size: 0x8, addend: 0x0, symName: __ZN3fmt3v1112format_specsC2Ev, symObjAddr: 0x10004, symBinAddr: 0x10001641C, symSize: 0x38 }
  - { offset: 0x7BDC6, size: 0x8, addend: 0x0, symName: __ZN3fmt3v1111basic_specsC2Ev, symObjAddr: 0x1003C, symBinAddr: 0x100016454, symSize: 0x64 }
  - { offset: 0x7BDFC, size: 0x8, addend: 0x0, symName: __ZN3fmt3v1111basic_specs8set_fillEc, symObjAddr: 0x10CC4, symBinAddr: 0x1000170DC, symSize: 0x34 }
  - { offset: 0x7BE30, size: 0x8, addend: 0x0, symName: __ZN3fmt3v1111basic_specs13set_fill_sizeEm, symObjAddr: 0x10D48, symBinAddr: 0x100017160, symSize: 0x2C }
  - { offset: 0x7BE6E, size: 0x8, addend: 0x0, symName: __ZZN3fmt3v116detail15write_nonfiniteIcNS0_14basic_appenderIcEEEET0_S5_bNS0_12format_specsENS0_4signEENKUlS4_E_clES4_, symObjAddr: 0x10F1C, symBinAddr: 0x100017334, symSize: 0x94 }
  - { offset: 0x7BEA6, size: 0x8, addend: 0x0, symName: __ZN3fmt3v116detail9dragonbox14cache_accessorIfE13compute_deltaERKyi, symObjAddr: 0x11124, symBinAddr: 0x10001753C, symSize: 0x30 }
  - { offset: 0x7BED9, size: 0x8, addend: 0x0, symName: __ZN3fmt3v116detail9dragonbox14cache_accessorIfE11compute_mulEjRKy, symObjAddr: 0x11154, symBinAddr: 0x10001756C, symSize: 0x54 }
  - { offset: 0x7BF1B, size: 0x8, addend: 0x0, symName: __ZN3fmt3v116detail9dragonbox14cache_accessorIfE18compute_mul_parityEjRKyi, symObjAddr: 0x111D0, symBinAddr: 0x1000175E8, symSize: 0xD4 }
  - { offset: 0x7BF6C, size: 0x8, addend: 0x0, symName: __ZN3fmt3v116detail9dragonbox14cache_accessorIfE47compute_left_endpoint_for_shorter_interval_caseERKyi, symObjAddr: 0x113C4, symBinAddr: 0x1000177DC, symSize: 0x78 }
  - { offset: 0x7BF9F, size: 0x8, addend: 0x0, symName: __ZN3fmt3v116detail9dragonbox14cache_accessorIfE48compute_right_endpoint_for_shorter_interval_caseERKyi, symObjAddr: 0x1143C, symBinAddr: 0x100017854, symSize: 0x78 }
  - { offset: 0x7BFD2, size: 0x8, addend: 0x0, symName: __ZN3fmt3v116detail9dragonbox14cache_accessorIfE42compute_round_up_for_shorter_interval_caseERKyi, symObjAddr: 0x11508, symBinAddr: 0x100017920, symSize: 0x58 }
  - { offset: 0x7C005, size: 0x8, addend: 0x0, symName: __ZNSt3__114numeric_limitsIjE3maxB8de190102Ev, symObjAddr: 0x11658, symBinAddr: 0x100017A70, symSize: 0x14 }
  - { offset: 0x7C019, size: 0x8, addend: 0x0, symName: __ZNSt3__123__libcpp_numeric_limitsIjLb1EE3maxB8de190102Ev, symObjAddr: 0x1166C, symBinAddr: 0x100017A84, symSize: 0x8 }
  - { offset: 0x7C037, size: 0x8, addend: 0x0, symName: __ZZN3fmt3v116detail14do_write_floatIcNS0_14basic_appenderIcEENS1_9dragonbox10decimal_fpIfEENS1_14digit_groupingIcEEEET0_SA_RKT1_RKNS0_12format_specsENS0_4signEiNS1_10locale_refEENKUlvE_clEv, symObjAddr: 0x11E04, symBinAddr: 0x10001821C, symSize: 0x104 }
  - { offset: 0x7C079, size: 0x8, addend: 0x0, symName: __ZZN3fmt3v116detail14do_write_floatIcNS0_14basic_appenderIcEENS1_9dragonbox10decimal_fpIfEENS1_14digit_groupingIcEEEET0_SA_RKT1_RKNS0_12format_specsENS0_4signEiNS1_10locale_refEENKUlS4_E_clES4_, symObjAddr: 0x11F58, symBinAddr: 0x100018370, symSize: 0x12C }
  - { offset: 0x7C0B1, size: 0x8, addend: 0x0, symName: __ZN3fmt3v116detail14digit_groupingIcEC1INS1_10locale_refELi0EEET_b, symObjAddr: 0x12084, symBinAddr: 0x10001849C, symSize: 0x40 }
  - { offset: 0x7C107, size: 0x8, addend: 0x0, symName: __ZNKSt3__18numpunctIcE13decimal_pointB8de190102Ev, symObjAddr: 0x12274, symBinAddr: 0x10001868C, symSize: 0x2C }
  - { offset: 0x7C12C, size: 0x8, addend: 0x0, symName: __ZN3fmt3v116detail14digit_groupingIcEC2INS1_10locale_refELi0EEET_b, symObjAddr: 0x12980, symBinAddr: 0x100018D98, symSize: 0xF8 }
  - { offset: 0x7C19C, size: 0x8, addend: 0x0, symName: __ZN3fmt3v116detail20thousands_sep_resultIcED1Ev, symObjAddr: 0x12AF8, symBinAddr: 0x100018F10, symSize: 0x2C }
  - { offset: 0x7C1C8, size: 0x8, addend: 0x0, symName: __ZN3fmt3v116detail20thousands_sep_resultIcED2Ev, symObjAddr: 0x12C2C, symBinAddr: 0x100019044, symSize: 0x2C }
  - { offset: 0x7C217, size: 0x8, addend: 0x0, symName: __ZZN3fmt3v116detail14do_write_floatIcNS0_14basic_appenderIcEENS1_9dragonbox10decimal_fpIfEENS1_14digit_groupingIcEEEET0_SA_RKT1_RKNS0_12format_specsENS0_4signEiNS1_10locale_refEENKUlS4_E0_clES4_, symObjAddr: 0x12E00, symBinAddr: 0x100019218, symSize: 0x158 }
  - { offset: 0x7C24F, size: 0x8, addend: 0x0, symName: __ZNK3fmt3v116detail14digit_groupingIcE13has_separatorEv, symObjAddr: 0x13154, symBinAddr: 0x10001956C, symSize: 0x2C }
  - { offset: 0x7C27E, size: 0x8, addend: 0x0, symName: __ZZN3fmt3v116detail14do_write_floatIcNS0_14basic_appenderIcEENS1_9dragonbox10decimal_fpIfEENS1_14digit_groupingIcEEEET0_SA_RKT1_RKNS0_12format_specsENS0_4signEiNS1_10locale_refEENKUlS4_E1_clES4_, symObjAddr: 0x1336C, symBinAddr: 0x100019784, symSize: 0x108 }
  - { offset: 0x7C2C0, size: 0x8, addend: 0x0, symName: __ZZN3fmt3v116detail14do_write_floatIcNS0_14basic_appenderIcEENS1_9dragonbox10decimal_fpIfEENS1_14digit_groupingIcEEEET0_SA_RKT1_RKNS0_12format_specsENS0_4signEiNS1_10locale_refEENKUlS4_E2_clES4_, symObjAddr: 0x13804, symBinAddr: 0x100019C1C, symSize: 0x148 }
  - { offset: 0x7C302, size: 0x8, addend: 0x0, symName: __ZN3fmt3v116detail9dragonbox14cache_accessorIdE13compute_deltaERKNS1_16uint128_fallbackEi, symObjAddr: 0x149AC, symBinAddr: 0x10001ADC4, symSize: 0x3C }
  - { offset: 0x7C335, size: 0x8, addend: 0x0, symName: __ZN3fmt3v116detail9dragonbox14cache_accessorIdE11compute_mulEyRKNS1_16uint128_fallbackE, symObjAddr: 0x149E8, symBinAddr: 0x10001AE00, symSize: 0x78 }
  - { offset: 0x7C377, size: 0x8, addend: 0x0, symName: __ZN3fmt3v116detail9dragonbox14cache_accessorIdE18compute_mul_parityEyRKNS1_16uint128_fallbackEi, symObjAddr: 0x14A98, symBinAddr: 0x10001AEB0, symSize: 0x11C }
  - { offset: 0x7C3C8, size: 0x8, addend: 0x0, symName: __ZN3fmt3v116detail9dragonbox14cache_accessorIdE47compute_left_endpoint_for_shorter_interval_caseERKNS1_16uint128_fallbackEi, symObjAddr: 0x14C5C, symBinAddr: 0x10001B074, symSize: 0x78 }
  - { offset: 0x7C3FB, size: 0x8, addend: 0x0, symName: __ZN3fmt3v116detail9dragonbox14cache_accessorIdE48compute_right_endpoint_for_shorter_interval_caseERKNS1_16uint128_fallbackEi, symObjAddr: 0x14CD4, symBinAddr: 0x10001B0EC, symSize: 0x78 }
  - { offset: 0x7C42E, size: 0x8, addend: 0x0, symName: __ZN3fmt3v116detail9dragonbox14cache_accessorIdE42compute_round_up_for_shorter_interval_caseERKNS1_16uint128_fallbackEi, symObjAddr: 0x14DA0, symBinAddr: 0x10001B1B8, symSize: 0x5C }
  - { offset: 0x7C461, size: 0x8, addend: 0x0, symName: __ZNK3fmt3v116detail16uint128_fallback4highEv, symObjAddr: 0x14DFC, symBinAddr: 0x10001B214, symSize: 0x18 }
  - { offset: 0x7C486, size: 0x8, addend: 0x0, symName: __ZNK3fmt3v116detail16uint128_fallback3lowEv, symObjAddr: 0x14E90, symBinAddr: 0x10001B2A8, symSize: 0x18 }
  - { offset: 0x7C4AB, size: 0x8, addend: 0x0, symName: __ZN3fmt3v116detail16uint128_fallbackpLEy, symObjAddr: 0x14EA8, symBinAddr: 0x10001B2C0, symSize: 0x54 }
  - { offset: 0x7C4EE, size: 0x8, addend: 0x0, symName: __ZN3fmt3v116detail16uint128_fallbackC1Eyy, symObjAddr: 0x14EFC, symBinAddr: 0x10001B314, symSize: 0x3C }
  - { offset: 0x7C535, size: 0x8, addend: 0x0, symName: __ZN3fmt3v116detail16uint128_fallbackC2Eyy, symObjAddr: 0x14F38, symBinAddr: 0x10001B350, symSize: 0x2C }
  - { offset: 0x7C57C, size: 0x8, addend: 0x0, symName: __ZNSt3__114numeric_limitsIyE3maxB8de190102Ev, symObjAddr: 0x15108, symBinAddr: 0x10001B520, symSize: 0x14 }
  - { offset: 0x7C590, size: 0x8, addend: 0x0, symName: __ZNSt3__123__libcpp_numeric_limitsIyLb1EE3maxB8de190102Ev, symObjAddr: 0x1511C, symBinAddr: 0x10001B534, symSize: 0x8 }
  - { offset: 0x7C5AE, size: 0x8, addend: 0x0, symName: __ZZN3fmt3v116detail14do_write_floatIcNS0_14basic_appenderIcEENS1_9dragonbox10decimal_fpIdEENS1_14digit_groupingIcEEEET0_SA_RKT1_RKNS0_12format_specsENS0_4signEiNS1_10locale_refEENKUlvE_clEv, symObjAddr: 0x15888, symBinAddr: 0x10001BCA0, symSize: 0x104 }
  - { offset: 0x7C5F0, size: 0x8, addend: 0x0, symName: __ZZN3fmt3v116detail14do_write_floatIcNS0_14basic_appenderIcEENS1_9dragonbox10decimal_fpIdEENS1_14digit_groupingIcEEEET0_SA_RKT1_RKNS0_12format_specsENS0_4signEiNS1_10locale_refEENKUlS4_E_clES4_, symObjAddr: 0x159DC, symBinAddr: 0x10001BDF4, symSize: 0x12C }
  - { offset: 0x7C641, size: 0x8, addend: 0x0, symName: __ZZN3fmt3v116detail14do_write_floatIcNS0_14basic_appenderIcEENS1_9dragonbox10decimal_fpIdEENS1_14digit_groupingIcEEEET0_SA_RKT1_RKNS0_12format_specsENS0_4signEiNS1_10locale_refEENKUlS4_E0_clES4_, symObjAddr: 0x161D0, symBinAddr: 0x10001C5E8, symSize: 0x158 }
  - { offset: 0x7C683, size: 0x8, addend: 0x0, symName: __ZZN3fmt3v116detail14do_write_floatIcNS0_14basic_appenderIcEENS1_9dragonbox10decimal_fpIdEENS1_14digit_groupingIcEEEET0_SA_RKT1_RKNS0_12format_specsENS0_4signEiNS1_10locale_refEENKUlS4_E1_clES4_, symObjAddr: 0x16710, symBinAddr: 0x10001CB28, symSize: 0x108 }
  - { offset: 0x7C6C5, size: 0x8, addend: 0x0, symName: __ZZN3fmt3v116detail14do_write_floatIcNS0_14basic_appenderIcEENS1_9dragonbox10decimal_fpIdEENS1_14digit_groupingIcEEEET0_SA_RKT1_RKNS0_12format_specsENS0_4signEiNS1_10locale_refEENKUlS4_E2_clES4_, symObjAddr: 0x16BA8, symBinAddr: 0x10001CFC0, symSize: 0x148 }
  - { offset: 0x7C702, size: 0x8, addend: 0x0, symName: __ZN3fmt3v1112format_errorCI1St13runtime_errorEPKc, symObjAddr: 0x16FE8, symBinAddr: 0x10001D400, symSize: 0x34 }
  - { offset: 0x7C737, size: 0x8, addend: 0x0, symName: __ZN3fmt3v1112format_errorD1Ev, symObjAddr: 0x1701C, symBinAddr: 0x10001D434, symSize: 0x2C }
  - { offset: 0x7C763, size: 0x8, addend: 0x0, symName: __ZN3fmt3v1112format_errorCI2St13runtime_errorEPKc, symObjAddr: 0x17048, symBinAddr: 0x10001D460, symSize: 0x44 }
  - { offset: 0x7C798, size: 0x8, addend: 0x0, symName: __ZN3fmt3v1112format_errorD0Ev, symObjAddr: 0x1708C, symBinAddr: 0x10001D4A4, symSize: 0x30 }
  - { offset: 0x7C7C4, size: 0x8, addend: 0x0, symName: __ZN3fmt3v1112format_errorD2Ev, symObjAddr: 0x170BC, symBinAddr: 0x10001D4D4, symSize: 0x2C }
  - { offset: 0x7C7FA, size: 0x8, addend: 0x0, symName: __ZZN3fmt3v116detail9write_ptrIcNS0_14basic_appenderIcEEmEET0_S5_T1_PKNS0_12format_specsEENKUlS4_E_clES4_, symObjAddr: 0x172A0, symBinAddr: 0x10001D6B8, symSize: 0xAC }
  - { offset: 0x7C83C, size: 0x8, addend: 0x0, symName: __ZZN3fmt3v116detail12count_digitsILi4EmEEiT0_ENKUlmE_clEm, symObjAddr: 0x1734C, symBinAddr: 0x10001D764, symSize: 0x44 }
  - { offset: 0x7C883, size: 0x8, addend: 0x0, symName: __ZN3fmt3v1117basic_string_viewIcEC1Ev, symObjAddr: 0x17794, symBinAddr: 0x10001DBAC, symSize: 0x2C }
  - { offset: 0x7C8AC, size: 0x8, addend: 0x0, symName: __ZN3fmt3v1117basic_format_argsINS0_7contextEEC1Ev, symObjAddr: 0x177C0, symBinAddr: 0x10001DBD8, symSize: 0x2C }
  - { offset: 0x7C8D5, size: 0x8, addend: 0x0, symName: __ZNK3fmt3v1116basic_format_argINS0_7contextEE6handle6formatERNS0_13parse_contextIcEERS2_, symObjAddr: 0x177EC, symBinAddr: 0x10001DC04, symSize: 0x3C }
  - { offset: 0x7C918, size: 0x8, addend: 0x0, symName: __ZN3fmt3v1117basic_string_viewIcEC2Ev, symObjAddr: 0x17828, symBinAddr: 0x10001DC40, symSize: 0x1C }
  - { offset: 0x7C941, size: 0x8, addend: 0x0, symName: __ZN3fmt3v1117basic_format_argsINS0_7contextEEC2Ev, symObjAddr: 0x17844, symBinAddr: 0x10001DC5C, symSize: 0x1C }
  - { offset: 0x7C96A, size: 0x8, addend: 0x0, symName: __ZN3fmt3v1116basic_format_argINS0_7contextEE6handleC2ENS0_6detail12custom_valueIS2_EE, symObjAddr: 0x17860, symBinAddr: 0x10001DC78, symSize: 0x24 }
  - { offset: 0x7C9A2, size: 0x8, addend: 0x0, symName: __ZN3fmt3v116detail14format_handlerIcE7on_textEPKcS5_, symObjAddr: 0x17884, symBinAddr: 0x10001DC9C, symSize: 0x5C }
  - { offset: 0x7C9E5, size: 0x8, addend: 0x0, symName: __ZN3fmt3v116detail14format_handlerIcE8on_errorEPKc, symObjAddr: 0x178E0, symBinAddr: 0x10001DCF8, symSize: 0x1C }
  - { offset: 0x7CA19, size: 0x8, addend: 0x0, symName: __ZNK3fmt3v117context3outEv, symObjAddr: 0x178FC, symBinAddr: 0x10001DD14, symSize: 0x20 }
  - { offset: 0x7CA3E, size: 0x8, addend: 0x0, symName: __ZN3fmt3v116detail14format_handlerIcE9on_arg_idEv, symObjAddr: 0x1791C, symBinAddr: 0x10001DD34, symSize: 0x24 }
  - { offset: 0x7CD87, size: 0x8, addend: 0x0, symName: __ZN3fmt3v116detail14format_handlerIcE15on_format_specsEiPKcS5_, symObjAddr: 0x17B4C, symBinAddr: 0x10001DF64, symSize: 0xBD8 }
  - { offset: 0x7D21D, size: 0x8, addend: 0x0, symName: __ZNK3fmt3v117context3argEi, symObjAddr: 0x18764, symBinAddr: 0x10001EB7C, symSize: 0x30 }
  - { offset: 0x7D251, size: 0x8, addend: 0x0, symName: __ZN3fmt3v1113parse_contextIcE11next_arg_idEv, symObjAddr: 0x18794, symBinAddr: 0x10001EBAC, symSize: 0x5C }
  - { offset: 0x7D285, size: 0x8, addend: 0x0, symName: __ZN3fmt3v1113parse_contextIcE15do_check_arg_idEi, symObjAddr: 0x187F0, symBinAddr: 0x10001EC08, symSize: 0x14 }
  - { offset: 0x7D2B9, size: 0x8, addend: 0x0, symName: __ZZN3fmt3v116detail23parse_replacement_fieldIcRNS1_14format_handlerIcEEEEPKT_S8_S8_OT0_EN10id_adapter8on_indexEi, symObjAddr: 0x18A00, symBinAddr: 0x10001EE18, symSize: 0x3C }
  - { offset: 0x7D2F1, size: 0x8, addend: 0x0, symName: __ZZN3fmt3v116detail23parse_replacement_fieldIcRNS1_14format_handlerIcEEEEPKT_S8_S8_OT0_EN10id_adapter7on_nameENS0_17basic_string_viewIcEE, symObjAddr: 0x18AC0, symBinAddr: 0x10001EED8, symSize: 0x4C }
  - { offset: 0x7D329, size: 0x8, addend: 0x0, symName: __ZN3fmt3v116detail14format_handlerIcE9on_arg_idEi, symObjAddr: 0x18B0C, symBinAddr: 0x10001EF24, symSize: 0x30 }
  - { offset: 0x7D35D, size: 0x8, addend: 0x0, symName: __ZN3fmt3v1113parse_contextIcE12check_arg_idEi, symObjAddr: 0x18B3C, symBinAddr: 0x10001EF54, symSize: 0x58 }
  - { offset: 0x7D391, size: 0x8, addend: 0x0, symName: __ZN3fmt3v116detail14format_handlerIcE9on_arg_idENS0_17basic_string_viewIcEE, symObjAddr: 0x18B94, symBinAddr: 0x10001EFAC, symSize: 0x7C }
  - { offset: 0x7D3D4, size: 0x8, addend: 0x0, symName: __ZN3fmt3v1113parse_contextIcE12check_arg_idENS0_17basic_string_viewIcEE, symObjAddr: 0x18C10, symBinAddr: 0x10001F028, symSize: 0x24 }
  - { offset: 0x7D405, size: 0x8, addend: 0x0, symName: __ZNK3fmt3v117context6arg_idENS0_17basic_string_viewIcEE, symObjAddr: 0x18C34, symBinAddr: 0x10001F04C, symSize: 0x40 }
  - { offset: 0x7D439, size: 0x8, addend: 0x0, symName: __ZNK3fmt3v1117basic_format_argsINS0_7contextEE6get_idIcEEiNS0_17basic_string_viewIT_EE, symObjAddr: 0x18C74, symBinAddr: 0x10001F08C, symSize: 0x124 }
  - { offset: 0x7D4A3, size: 0x8, addend: 0x0, symName: __ZNK3fmt3v1117basic_format_argsINS0_7contextEE14has_named_argsEv, symObjAddr: 0x18D98, symBinAddr: 0x10001F1B0, symSize: 0x20 }
  - { offset: 0x7D4C8, size: 0x8, addend: 0x0, symName: __ZNK3fmt3v1117basic_string_viewIcE7compareES2_, symObjAddr: 0x18E04, symBinAddr: 0x10001F21C, symSize: 0xC8 }
  - { offset: 0x7D50B, size: 0x8, addend: 0x0, symName: __ZN3fmt3v1116basic_format_argINS0_7contextEE13format_customEPKcRNS0_13parse_contextIcEERS2_, symObjAddr: 0x18F4C, symBinAddr: 0x10001F364, symSize: 0x94 }
  - { offset: 0x7D55D, size: 0x8, addend: 0x0, symName: __ZNK3fmt3v1113parse_contextIcE5beginEv, symObjAddr: 0x18FE0, symBinAddr: 0x10001F3F8, symSize: 0x24 }
  - { offset: 0x7D58C, size: 0x8, addend: 0x0, symName: __ZN3fmt3v116detail20dynamic_format_specsIcEC1Ev, symObjAddr: 0x19004, symBinAddr: 0x10001F41C, symSize: 0x2C }
  - { offset: 0x7D5B8, size: 0x8, addend: 0x0, symName: __ZNK3fmt3v1116basic_format_argINS0_7contextEE4typeEv, symObjAddr: 0x19770, symBinAddr: 0x10001FB88, symSize: 0x18 }
  - { offset: 0x7D5DD, size: 0x8, addend: 0x0, symName: __ZNK3fmt3v1111basic_specs7dynamicEv, symObjAddr: 0x19788, symBinAddr: 0x10001FBA0, symSize: 0x20 }
  - { offset: 0x7D602, size: 0x8, addend: 0x0, symName: __ZNK3fmt3v1111basic_specs13dynamic_widthEv, symObjAddr: 0x197F8, symBinAddr: 0x10001FC10, symSize: 0x20 }
  - { offset: 0x7D627, size: 0x8, addend: 0x0, symName: __ZNK3fmt3v1111basic_specs17dynamic_precisionEv, symObjAddr: 0x19818, symBinAddr: 0x10001FC30, symSize: 0x20 }
  - { offset: 0x7D64C, size: 0x8, addend: 0x0, symName: __ZNK3fmt3v117context6localeEv, symObjAddr: 0x19838, symBinAddr: 0x10001FC50, symSize: 0x20 }
  - { offset: 0x7D671, size: 0x8, addend: 0x0, symName: __ZNK3fmt3v1116basic_format_argINS0_7contextEEcvbEv, symObjAddr: 0x19858, symBinAddr: 0x10001FC70, symSize: 0x20 }
  - { offset: 0x7D696, size: 0x8, addend: 0x0, symName: __ZN3fmt3v1113parse_contextIcE10advance_toEPKc, symObjAddr: 0x19878, symBinAddr: 0x10001FC90, symSize: 0x4C }
  - { offset: 0x7D6CA, size: 0x8, addend: 0x0, symName: __ZN3fmt3v1117basic_string_viewIcE13remove_prefixEm, symObjAddr: 0x198C4, symBinAddr: 0x10001FCDC, symSize: 0x38 }
  - { offset: 0x7D6FE, size: 0x8, addend: 0x0, symName: __ZN3fmt3v116detail20dynamic_format_specsIcEC2Ev, symObjAddr: 0x198FC, symBinAddr: 0x10001FD14, symSize: 0x50 }
  - { offset: 0x7D72A, size: 0x8, addend: 0x0, symName: __ZN3fmt3v116detail7arg_refIcEC1Ei, symObjAddr: 0x1994C, symBinAddr: 0x10001FD64, symSize: 0x34 }
  - { offset: 0x7D762, size: 0x8, addend: 0x0, symName: __ZN3fmt3v116detail7arg_refIcEC2Ei, symObjAddr: 0x19980, symBinAddr: 0x10001FD98, symSize: 0x20 }
  - { offset: 0x7D79F, size: 0x8, addend: 0x0, symName: __ZZN3fmt3v116detail18parse_format_specsIcEEPKT_S5_S5_RNS1_20dynamic_format_specsIS3_EERNS0_13parse_contextIS3_EENS1_4typeEENUt_C1Ev, symObjAddr: 0x19A54, symBinAddr: 0x10001FE6C, symSize: 0x2C }
  - { offset: 0x7D7CB, size: 0x8, addend: 0x0, symName: __ZZN3fmt3v116detail18parse_format_specsIcEEPKT_S5_S5_RNS1_20dynamic_format_specsIS3_EERNS0_13parse_contextIS3_EENS1_4typeEENUt_clENS1_5stateEb, symObjAddr: 0x19A80, symBinAddr: 0x10001FE98, symSize: 0x64 }
  - { offset: 0x7D812, size: 0x8, addend: 0x0, symName: __ZN3fmt3v1111basic_specs9set_alignENS0_5alignE, symObjAddr: 0x19AE4, symBinAddr: 0x10001FEFC, symSize: 0x2C }
  - { offset: 0x7D846, size: 0x8, addend: 0x0, symName: __ZN3fmt3v1111basic_specs8set_signENS0_4signE, symObjAddr: 0x19B10, symBinAddr: 0x10001FF28, symSize: 0x2C }
  - { offset: 0x7D87A, size: 0x8, addend: 0x0, symName: __ZN3fmt3v1111basic_specs7set_altEv, symObjAddr: 0x19BA8, symBinAddr: 0x10001FFC0, symSize: 0x20 }
  - { offset: 0x7D89F, size: 0x8, addend: 0x0, symName: __ZN3fmt3v1111basic_specs13set_localizedEv, symObjAddr: 0x19CB4, symBinAddr: 0x1000200CC, symSize: 0x20 }
  - { offset: 0x7D8DF, size: 0x8, addend: 0x0, symName: __ZZN3fmt3v116detail18parse_format_specsIcEEPKT_S5_S5_RNS1_20dynamic_format_specsIS3_EERNS0_13parse_contextIS3_EENS1_4typeEENUt0_clENS0_17presentation_typeEi, symObjAddr: 0x19CD4, symBinAddr: 0x1000200EC, symSize: 0x6C }
  - { offset: 0x7D926, size: 0x8, addend: 0x0, symName: __ZN3fmt3v1111basic_specs9set_upperEv, symObjAddr: 0x19D40, symBinAddr: 0x100020158, symSize: 0x20 }
  - { offset: 0x7D94B, size: 0x8, addend: 0x0, symName: __ZN3fmt3v1111basic_specs8set_fillIcEEvNS0_17basic_string_viewIT_EE, symObjAddr: 0x19D9C, symBinAddr: 0x1000201B4, symSize: 0x11C }
  - { offset: 0x7D9D3, size: 0x8, addend: 0x0, symName: __ZZN3fmt3v116detail18parse_format_specsIcEEPKT_S5_S5_RNS1_20dynamic_format_specsIS3_EERNS0_13parse_contextIS3_EENS1_4typeEENUt_C2Ev, symObjAddr: 0x19EB8, symBinAddr: 0x1000202D0, symSize: 0x18 }
  - { offset: 0x7D9FF, size: 0x8, addend: 0x0, symName: __ZN3fmt3v1111basic_specs17set_dynamic_widthENS0_11arg_id_kindE, symObjAddr: 0x1A0E0, symBinAddr: 0x1000204F8, symSize: 0x2C }
  - { offset: 0x7DA33, size: 0x8, addend: 0x0, symName: __ZN3fmt3v1113parse_contextIcE18check_dynamic_specEi, symObjAddr: 0x1A10C, symBinAddr: 0x100020524, symSize: 0x14 }
  - { offset: 0x7DA76, size: 0x8, addend: 0x0, symName: __ZN3fmt3v116detail20dynamic_spec_handlerIcE8on_indexEi, symObjAddr: 0x1A32C, symBinAddr: 0x100020744, symSize: 0x6C }
  - { offset: 0x7DAAA, size: 0x8, addend: 0x0, symName: __ZN3fmt3v116detail20dynamic_spec_handlerIcE7on_nameENS0_17basic_string_viewIcEE, symObjAddr: 0x1A398, symBinAddr: 0x1000207B0, symSize: 0x78 }
  - { offset: 0x7DADE, size: 0x8, addend: 0x0, symName: __ZN3fmt3v116detail7arg_refIcEC1ENS0_17basic_string_viewIcEE, symObjAddr: 0x1A410, symBinAddr: 0x100020828, symSize: 0x3C }
  - { offset: 0x7DB16, size: 0x8, addend: 0x0, symName: __ZN3fmt3v116detail7arg_refIcEC2ENS0_17basic_string_viewIcEE, symObjAddr: 0x1A44C, symBinAddr: 0x100020864, symSize: 0x24 }
  - { offset: 0x7DB4E, size: 0x8, addend: 0x0, symName: __ZN3fmt3v1111basic_specs21set_dynamic_precisionENS0_11arg_id_kindE, symObjAddr: 0x1A470, symBinAddr: 0x100020888, symSize: 0x2C }
  - { offset: 0x7DB82, size: 0x8, addend: 0x0, symName: __ZN3fmt3v1111basic_specs8set_typeENS0_17presentation_typeE, symObjAddr: 0x1A49C, symBinAddr: 0x1000208B4, symSize: 0x2C }
  - { offset: 0x7DBEF, size: 0x8, addend: 0x0, symName: __ZNK3fmt3v117context3argENS0_17basic_string_viewIcEE, symObjAddr: 0x1A8F8, symBinAddr: 0x100020D10, symSize: 0x40 }
  - { offset: 0x7DC23, size: 0x8, addend: 0x0, symName: __ZNK3fmt3v1117basic_format_argsINS0_7contextEE3getIcEENS0_16basic_format_argIS2_EENS0_17basic_string_viewIT_EE, symObjAddr: 0x1A938, symBinAddr: 0x100020D50, symSize: 0x74 }
  - { offset: 0x7DC74, size: 0x8, addend: 0x0, symName: __ZN3fmt3v116detail19dynamic_spec_getterclIiLi0EEEyT_, symObjAddr: 0x1A9AC, symBinAddr: 0x100020DC4, symSize: 0x4C }
  - { offset: 0x7DCB7, size: 0x8, addend: 0x0, symName: __ZN3fmt3v116detail19dynamic_spec_getterclIjLi0EEEyT_, symObjAddr: 0x1A9F8, symBinAddr: 0x100020E10, symSize: 0x4C }
  - { offset: 0x7DCFA, size: 0x8, addend: 0x0, symName: __ZN3fmt3v116detail19dynamic_spec_getterclIxLi0EEEyT_, symObjAddr: 0x1AA44, symBinAddr: 0x100020E5C, symSize: 0x4C }
  - { offset: 0x7DD3D, size: 0x8, addend: 0x0, symName: __ZN3fmt3v116detail19dynamic_spec_getterclIyLi0EEEyT_, symObjAddr: 0x1AA90, symBinAddr: 0x100020EA8, symSize: 0x4C }
  - { offset: 0x7DD80, size: 0x8, addend: 0x0, symName: __ZN3fmt3v116detail19dynamic_spec_getterclInLi0EEEyT_, symObjAddr: 0x1AADC, symBinAddr: 0x100020EF4, symSize: 0x68 }
  - { offset: 0x7DDC3, size: 0x8, addend: 0x0, symName: __ZN3fmt3v116detail19dynamic_spec_getterclIoLi0EEEyT_, symObjAddr: 0x1AB44, symBinAddr: 0x100020F5C, symSize: 0x68 }
  - { offset: 0x7DE06, size: 0x8, addend: 0x0, symName: __ZN3fmt3v116detail19dynamic_spec_getterclIbLi0EEEyT_, symObjAddr: 0x1ABAC, symBinAddr: 0x100020FC4, symSize: 0x20 }
  - { offset: 0x7DE46, size: 0x8, addend: 0x0, symName: __ZN3fmt3v116detail19dynamic_spec_getterclIcLi0EEEyT_, symObjAddr: 0x1ABCC, symBinAddr: 0x100020FE4, symSize: 0x20 }
  - { offset: 0x7DE86, size: 0x8, addend: 0x0, symName: __ZN3fmt3v116detail19dynamic_spec_getterclIfLi0EEEyT_, symObjAddr: 0x1ABEC, symBinAddr: 0x100021004, symSize: 0x20 }
  - { offset: 0x7DEC6, size: 0x8, addend: 0x0, symName: __ZN3fmt3v116detail19dynamic_spec_getterclIdLi0EEEyT_, symObjAddr: 0x1AC0C, symBinAddr: 0x100021024, symSize: 0x20 }
  - { offset: 0x7DF06, size: 0x8, addend: 0x0, symName: __ZN3fmt3v116detail19dynamic_spec_getterclIeLi0EEEyT_, symObjAddr: 0x1AC2C, symBinAddr: 0x100021044, symSize: 0x20 }
  - { offset: 0x7DF46, size: 0x8, addend: 0x0, symName: __ZN3fmt3v116detail19dynamic_spec_getterclIPKcLi0EEEyT_, symObjAddr: 0x1AC4C, symBinAddr: 0x100021064, symSize: 0x20 }
  - { offset: 0x7DF86, size: 0x8, addend: 0x0, symName: __ZN3fmt3v116detail19dynamic_spec_getterclINS0_17basic_string_viewIcEELi0EEEyT_, symObjAddr: 0x1AC6C, symBinAddr: 0x100021084, symSize: 0x24 }
  - { offset: 0x7DFC6, size: 0x8, addend: 0x0, symName: __ZN3fmt3v116detail19dynamic_spec_getterclIPKvLi0EEEyT_, symObjAddr: 0x1AC90, symBinAddr: 0x1000210A8, symSize: 0x20 }
  - { offset: 0x7E006, size: 0x8, addend: 0x0, symName: __ZN3fmt3v116detail19dynamic_spec_getterclINS0_16basic_format_argINS0_7contextEE6handleELi0EEEyT_, symObjAddr: 0x1ACB0, symBinAddr: 0x1000210C8, symSize: 0x24 }
  - { offset: 0x7E046, size: 0x8, addend: 0x0, symName: __ZN3fmt3v116detail19dynamic_spec_getterclINS0_9monostateELi0EEEyT_, symObjAddr: 0x1ACD4, symBinAddr: 0x1000210EC, symSize: 0x1C }
  - { offset: 0x7E086, size: 0x8, addend: 0x0, symName: __ZN3fmt3v116detail13arg_formatterIcEclENS0_16basic_format_argINS0_7contextEE6handleE, symObjAddr: 0x1ACF0, symBinAddr: 0x100021108, symSize: 0x18 }
  - { offset: 0x7E0B7, size: 0x8, addend: 0x0, symName: __ZN3fmt3v119loc_valueC1IjLi0EEET_, symObjAddr: 0x1AD08, symBinAddr: 0x100021120, symSize: 0x34 }
  - { offset: 0x7E0FE, size: 0x8, addend: 0x0, symName: __ZN3fmt3v119loc_valueC2IjLi0EEET_, symObjAddr: 0x1AD3C, symBinAddr: 0x100021154, symSize: 0x38 }
  - { offset: 0x7E145, size: 0x8, addend: 0x0, symName: __ZN3fmt3v1116basic_format_argINS0_7contextEEC1IRjEEOT_, symObjAddr: 0x1AD74, symBinAddr: 0x10002118C, symSize: 0x34 }
  - { offset: 0x7E1D4, size: 0x8, addend: 0x0, symName: __ZN3fmt3v1116basic_format_argINS0_7contextEEC2IRjEEOT_, symObjAddr: 0x1ADA8, symBinAddr: 0x1000211C0, symSize: 0x50 }
  - { offset: 0x7E267, size: 0x8, addend: 0x0, symName: __ZN3fmt3v119loc_valueC1IxLi0EEET_, symObjAddr: 0x1ADF8, symBinAddr: 0x100021210, symSize: 0x34 }
  - { offset: 0x7E2BA, size: 0x8, addend: 0x0, symName: __ZN3fmt3v119loc_valueC2IxLi0EEET_, symObjAddr: 0x1B248, symBinAddr: 0x100021660, symSize: 0x38 }
  - { offset: 0x7E306, size: 0x8, addend: 0x0, symName: __ZN3fmt3v1116basic_format_argINS0_7contextEEC1IRxEEOT_, symObjAddr: 0x1B280, symBinAddr: 0x100021698, symSize: 0x34 }
  - { offset: 0x7E395, size: 0x8, addend: 0x0, symName: __ZN3fmt3v1116basic_format_argINS0_7contextEEC2IRxEEOT_, symObjAddr: 0x1B2B4, symBinAddr: 0x1000216CC, symSize: 0x50 }
  - { offset: 0x7E432, size: 0x8, addend: 0x0, symName: __ZZN3fmt3v116detail9write_intIcNS0_14basic_appenderIcEEyEET0_S5_NS1_13write_int_argIT1_EERKNS0_12format_specsEENKUlS4_E_clES4_, symObjAddr: 0x1B4FC, symBinAddr: 0x100021914, symSize: 0xDC }
  - { offset: 0x7E488, size: 0x8, addend: 0x0, symName: __ZN3fmt3v119loc_valueC1IyLi0EEET_, symObjAddr: 0x1B5D8, symBinAddr: 0x1000219F0, symSize: 0x34 }
  - { offset: 0x7E4CF, size: 0x8, addend: 0x0, symName: __ZN3fmt3v119loc_valueC2IyLi0EEET_, symObjAddr: 0x1B60C, symBinAddr: 0x100021A24, symSize: 0x38 }
  - { offset: 0x7E51B, size: 0x8, addend: 0x0, symName: __ZN3fmt3v1116basic_format_argINS0_7contextEEC1IRyEEOT_, symObjAddr: 0x1B644, symBinAddr: 0x100021A5C, symSize: 0x34 }
  - { offset: 0x7E5AA, size: 0x8, addend: 0x0, symName: __ZN3fmt3v1116basic_format_argINS0_7contextEEC2IRyEEOT_, symObjAddr: 0x1B678, symBinAddr: 0x100021A90, symSize: 0x50 }
  - { offset: 0x7E63D, size: 0x8, addend: 0x0, symName: __ZN3fmt3v119loc_valueC1InLi0EEET_, symObjAddr: 0x1B6C8, symBinAddr: 0x100021AE0, symSize: 0x4C }
  - { offset: 0x7E690, size: 0x8, addend: 0x0, symName: __ZN3fmt3v119loc_valueC2InLi0EEET_, symObjAddr: 0x1BB94, symBinAddr: 0x100021FAC, symSize: 0x3C }
  - { offset: 0x7E6DC, size: 0x8, addend: 0x0, symName: __ZN3fmt3v1116basic_format_argINS0_7contextEEC1IRnEEOT_, symObjAddr: 0x1BBD0, symBinAddr: 0x100021FE8, symSize: 0x34 }
  - { offset: 0x7E76B, size: 0x8, addend: 0x0, symName: __ZN3fmt3v1116basic_format_argINS0_7contextEEC2IRnEEOT_, symObjAddr: 0x1BC04, symBinAddr: 0x10002201C, symSize: 0x50 }
  - { offset: 0x7E809, size: 0x8, addend: 0x0, symName: __ZZN3fmt3v116detail9write_intIcNS0_14basic_appenderIcEEoEET0_S5_NS1_13write_int_argIT1_EERKNS0_12format_specsEENKUlS4_E_clES4_, symObjAddr: 0x1BE4C, symBinAddr: 0x100022264, symSize: 0xDC }
  - { offset: 0x7E85F, size: 0x8, addend: 0x0, symName: __ZN3fmt3v119loc_valueC1IoLi0EEET_, symObjAddr: 0x1BF28, symBinAddr: 0x100022340, symSize: 0x4C }
  - { offset: 0x7E8A6, size: 0x8, addend: 0x0, symName: __ZN3fmt3v119loc_valueC2IoLi0EEET_, symObjAddr: 0x1BF74, symBinAddr: 0x10002238C, symSize: 0x3C }
  - { offset: 0x7E8F2, size: 0x8, addend: 0x0, symName: __ZN3fmt3v1116basic_format_argINS0_7contextEEC1IRoEEOT_, symObjAddr: 0x1BFB0, symBinAddr: 0x1000223C8, symSize: 0x34 }
  - { offset: 0x7E981, size: 0x8, addend: 0x0, symName: __ZN3fmt3v1116basic_format_argINS0_7contextEEC2IRoEEOT_, symObjAddr: 0x1BFE4, symBinAddr: 0x1000223FC, symSize: 0x50 }
  - { offset: 0x7EA15, size: 0x8, addend: 0x0, symName: __ZN3fmt3v119loc_valueC1IhLi0EEET_, symObjAddr: 0x1C274, symBinAddr: 0x10002268C, symSize: 0x34 }
  - { offset: 0x7EA5C, size: 0x8, addend: 0x0, symName: __ZN3fmt3v119loc_valueC2IhLi0EEET_, symObjAddr: 0x1C374, symBinAddr: 0x10002278C, symSize: 0x38 }
  - { offset: 0x7EAA8, size: 0x8, addend: 0x0, symName: __ZN3fmt3v1116basic_format_argINS0_7contextEEC1IRhEEOT_, symObjAddr: 0x1C3AC, symBinAddr: 0x1000227C4, symSize: 0x34 }
  - { offset: 0x7EB37, size: 0x8, addend: 0x0, symName: __ZN3fmt3v1116basic_format_argINS0_7contextEEC2IRhEEOT_, symObjAddr: 0x1C3E0, symBinAddr: 0x1000227F8, symSize: 0x50 }
  - { offset: 0x7EBCA, size: 0x8, addend: 0x0, symName: __ZN3fmt3v119loc_valueC1IfLi0EEET_, symObjAddr: 0x1C540, symBinAddr: 0x100022958, symSize: 0x34 }
  - { offset: 0x7EC11, size: 0x8, addend: 0x0, symName: __ZN3fmt3v119loc_valueC2IfLi0EEET_, symObjAddr: 0x1CA38, symBinAddr: 0x100022E50, symSize: 0x34 }
  - { offset: 0x7EC58, size: 0x8, addend: 0x0, symName: __ZN3fmt3v1116basic_format_argINS0_7contextEEC1IRfEEOT_, symObjAddr: 0x1CA6C, symBinAddr: 0x100022E84, symSize: 0x34 }
  - { offset: 0x7ECE7, size: 0x8, addend: 0x0, symName: __ZN3fmt3v1116basic_format_argINS0_7contextEEC2IRfEEOT_, symObjAddr: 0x1CAA0, symBinAddr: 0x100022EB8, symSize: 0x50 }
  - { offset: 0x7ED7A, size: 0x8, addend: 0x0, symName: __ZNKSt3__117integral_constantIbLb1EEcvbB8de190102Ev, symObjAddr: 0x1DA90, symBinAddr: 0x100023EA8, symSize: 0x18 }
  - { offset: 0x7EDA4, size: 0x8, addend: 0x0, symName: __ZN3fmt3v116detail8basic_fpIyEC1IdEET_, symObjAddr: 0x1DB3C, symBinAddr: 0x100023F54, symSize: 0x34 }
  - { offset: 0x7EDE5, size: 0x8, addend: 0x0, symName: __ZN3fmt3v116detail8basic_fpIyEC2IdEET_, symObjAddr: 0x1DB88, symBinAddr: 0x100023FA0, symSize: 0x34 }
  - { offset: 0x7EE26, size: 0x8, addend: 0x0, symName: __ZN3fmt3v116detail8basic_fpIyE6assignIdLi0EEEbT_, symObjAddr: 0x1DBBC, symBinAddr: 0x100023FD4, symSize: 0x108 }
  - { offset: 0x7EED9, size: 0x8, addend: 0x0, symName: __ZZN3fmt3v116detail11write_bytesIcLNS0_5alignE2ENS0_14basic_appenderIcEEEET1_S6_NS0_17basic_string_viewIcEERKNS0_12format_specsEENKUlS5_E_clES5_, symObjAddr: 0x1DEBC, symBinAddr: 0x1000242D4, symSize: 0x74 }
  - { offset: 0x7EF20, size: 0x8, addend: 0x0, symName: __ZN3fmt3v116detail6bufferIcEixIiEERcT_, symObjAddr: 0x1E0C0, symBinAddr: 0x1000244D8, symSize: 0x24 }
  - { offset: 0x7EF67, size: 0x8, addend: 0x0, symName: __ZZN3fmt3v116detail12format_floatIdEEiT_iRKNS0_12format_specsEbRNS1_6bufferIcEEENKUljPcE_clEjSA_, symObjAddr: 0x1E0E4, symBinAddr: 0x1000244FC, symSize: 0x1B0 }
  - { offset: 0x7F014, size: 0x8, addend: 0x0, symName: __ZN3fmt3v116detail8basic_fpIoEC1Ev, symObjAddr: 0x1E2B4, symBinAddr: 0x1000246CC, symSize: 0x2C }
  - { offset: 0x7F03D, size: 0x8, addend: 0x0, symName: __ZN3fmt3v116detail8basic_fpIoE6assignIfLi0EEEbT_, symObjAddr: 0x1E2E0, symBinAddr: 0x1000246F8, symSize: 0x164 }
  - { offset: 0x7F0E6, size: 0x8, addend: 0x0, symName: __ZN3fmt3v116detail8basic_fpIoE6assignIdLi0EEEbT_, symObjAddr: 0x1E444, symBinAddr: 0x10002485C, symSize: 0x160 }
  - { offset: 0x7F18F, size: 0x8, addend: 0x0, symName: __ZN3fmt3v116detail6bufferIcEixImEERcT_, symObjAddr: 0x1EFF8, symBinAddr: 0x100025410, symSize: 0x24 }
  - { offset: 0x7F1CC, size: 0x8, addend: 0x0, symName: __ZN3fmt3v116detail8basic_fpIoEC2Ev, symObjAddr: 0x1F01C, symBinAddr: 0x100025434, symSize: 0x28 }
  - { offset: 0x7F1F5, size: 0x8, addend: 0x0, symName: __ZN3fmt3v116detail6bigintC1Ev, symObjAddr: 0x1F044, symBinAddr: 0x10002545C, symSize: 0x2C }
  - { offset: 0x7F21E, size: 0x8, addend: 0x0, symName: __ZN3fmt3v116detail6bigintaSIoEEvT_, symObjAddr: 0x1F070, symBinAddr: 0x100025488, symSize: 0xA0 }
  - { offset: 0x7F25B, size: 0x8, addend: 0x0, symName: __ZN3fmt3v116detail6bigintlSEi, symObjAddr: 0x1F110, symBinAddr: 0x100025528, symSize: 0x170 }
  - { offset: 0x7F2E9, size: 0x8, addend: 0x0, symName: __ZN3fmt3v116detail6bigintaSIiEEvT_, symObjAddr: 0x1F280, symBinAddr: 0x100025698, symSize: 0x60 }
  - { offset: 0x7F326, size: 0x8, addend: 0x0, symName: __ZN3fmt3v116detail6bigint12assign_pow10Ei, symObjAddr: 0x1F2E0, symBinAddr: 0x1000256F8, symSize: 0x10C }
  - { offset: 0x7F369, size: 0x8, addend: 0x0, symName: __ZN3fmt3v116detail6bigint6assignERKS2_, symObjAddr: 0x1F3EC, symBinAddr: 0x100025804, symSize: 0x9C }
  - { offset: 0x7F3BB, size: 0x8, addend: 0x0, symName: __ZN3fmt3v116detail6bigintmLIoEERS2_T_, symObjAddr: 0x1F488, symBinAddr: 0x1000258A0, symSize: 0xA4 }
  - { offset: 0x7F3F8, size: 0x8, addend: 0x0, symName: __ZN3fmt3v116detail6bigintaSIyEEvT_, symObjAddr: 0x1F52C, symBinAddr: 0x100025944, symSize: 0x60 }
  - { offset: 0x7F435, size: 0x8, addend: 0x0, symName: __ZN3fmt3v116detail6bigintmLIiEERS2_T_, symObjAddr: 0x1F748, symBinAddr: 0x100025B60, symSize: 0x64 }
  - { offset: 0x7F472, size: 0x8, addend: 0x0, symName: __ZN3fmt3v116detail6bigint13divmod_assignERKS2_, symObjAddr: 0x1F7AC, symBinAddr: 0x100025BC4, symSize: 0x10C }
  - { offset: 0x7F4B5, size: 0x8, addend: 0x0, symName: __ZN3fmt3v116detail6bigintD1Ev, symObjAddr: 0x1FA38, symBinAddr: 0x100025E50, symSize: 0x2C }
  - { offset: 0x7F4E1, size: 0x8, addend: 0x0, symName: __ZN3fmt3v116detail6bigintC2Ev, symObjAddr: 0x1FA64, symBinAddr: 0x100025E7C, symSize: 0x34 }
  - { offset: 0x7F50A, size: 0x8, addend: 0x0, symName: __ZN3fmt3v1119basic_memory_bufferIjLm32ENS0_6detail9allocatorIjEEEC1ERKS4_, symObjAddr: 0x1FA98, symBinAddr: 0x100025EB0, symSize: 0x34 }
  - { offset: 0x7F542, size: 0x8, addend: 0x0, symName: __ZN3fmt3v1119basic_memory_bufferIjLm32ENS0_6detail9allocatorIjEEEC2ERKS4_, symObjAddr: 0x1FACC, symBinAddr: 0x100025EE4, symSize: 0x58 }
  - { offset: 0x7F57A, size: 0x8, addend: 0x0, symName: __ZN3fmt3v1119basic_memory_bufferIjLm32ENS0_6detail9allocatorIjEEE4growERNS2_6bufferIjEEm, symObjAddr: 0x1FB24, symBinAddr: 0x100025F3C, symSize: 0x160 }
  - { offset: 0x7F607, size: 0x8, addend: 0x0, symName: __ZN3fmt3v116detail6bufferIjEC2EPFvRS3_mEPjmm, symObjAddr: 0x1FC84, symBinAddr: 0x10002609C, symSize: 0x44 }
  - { offset: 0x7F66C, size: 0x8, addend: 0x0, symName: __ZN3fmt3v116detail6bufferIjE3setEPjm, symObjAddr: 0x1FCC8, symBinAddr: 0x1000260E0, symSize: 0x2C }
  - { offset: 0x7F6BE, size: 0x8, addend: 0x0, symName: __ZNSt3__116allocator_traitsIN3fmt3v116detail9allocatorIjEEE8max_sizeB8de190102IS5_vLi0EEEmRKS5_, symObjAddr: 0x1FCF4, symBinAddr: 0x10002610C, symSize: 0x28 }
  - { offset: 0x7F6F0, size: 0x8, addend: 0x0, symName: __ZNK3fmt3v116detail6bufferIjE8capacityEv, symObjAddr: 0x1FD1C, symBinAddr: 0x100026134, symSize: 0x18 }
  - { offset: 0x7F715, size: 0x8, addend: 0x0, symName: __ZN3fmt3v116detail6bufferIjE4dataEv, symObjAddr: 0x1FD34, symBinAddr: 0x10002614C, symSize: 0x18 }
  - { offset: 0x7F73A, size: 0x8, addend: 0x0, symName: __ZN3fmt3v116detail9allocatorIjE8allocateEm, symObjAddr: 0x1FD4C, symBinAddr: 0x100026164, symSize: 0xA8 }
  - { offset: 0x7F77D, size: 0x8, addend: 0x0, symName: __ZNK3fmt3v116detail6bufferIjE4sizeEv, symObjAddr: 0x1FDF4, symBinAddr: 0x10002620C, symSize: 0x18 }
  - { offset: 0x7F7A2, size: 0x8, addend: 0x0, symName: __ZN3fmt3v116detail9allocatorIjE10deallocateEPjm, symObjAddr: 0x1FE0C, symBinAddr: 0x100026224, symSize: 0x2C }
  - { offset: 0x7F7E2, size: 0x8, addend: 0x0, symName: __ZN3fmt3v116detail6bigint6assignIoLi0EEEvT_, symObjAddr: 0x1FE38, symBinAddr: 0x100026250, symSize: 0xD0 }
  - { offset: 0x7F834, size: 0x8, addend: 0x0, symName: __ZN3fmt3v116detail6bufferIjEixImEERjT_, symObjAddr: 0x1FF08, symBinAddr: 0x100026320, symSize: 0x24 }
  - { offset: 0x7F871, size: 0x8, addend: 0x0, symName: __ZN3fmt3v1119basic_memory_bufferIjLm32ENS0_6detail9allocatorIjEEE6resizeEm, symObjAddr: 0x1FF2C, symBinAddr: 0x100026344, symSize: 0x2C }
  - { offset: 0x7F8A5, size: 0x8, addend: 0x0, symName: __ZN3fmt3v116detail6bufferIjE10try_resizeEm, symObjAddr: 0x1FF58, symBinAddr: 0x100026370, symSize: 0x48 }
  - { offset: 0x7F8D9, size: 0x8, addend: 0x0, symName: __ZN3fmt3v116detail6bufferIjE11try_reserveEm, symObjAddr: 0x1FFA0, symBinAddr: 0x1000263B8, symSize: 0x50 }
  - { offset: 0x7F90D, size: 0x8, addend: 0x0, symName: __ZN3fmt3v116detail6bufferIjE9push_backERKj, symObjAddr: 0x1FFF0, symBinAddr: 0x100026408, symSize: 0x54 }
  - { offset: 0x7F941, size: 0x8, addend: 0x0, symName: __ZN3fmt3v116detail6bigint6assignIyLi0EEEvT_, symObjAddr: 0x20044, symBinAddr: 0x10002645C, symSize: 0x84 }
  - { offset: 0x7F993, size: 0x8, addend: 0x0, symName: __ZN3fmt3v116detail6bigint6squareEv, symObjAddr: 0x200D0, symBinAddr: 0x1000264E8, symSize: 0x418 }
  - { offset: 0x7FA8C, size: 0x8, addend: 0x0, symName: __ZN3fmt3v1119basic_memory_bufferIjLm32ENS0_6detail9allocatorIjEEEC1EOS5_, symObjAddr: 0x204E8, symBinAddr: 0x100026900, symSize: 0x34 }
  - { offset: 0x7FAC4, size: 0x8, addend: 0x0, symName: __ZN3fmt3v116detail6bufferIjEixIiEERjT_, symObjAddr: 0x2051C, symBinAddr: 0x100026934, symSize: 0x24 }
  - { offset: 0x7FB01, size: 0x8, addend: 0x0, symName: __ZN3fmt3v116detail6bigint20remove_leading_zerosEv, symObjAddr: 0x20540, symBinAddr: 0x100026958, symSize: 0xAC }
  - { offset: 0x7FB35, size: 0x8, addend: 0x0, symName: __ZN3fmt3v1119basic_memory_bufferIjLm32ENS0_6detail9allocatorIjEEED1Ev, symObjAddr: 0x205EC, symBinAddr: 0x100026A04, symSize: 0x2C }
  - { offset: 0x7FB5E, size: 0x8, addend: 0x0, symName: __ZN3fmt3v1119basic_memory_bufferIjLm32ENS0_6detail9allocatorIjEEEC2EOS5_, symObjAddr: 0x20618, symBinAddr: 0x100026A30, symSize: 0x58 }
  - { offset: 0x7FB96, size: 0x8, addend: 0x0, symName: __ZN3fmt3v1119basic_memory_bufferIjLm32ENS0_6detail9allocatorIjEEE4moveERS5_, symObjAddr: 0x20670, symBinAddr: 0x100026A88, symSize: 0xDC }
  - { offset: 0x7FBF7, size: 0x8, addend: 0x0, symName: __ZN3fmt3v116detail6bufferIjE5clearEv, symObjAddr: 0x207A4, symBinAddr: 0x100026BBC, symSize: 0x18 }
  - { offset: 0x7FC1C, size: 0x8, addend: 0x0, symName: __ZN3fmt3v1119basic_memory_bufferIjLm32ENS0_6detail9allocatorIjEEED2Ev, symObjAddr: 0x207BC, symBinAddr: 0x100026BD4, symSize: 0x34 }
  - { offset: 0x7FC45, size: 0x8, addend: 0x0, symName: __ZN3fmt3v1119basic_memory_bufferIjLm32ENS0_6detail9allocatorIjEEE10deallocateEv, symObjAddr: 0x207F0, symBinAddr: 0x100026C08, symSize: 0x74 }
  - { offset: 0x7FC79, size: 0x8, addend: 0x0, symName: __ZNK3fmt3v116detail6bufferIjE4dataEv, symObjAddr: 0x20864, symBinAddr: 0x100026C7C, symSize: 0x18 }
  - { offset: 0x7FC9E, size: 0x8, addend: 0x0, symName: __ZNK3fmt3v116detail6bigint10num_bigitsEv, symObjAddr: 0x20BF8, symBinAddr: 0x100027010, symSize: 0x38 }
  - { offset: 0x7FCC3, size: 0x8, addend: 0x0, symName: __ZNK3fmt3v116detail6bigint9get_bigitEi, symObjAddr: 0x20C30, symBinAddr: 0x100027048, symSize: 0x8C }
  - { offset: 0x7FCF7, size: 0x8, addend: 0x0, symName: __ZNK3fmt3v116detail6bufferIjEixIiEERKjT_, symObjAddr: 0x20CBC, symBinAddr: 0x1000270D4, symSize: 0x24 }
  - { offset: 0x7FD34, size: 0x8, addend: 0x0, symName: __ZN3fmt3v116detail6bigint8multiplyEj, symObjAddr: 0x20CE0, symBinAddr: 0x1000270F8, symSize: 0xD8 }
  - { offset: 0x7FDD1, size: 0x8, addend: 0x0, symName: __ZNK3fmt3v116detail6bufferIjEixImEERKjT_, symObjAddr: 0x20DB8, symBinAddr: 0x1000271D0, symSize: 0x24 }
  - { offset: 0x7FE0E, size: 0x8, addend: 0x0, symName: __ZN3fmt3v116detail6bigint5alignERKS2_, symObjAddr: 0x20DDC, symBinAddr: 0x1000271F4, symSize: 0x13C }
  - { offset: 0x7FE8D, size: 0x8, addend: 0x0, symName: __ZN3fmt3v116detail6bigint16subtract_alignedERKS2_, symObjAddr: 0x20F18, symBinAddr: 0x100027330, symSize: 0x170 }
  - { offset: 0x7FF0C, size: 0x8, addend: 0x0, symName: __ZN3fmt3v116detail6bigint15subtract_bigitsEijRj, symObjAddr: 0x21088, symBinAddr: 0x1000274A0, symSize: 0x84 }
  - { offset: 0x7FF6D, size: 0x8, addend: 0x0, symName: __ZN3fmt3v116detail6bigintD2Ev, symObjAddr: 0x2110C, symBinAddr: 0x100027524, symSize: 0x2C }
  - { offset: 0x7FFA3, size: 0x8, addend: 0x0, symName: __ZZN3fmt3v116detail14do_write_floatIcNS0_14basic_appenderIcEENS1_14big_decimal_fpENS1_14digit_groupingIcEEEET0_S8_RKT1_RKNS0_12format_specsENS0_4signEiNS1_10locale_refEENKUlvE_clEv, symObjAddr: 0x2188C, symBinAddr: 0x100027CA4, symSize: 0x104 }
  - { offset: 0x7FFE5, size: 0x8, addend: 0x0, symName: __ZZN3fmt3v116detail14do_write_floatIcNS0_14basic_appenderIcEENS1_14big_decimal_fpENS1_14digit_groupingIcEEEET0_S8_RKT1_RKNS0_12format_specsENS0_4signEiNS1_10locale_refEENKUlS4_E_clES4_, symObjAddr: 0x219E0, symBinAddr: 0x100027DF8, symSize: 0x12C }
  - { offset: 0x80031, size: 0x8, addend: 0x0, symName: __ZZN3fmt3v116detail14do_write_floatIcNS0_14basic_appenderIcEENS1_14big_decimal_fpENS1_14digit_groupingIcEEEET0_S8_RKT1_RKNS0_12format_specsENS0_4signEiNS1_10locale_refEENKUlS4_E0_clES4_, symObjAddr: 0x2201C, symBinAddr: 0x100028434, symSize: 0x158 }
  - { offset: 0x80073, size: 0x8, addend: 0x0, symName: __ZZN3fmt3v116detail14do_write_floatIcNS0_14basic_appenderIcEENS1_14big_decimal_fpENS1_14digit_groupingIcEEEET0_S8_RKT1_RKNS0_12format_specsENS0_4signEiNS1_10locale_refEENKUlS4_E1_clES4_, symObjAddr: 0x22564, symBinAddr: 0x10002897C, symSize: 0x108 }
  - { offset: 0x800B5, size: 0x8, addend: 0x0, symName: __ZZN3fmt3v116detail14do_write_floatIcNS0_14basic_appenderIcEENS1_14big_decimal_fpENS1_14digit_groupingIcEEEET0_S8_RKT1_RKNS0_12format_specsENS0_4signEiNS1_10locale_refEENKUlS4_E2_clES4_, symObjAddr: 0x229FC, symBinAddr: 0x100028E14, symSize: 0x148 }
  - { offset: 0x800ED, size: 0x8, addend: 0x0, symName: __ZN3fmt3v119loc_valueC1IdLi0EEET_, symObjAddr: 0x22C3C, symBinAddr: 0x100029054, symSize: 0x34 }
  - { offset: 0x80134, size: 0x8, addend: 0x0, symName: __ZN3fmt3v119loc_valueC2IdLi0EEET_, symObjAddr: 0x23128, symBinAddr: 0x100029540, symSize: 0x34 }
  - { offset: 0x80180, size: 0x8, addend: 0x0, symName: __ZN3fmt3v1116basic_format_argINS0_7contextEEC1IRdEEOT_, symObjAddr: 0x2315C, symBinAddr: 0x100029574, symSize: 0x34 }
  - { offset: 0x8020F, size: 0x8, addend: 0x0, symName: __ZN3fmt3v1116basic_format_argINS0_7contextEEC2IRdEEOT_, symObjAddr: 0x23190, symBinAddr: 0x1000295A8, symSize: 0x50 }
  - { offset: 0x802A2, size: 0x8, addend: 0x0, symName: __ZNKSt3__117integral_constantIbLb0EEcvbB8de190102Ev, symObjAddr: 0x23230, symBinAddr: 0x100029648, symSize: 0x18 }
  - { offset: 0x802C7, size: 0x8, addend: 0x0, symName: __ZN3fmt3v119loc_valueC1IeLi0EEET_, symObjAddr: 0x23370, symBinAddr: 0x100029788, symSize: 0x34 }
  - { offset: 0x8030E, size: 0x8, addend: 0x0, symName: __ZN3fmt3v119loc_valueC2IeLi0EEET_, symObjAddr: 0x2386C, symBinAddr: 0x100029C84, symSize: 0x34 }
  - { offset: 0x8035A, size: 0x8, addend: 0x0, symName: __ZN3fmt3v1116basic_format_argINS0_7contextEEC1IReEEOT_, symObjAddr: 0x238A0, symBinAddr: 0x100029CB8, symSize: 0x34 }
  - { offset: 0x803E9, size: 0x8, addend: 0x0, symName: __ZN3fmt3v1116basic_format_argINS0_7contextEEC2IReEEOT_, symObjAddr: 0x238D4, symBinAddr: 0x100029CEC, symSize: 0x50 }
  - { offset: 0x8047C, size: 0x8, addend: 0x0, symName: __ZN3fmt3v116detail15counting_bufferIcEC1Ev, symObjAddr: 0x23D7C, symBinAddr: 0x10002A194, symSize: 0x2C }
  - { offset: 0x804A5, size: 0x8, addend: 0x0, symName: __ZNK3fmt3v116detail15counting_bufferIcE5countEv, symObjAddr: 0x23ED0, symBinAddr: 0x10002A2E8, symSize: 0x34 }
  - { offset: 0x804D9, size: 0x8, addend: 0x0, symName: __ZZN3fmt3v116detail18for_each_codepointIZNS1_16code_point_indexENS0_17basic_string_viewIcEEmEUljS4_E_EEvS4_T_ENKUlPKcS8_E_clES8_S8_, symObjAddr: 0x242A0, symBinAddr: 0x10002A6B8, symSize: 0x124 }
  - { offset: 0x80566, size: 0x8, addend: 0x0, symName: __ZZN3fmt3v116detail16code_point_indexENS0_17basic_string_viewIcEEmENKUljS3_E_clEjS3_, symObjAddr: 0x246A0, symBinAddr: 0x10002AAB8, symSize: 0xA8 }
  - { offset: 0x805AA, size: 0x8, addend: 0x0, symName: __ZN3fmt3v116detail15counting_bufferIcEC2Ev, symObjAddr: 0x24748, symBinAddr: 0x10002AB60, symSize: 0x48 }
  - { offset: 0x805D3, size: 0x8, addend: 0x0, symName: __ZN3fmt3v116detail15counting_bufferIcE4growERNS1_6bufferIcEEm, symObjAddr: 0x24790, symBinAddr: 0x10002ABA8, symSize: 0x5C }
  - { offset: 0x80612, size: 0x8, addend: 0x0, symName: __ZZN3fmt3v116detail18for_each_codepointIZNS1_11find_escapeEPKcS4_EUljNS0_17basic_string_viewIcEEE_EEvS6_T_ENKUlS4_S4_E_clES4_S4_, symObjAddr: 0x24A00, symBinAddr: 0x10002AE18, symSize: 0x124 }
  - { offset: 0x8069F, size: 0x8, addend: 0x0, symName: __ZZN3fmt3v116detail11find_escapeEPKcS3_ENKUljNS0_17basic_string_viewIcEEE_clEjS5_, symObjAddr: 0x24B24, symBinAddr: 0x10002AF3C, symSize: 0xB0 }
  - { offset: 0x806F0, size: 0x8, addend: 0x0, symName: __ZZN3fmt3v116detail18for_each_codepointIZNS1_13compute_widthENS0_17basic_string_viewIcEEE17count_code_pointsEEvS4_T_ENKUlPKcS8_E_clES8_S8_, symObjAddr: 0x24D74, symBinAddr: 0x10002B18C, symSize: 0x124 }
  - { offset: 0x80773, size: 0x8, addend: 0x0, symName: __ZZN3fmt3v116detail13compute_widthENS0_17basic_string_viewIcEEENK17count_code_pointsclEjS3_, symObjAddr: 0x24E98, symBinAddr: 0x10002B2B0, symSize: 0x320 }
  - { offset: 0x807C1, size: 0x8, addend: 0x0, symName: __ZZN3fmt3v116detail5writeIcNS0_14basic_appenderIcEEEET0_S5_NS0_17basic_string_viewIT_EERKNS0_12format_specsEENKUlS4_E_clES4_, symObjAddr: 0x251B8, symBinAddr: 0x10002B5D0, symSize: 0x90 }
  - { offset: 0x807F9, size: 0x8, addend: 0x0, symName: __ZN3fmt3v1113parse_contextIcEC2ENS0_17basic_string_viewIcEEi, symObjAddr: 0x2527C, symBinAddr: 0x10002B694, symSize: 0x30 }
  - { offset: 0x80840, size: 0x8, addend: 0x0, symName: __ZN3fmt3v117contextC2ENS0_14basic_appenderIcEENS0_17basic_format_argsIS1_EENS0_6detail10locale_refE, symObjAddr: 0x252AC, symBinAddr: 0x10002B6C4, symSize: 0x3C }
  - { offset: 0x80896, size: 0x8, addend: 0x0, symName: __ZN3fmt3v116detail10locale_refC2Ev, symObjAddr: 0x252E8, symBinAddr: 0x10002B700, symSize: 0x18 }
  - { offset: 0x808BF, size: 0x8, addend: 0x0, symName: __ZNSt3__120back_insert_iteratorIN3fmt3v1119basic_memory_bufferIcLm250ENS2_6detail9allocatorIcEEEEEC1B8de190102ERS7_, symObjAddr: 0x25300, symBinAddr: 0x10002B718, symSize: 0x34 }
  - { offset: 0x808F6, size: 0x8, addend: 0x0, symName: __ZNSt3__120back_insert_iteratorIN3fmt3v1119basic_memory_bufferIcLm250ENS2_6detail9allocatorIcEEEEEC2B8de190102ERS7_, symObjAddr: 0x25334, symBinAddr: 0x10002B74C, symSize: 0x20 }
  - { offset: 0x8092D, size: 0x8, addend: 0x0, symName: __ZZZN6spdlog7details10fmt_helper4pad2EiRN3fmt3v1119basic_memory_bufferIcLm250ENS3_6detail9allocatorIcEEEEENKUlvE_clEvENK18FMT_COMPILE_STRINGcvNS3_17basic_string_viewIcEEEv, symObjAddr: 0x25364, symBinAddr: 0x10002B77C, symSize: 0x38 }
  - { offset: 0x80956, size: 0x8, addend: 0x0, symName: __ZNSt3__16chrono8durationIxNS_5ratioILl1ELl1000EEEEC1B8de190102IxLi0EEERKT_, symObjAddr: 0x254E4, symBinAddr: 0x10002B8E8, symSize: 0x34 }
  - { offset: 0x8099C, size: 0x8, addend: 0x0, symName: __ZNSt3__16chrono8durationIxNS_5ratioILl1ELl1000EEEEC2B8de190102IxLi0EEERKT_, symObjAddr: 0x25518, symBinAddr: 0x10002B91C, symSize: 0x24 }
  - { offset: 0x809E2, size: 0x8, addend: 0x0, symName: __ZN3fmt3v1110format_intC1Ej, symObjAddr: 0x2566C, symBinAddr: 0x10002BA70, symSize: 0x34 }
  - { offset: 0x80A1A, size: 0x8, addend: 0x0, symName: __ZN3fmt3v1110format_intC2Ej, symObjAddr: 0x256A0, symBinAddr: 0x10002BAA4, symSize: 0x3C }
  - { offset: 0x80A51, size: 0x8, addend: 0x0, symName: __Z7strrchrB8de190102Ua9enable_ifIXLb1EEEPKci, symObjAddr: 0x256DC, symBinAddr: 0x10002BAE0, symSize: 0x2C }
  - { offset: 0x80A8C, size: 0x8, addend: 0x0, symName: __ZNSt3__110unique_ptrIN6spdlog7details14full_formatterENS_14default_deleteIS3_EEEC2B8de190102ILb1EvEEPS3_, symObjAddr: 0x25708, symBinAddr: 0x10002BB0C, symSize: 0x44 }
  - { offset: 0x80ACF, size: 0x8, addend: 0x0, symName: __ZNSt3__117__compressed_pairIPN6spdlog7details14full_formatterENS_14default_deleteIS3_EEEC1B8de190102IRS4_NS_16__value_init_tagEEEOT_OT0_, symObjAddr: 0x2574C, symBinAddr: 0x10002BB50, symSize: 0x3C }
  - { offset: 0x80B26, size: 0x8, addend: 0x0, symName: __ZNSt3__117__compressed_pairIPN6spdlog7details14full_formatterENS_14default_deleteIS3_EEEC2B8de190102IRS4_NS_16__value_init_tagEEEOT_OT0_, symObjAddr: 0x25788, symBinAddr: 0x10002BB8C, symSize: 0x40 }
  - { offset: 0x80B7D, size: 0x8, addend: 0x0, symName: __ZNSt3__122__compressed_pair_elemIPN6spdlog7details14full_formatterELi0ELb0EEC2B8de190102IRS4_Li0EEEOT_, symObjAddr: 0x257C8, symBinAddr: 0x10002BBCC, symSize: 0x24 }
  - { offset: 0x80BC3, size: 0x8, addend: 0x0, symName: __ZNSt3__122__compressed_pair_elemINS_14default_deleteIN6spdlog7details14full_formatterEEELi1ELb1EEC2B8de190102ENS_16__value_init_tagE, symObjAddr: 0x257EC, symBinAddr: 0x10002BBF0, symSize: 0x14 }
  - { offset: 0x80BF7, size: 0x8, addend: 0x0, symName: __ZN6spdlog7details12padding_infoC2Ev, symObjAddr: 0x25800, symBinAddr: 0x10002BC04, symSize: 0x24 }
  - { offset: 0x80C20, size: 0x8, addend: 0x0, symName: __ZNSt3__110unique_ptrIN6spdlog7details14flag_formatterENS_14default_deleteIS3_EEEC2B8de190102INS2_14full_formatterENS4_IS8_EEvvEEONS0_IT_T0_EE, symObjAddr: 0x25824, symBinAddr: 0x10002BC28, symSize: 0x60 }
  - { offset: 0x80C6D, size: 0x8, addend: 0x0, symName: __ZNSt3__110unique_ptrIN6spdlog7details14full_formatterENS_14default_deleteIS3_EEE7releaseB8de190102Ev, symObjAddr: 0x25884, symBinAddr: 0x10002BC88, symSize: 0x44 }
  - { offset: 0x80CA1, size: 0x8, addend: 0x0, symName: __ZNSt3__110unique_ptrIN6spdlog7details14full_formatterENS_14default_deleteIS3_EEE11get_deleterB8de190102Ev, symObjAddr: 0x258C8, symBinAddr: 0x10002BCCC, symSize: 0x24 }
  - { offset: 0x80CD0, size: 0x8, addend: 0x0, symName: __ZNSt3__117__compressed_pairIPN6spdlog7details14flag_formatterENS_14default_deleteIS3_EEEC1B8de190102IPNS2_14full_formatterENS5_IS9_EEEEOT_OT0_, symObjAddr: 0x258EC, symBinAddr: 0x10002BCF0, symSize: 0x3C }
  - { offset: 0x80D27, size: 0x8, addend: 0x0, symName: __ZNSt3__117__compressed_pairIPN6spdlog7details14full_formatterENS_14default_deleteIS3_EEE5firstB8de190102Ev, symObjAddr: 0x25928, symBinAddr: 0x10002BD2C, symSize: 0x24 }
  - { offset: 0x80D4C, size: 0x8, addend: 0x0, symName: __ZNSt3__122__compressed_pair_elemIPN6spdlog7details14full_formatterELi0ELb0EE5__getB8de190102Ev, symObjAddr: 0x2594C, symBinAddr: 0x10002BD50, symSize: 0x14 }
  - { offset: 0x80D71, size: 0x8, addend: 0x0, symName: __ZNSt3__117__compressed_pairIPN6spdlog7details14full_formatterENS_14default_deleteIS3_EEE6secondB8de190102Ev, symObjAddr: 0x25960, symBinAddr: 0x10002BD64, symSize: 0x24 }
  - { offset: 0x80D96, size: 0x8, addend: 0x0, symName: __ZNSt3__122__compressed_pair_elemINS_14default_deleteIN6spdlog7details14full_formatterEEELi1ELb1EE5__getB8de190102Ev, symObjAddr: 0x25984, symBinAddr: 0x10002BD88, symSize: 0x14 }
  - { offset: 0x80DBB, size: 0x8, addend: 0x0, symName: __ZNSt3__117__compressed_pairIPN6spdlog7details14flag_formatterENS_14default_deleteIS3_EEEC2B8de190102IPNS2_14full_formatterENS5_IS9_EEEEOT_OT0_, symObjAddr: 0x25998, symBinAddr: 0x10002BD9C, symSize: 0x44 }
  - { offset: 0x80E12, size: 0x8, addend: 0x0, symName: __ZNSt3__122__compressed_pair_elemIPN6spdlog7details14flag_formatterELi0ELb0EEC2B8de190102IPNS2_14full_formatterELi0EEEOT_, symObjAddr: 0x259DC, symBinAddr: 0x10002BDE0, symSize: 0x24 }
  - { offset: 0x80E58, size: 0x8, addend: 0x0, symName: __ZNSt3__122__compressed_pair_elemINS_14default_deleteIN6spdlog7details14flag_formatterEEELi1ELb1EEC2B8de190102INS1_INS3_14full_formatterEEELi0EEEOT_, symObjAddr: 0x25A00, symBinAddr: 0x10002BE04, symSize: 0x34 }
  - { offset: 0x80E9E, size: 0x8, addend: 0x0, symName: __ZNSt3__114default_deleteIN6spdlog7details14flag_formatterEEC2B8de190102INS2_14full_formatterELi0EEERKNS0_IT_EE, symObjAddr: 0x25A34, symBinAddr: 0x10002BE38, symSize: 0x18 }
  - { offset: 0x80EE1, size: 0x8, addend: 0x0, symName: __ZNSt3__110unique_ptrIN6spdlog7details14flag_formatterENS_14default_deleteIS3_EEED2B8de190102Ev, symObjAddr: 0x25A4C, symBinAddr: 0x10002BE50, symSize: 0x30 }
  - { offset: 0x80F0A, size: 0x8, addend: 0x0, symName: __ZNSt3__110unique_ptrIN6spdlog7details14flag_formatterENS_14default_deleteIS3_EEE5resetB8de190102EPS3_, symObjAddr: 0x25A7C, symBinAddr: 0x10002BE80, symSize: 0x70 }
  - { offset: 0x80F4D, size: 0x8, addend: 0x0, symName: __ZNKSt3__114default_deleteIN6spdlog7details14flag_formatterEEclB8de190102EPS3_, symObjAddr: 0x25AEC, symBinAddr: 0x10002BEF0, symSize: 0x44 }
  - { offset: 0x80F80, size: 0x8, addend: 0x0, symName: __ZNSt3__110unique_ptrIN6spdlog7details14full_formatterENS_14default_deleteIS3_EEED2B8de190102Ev, symObjAddr: 0x25B30, symBinAddr: 0x10002BF34, symSize: 0x30 }
  - { offset: 0x80FA9, size: 0x8, addend: 0x0, symName: __ZNSt3__110unique_ptrIN6spdlog7details14full_formatterENS_14default_deleteIS3_EEE5resetB8de190102EPS3_, symObjAddr: 0x25B60, symBinAddr: 0x10002BF64, symSize: 0x70 }
  - { offset: 0x80FEC, size: 0x8, addend: 0x0, symName: __ZNKSt3__114default_deleteIN6spdlog7details14full_formatterEEclB8de190102EPS3_, symObjAddr: 0x25BD0, symBinAddr: 0x10002BFD4, symSize: 0x44 }
  - { offset: 0x8101F, size: 0x8, addend: 0x0, symName: __ZNSt3__16vectorINS_10unique_ptrIN6spdlog7details14flag_formatterENS_14default_deleteIS4_EEEENS_9allocatorIS7_EEED2B8de190102Ev, symObjAddr: 0x25C14, symBinAddr: 0x10002C018, symSize: 0x44 }
  - { offset: 0x81048, size: 0x8, addend: 0x0, symName: __ZNSt3__16vectorINS_10unique_ptrIN6spdlog7details14flag_formatterENS_14default_deleteIS4_EEEENS_9allocatorIS7_EEE16__destroy_vectorC1B8de190102ERSA_, symObjAddr: 0x25C58, symBinAddr: 0x10002C05C, symSize: 0x34 }
  - { offset: 0x81080, size: 0x8, addend: 0x0, symName: __ZNSt3__16vectorINS_10unique_ptrIN6spdlog7details14flag_formatterENS_14default_deleteIS4_EEEENS_9allocatorIS7_EEE16__destroy_vectorclB8de190102Ev, symObjAddr: 0x25C8C, symBinAddr: 0x10002C090, symSize: 0x88 }
  - { offset: 0x810A5, size: 0x8, addend: 0x0, symName: __ZNSt3__16vectorINS_10unique_ptrIN6spdlog7details14flag_formatterENS_14default_deleteIS4_EEEENS_9allocatorIS7_EEE16__destroy_vectorC2B8de190102ERSA_, symObjAddr: 0x25D14, symBinAddr: 0x10002C118, symSize: 0x20 }
  - { offset: 0x810DD, size: 0x8, addend: 0x0, symName: __ZNSt3__16vectorINS_10unique_ptrIN6spdlog7details14flag_formatterENS_14default_deleteIS4_EEEENS_9allocatorIS7_EEE7__clearB8de190102Ev, symObjAddr: 0x25D34, symBinAddr: 0x10002C138, symSize: 0x28 }
  - { offset: 0x81102, size: 0x8, addend: 0x0, symName: __ZNSt3__16vectorINS_10unique_ptrIN6spdlog7details14flag_formatterENS_14default_deleteIS4_EEEENS_9allocatorIS7_EEE22__base_destruct_at_endB8de190102EPS7_, symObjAddr: 0x25D5C, symBinAddr: 0x10002C160, symSize: 0x88 }
  - { offset: 0x81144, size: 0x8, addend: 0x0, symName: __ZN6spdlog17pattern_formatterD2Ev, symObjAddr: 0x25DE4, symBinAddr: 0x10002C1E8, symSize: 0x5C }
  - { offset: 0x8116F, size: 0x8, addend: 0x0, symName: __ZN6spdlog17pattern_formatter9get_time_ERKNS_7details7log_msgE, symObjAddr: 0x25E40, symBinAddr: 0x10002C244, symSize: 0x7C }
  - { offset: 0x811A6, size: 0x8, addend: 0x0, symName: __ZNSt3__16vectorINS_10unique_ptrIN6spdlog7details14flag_formatterENS_14default_deleteIS4_EEEENS_9allocatorIS7_EEE5beginB8de190102Ev, symObjAddr: 0x25EBC, symBinAddr: 0x10002C2C0, symSize: 0x30 }
  - { offset: 0x811CB, size: 0x8, addend: 0x0, symName: __ZNSt3__16vectorINS_10unique_ptrIN6spdlog7details14flag_formatterENS_14default_deleteIS4_EEEENS_9allocatorIS7_EEE3endB8de190102Ev, symObjAddr: 0x25EEC, symBinAddr: 0x10002C2F0, symSize: 0x30 }
  - { offset: 0x811F0, size: 0x8, addend: 0x0, symName: __ZNKSt3__111__wrap_iterIPNS_10unique_ptrIN6spdlog7details14flag_formatterENS_14default_deleteIS4_EEEEEdeB8de190102Ev, symObjAddr: 0x25F4C, symBinAddr: 0x10002C350, symSize: 0x18 }
  - { offset: 0x81215, size: 0x8, addend: 0x0, symName: __ZNKSt3__110unique_ptrIN6spdlog7details14flag_formatterENS_14default_deleteIS3_EEEptB8de190102Ev, symObjAddr: 0x25F64, symBinAddr: 0x10002C368, symSize: 0x28 }
  - { offset: 0x8123A, size: 0x8, addend: 0x0, symName: __ZNSt3__111__wrap_iterIPNS_10unique_ptrIN6spdlog7details14flag_formatterENS_14default_deleteIS4_EEEEEppB8de190102Ev, symObjAddr: 0x25F8C, symBinAddr: 0x10002C390, symSize: 0x20 }
  - { offset: 0x8125F, size: 0x8, addend: 0x0, symName: __ZNSt3__16vectorINS_10unique_ptrIN6spdlog7details14flag_formatterENS_14default_deleteIS4_EEEENS_9allocatorIS7_EEE11__make_iterB8de190102EPS7_, symObjAddr: 0x2600C, symBinAddr: 0x10002C410, symSize: 0x30 }
  - { offset: 0x81293, size: 0x8, addend: 0x0, symName: __ZNSt3__111__wrap_iterIPNS_10unique_ptrIN6spdlog7details14flag_formatterENS_14default_deleteIS4_EEEEEC1B8de190102ES8_, symObjAddr: 0x2603C, symBinAddr: 0x10002C440, symSize: 0x34 }
  - { offset: 0x812CA, size: 0x8, addend: 0x0, symName: __ZNSt3__111__wrap_iterIPNS_10unique_ptrIN6spdlog7details14flag_formatterENS_14default_deleteIS4_EEEEEC2B8de190102ES8_, symObjAddr: 0x26070, symBinAddr: 0x10002C474, symSize: 0x20 }
  - { offset: 0x81301, size: 0x8, addend: 0x0, symName: __ZNKSt3__111__wrap_iterIPNS_10unique_ptrIN6spdlog7details14flag_formatterENS_14default_deleteIS4_EEEEE4baseB8de190102Ev, symObjAddr: 0x260D4, symBinAddr: 0x10002C4D8, symSize: 0x18 }
  - { offset: 0x81326, size: 0x8, addend: 0x0, symName: __ZNKSt3__117__compressed_pairIPN6spdlog7details14flag_formatterENS_14default_deleteIS3_EEE5firstB8de190102Ev, symObjAddr: 0x260EC, symBinAddr: 0x10002C4F0, symSize: 0x24 }
  - { offset: 0x8134B, size: 0x8, addend: 0x0, symName: __ZNKSt3__122__compressed_pair_elemIPN6spdlog7details14flag_formatterELi0ELb0EE5__getB8de190102Ev, symObjAddr: 0x26110, symBinAddr: 0x10002C514, symSize: 0x14 }
  - { offset: 0x81370, size: 0x8, addend: 0x0, symName: __ZNKSt3__113unordered_mapIcNS_10unique_ptrIN6spdlog21custom_flag_formatterENS_14default_deleteIS3_EEEENS_4hashIcEENS_8equal_toIcEENS_9allocatorINS_4pairIKcS6_EEEEE5beginB8de190102Ev, symObjAddr: 0x26124, symBinAddr: 0x10002C528, symSize: 0x38 }
  - { offset: 0x81395, size: 0x8, addend: 0x0, symName: __ZNKSt3__113unordered_mapIcNS_10unique_ptrIN6spdlog21custom_flag_formatterENS_14default_deleteIS3_EEEENS_4hashIcEENS_8equal_toIcEENS_9allocatorINS_4pairIKcS6_EEEEE3endB8de190102Ev, symObjAddr: 0x2615C, symBinAddr: 0x10002C560, symSize: 0x38 }
  - { offset: 0x813BA, size: 0x8, addend: 0x0, symName: __ZNKSt3__125__hash_map_const_iteratorINS_21__hash_const_iteratorIPNS_11__hash_nodeINS_17__hash_value_typeIcNS_10unique_ptrIN6spdlog21custom_flag_formatterENS_14default_deleteIS6_EEEEEEPvEEEEEdeB8de190102Ev, symObjAddr: 0x261C0, symBinAddr: 0x10002C5C4, symSize: 0x28 }
  - { offset: 0x813DF, size: 0x8, addend: 0x0, symName: __ZNKSt3__110unique_ptrIN6spdlog21custom_flag_formatterENS_14default_deleteIS2_EEEptB8de190102Ev, symObjAddr: 0x261E8, symBinAddr: 0x10002C5EC, symSize: 0x28 }
  - { offset: 0x81404, size: 0x8, addend: 0x0, symName: __ZNSt3__113unordered_mapIcNS_10unique_ptrIN6spdlog21custom_flag_formatterENS_14default_deleteIS3_EEEENS_4hashIcEENS_8equal_toIcEENS_9allocatorINS_4pairIKcS6_EEEEEixERSD_, symObjAddr: 0x26210, symBinAddr: 0x10002C614, symSize: 0xC4 }
  - { offset: 0x81438, size: 0x8, addend: 0x0, symName: __ZNSt3__110unique_ptrIN6spdlog21custom_flag_formatterENS_14default_deleteIS2_EEEaSB8de190102EOS5_, symObjAddr: 0x262D4, symBinAddr: 0x10002C6D8, symSize: 0x50 }
  - { offset: 0x8146B, size: 0x8, addend: 0x0, symName: __ZNSt3__110unique_ptrIN6spdlog21custom_flag_formatterENS_14default_deleteIS2_EEED1B8de190102Ev, symObjAddr: 0x26324, symBinAddr: 0x10002C728, symSize: 0x2C }
  - { offset: 0x81494, size: 0x8, addend: 0x0, symName: __ZNSt3__125__hash_map_const_iteratorINS_21__hash_const_iteratorIPNS_11__hash_nodeINS_17__hash_value_typeIcNS_10unique_ptrIN6spdlog21custom_flag_formatterENS_14default_deleteIS6_EEEEEEPvEEEEEppB8de190102Ev, symObjAddr: 0x26350, symBinAddr: 0x10002C754, symSize: 0x2C }
  - { offset: 0x814B9, size: 0x8, addend: 0x0, symName: __ZNKSt3__110unique_ptrIN6spdlog17pattern_formatterENS_14default_deleteIS2_EEEptB8de190102Ev, symObjAddr: 0x264D8, symBinAddr: 0x10002C8DC, symSize: 0x28 }
  - { offset: 0x814DE, size: 0x8, addend: 0x0, symName: __ZN6spdlog17pattern_formatter14need_localtimeEb, symObjAddr: 0x26500, symBinAddr: 0x10002C904, symSize: 0x24 }
  - { offset: 0x81515, size: 0x8, addend: 0x0, symName: __ZNSt3__110unique_ptrIN6spdlog9formatterENS_14default_deleteIS2_EEEC1B8de190102INS1_17pattern_formatterENS3_IS7_EEvvEEONS0_IT_T0_EE, symObjAddr: 0x26524, symBinAddr: 0x10002C928, symSize: 0x34 }
  - { offset: 0x81562, size: 0x8, addend: 0x0, symName: __ZNSt3__110unique_ptrIN6spdlog17pattern_formatterENS_14default_deleteIS2_EEED1B8de190102Ev, symObjAddr: 0x26558, symBinAddr: 0x10002C95C, symSize: 0x2C }
  - { offset: 0x8158B, size: 0x8, addend: 0x0, symName: __ZNKSt3__112__hash_tableINS_17__hash_value_typeIcNS_10unique_ptrIN6spdlog21custom_flag_formatterENS_14default_deleteIS4_EEEEEENS_22__unordered_map_hasherIcS8_NS_4hashIcEENS_8equal_toIcEELb1EEENS_21__unordered_map_equalIcS8_SD_SB_Lb1EEENS_9allocatorIS8_EEE5beginEv, symObjAddr: 0x26584, symBinAddr: 0x10002C988, symSize: 0x38 }
  - { offset: 0x815B0, size: 0x8, addend: 0x0, symName: __ZNSt3__125__hash_map_const_iteratorINS_21__hash_const_iteratorIPNS_11__hash_nodeINS_17__hash_value_typeIcNS_10unique_ptrIN6spdlog21custom_flag_formatterENS_14default_deleteIS6_EEEEEEPvEEEEEC1B8de190102ESE_, symObjAddr: 0x265BC, symBinAddr: 0x10002C9C0, symSize: 0x34 }
  - { offset: 0x815E8, size: 0x8, addend: 0x0, symName: __ZNKSt3__117__compressed_pairINS_16__hash_node_baseIPNS_11__hash_nodeINS_17__hash_value_typeIcNS_10unique_ptrIN6spdlog21custom_flag_formatterENS_14default_deleteIS6_EEEEEEPvEEEENS_9allocatorISC_EEE5firstB8de190102Ev, symObjAddr: 0x265F0, symBinAddr: 0x10002C9F4, symSize: 0x24 }
  - { offset: 0x8160D, size: 0x8, addend: 0x0, symName: __ZNSt3__121__hash_const_iteratorIPNS_11__hash_nodeINS_17__hash_value_typeIcNS_10unique_ptrIN6spdlog21custom_flag_formatterENS_14default_deleteIS5_EEEEEEPvEEEC1B8de190102EPNS_16__hash_node_baseISC_EE, symObjAddr: 0x26614, symBinAddr: 0x10002CA18, symSize: 0x34 }
  - { offset: 0x81645, size: 0x8, addend: 0x0, symName: __ZNKSt3__122__compressed_pair_elemINS_16__hash_node_baseIPNS_11__hash_nodeINS_17__hash_value_typeIcNS_10unique_ptrIN6spdlog21custom_flag_formatterENS_14default_deleteIS6_EEEEEEPvEEEELi0ELb0EE5__getB8de190102Ev, symObjAddr: 0x26648, symBinAddr: 0x10002CA4C, symSize: 0x14 }
  - { offset: 0x8166A, size: 0x8, addend: 0x0, symName: __ZNSt3__121__hash_const_iteratorIPNS_11__hash_nodeINS_17__hash_value_typeIcNS_10unique_ptrIN6spdlog21custom_flag_formatterENS_14default_deleteIS5_EEEEEEPvEEEC2B8de190102EPNS_16__hash_node_baseISC_EE, symObjAddr: 0x2665C, symBinAddr: 0x10002CA60, symSize: 0x20 }
  - { offset: 0x816A2, size: 0x8, addend: 0x0, symName: __ZNSt3__125__hash_map_const_iteratorINS_21__hash_const_iteratorIPNS_11__hash_nodeINS_17__hash_value_typeIcNS_10unique_ptrIN6spdlog21custom_flag_formatterENS_14default_deleteIS6_EEEEEEPvEEEEEC2B8de190102ESE_, symObjAddr: 0x2667C, symBinAddr: 0x10002CA80, symSize: 0x20 }
  - { offset: 0x816DA, size: 0x8, addend: 0x0, symName: __ZNKSt3__112__hash_tableINS_17__hash_value_typeIcNS_10unique_ptrIN6spdlog21custom_flag_formatterENS_14default_deleteIS4_EEEEEENS_22__unordered_map_hasherIcS8_NS_4hashIcEENS_8equal_toIcEELb1EEENS_21__unordered_map_equalIcS8_SD_SB_Lb1EEENS_9allocatorIS8_EEE3endEv, symObjAddr: 0x2669C, symBinAddr: 0x10002CAA0, symSize: 0x2C }
  - { offset: 0x816FF, size: 0x8, addend: 0x0, symName: __ZNKSt3__121__hash_const_iteratorIPNS_11__hash_nodeINS_17__hash_value_typeIcNS_10unique_ptrIN6spdlog21custom_flag_formatterENS_14default_deleteIS5_EEEEEEPvEEEptB8de190102Ev, symObjAddr: 0x26724, symBinAddr: 0x10002CB28, symSize: 0x4C }
  - { offset: 0x81724, size: 0x8, addend: 0x0, symName: __ZNKSt3__117__hash_value_typeIcNS_10unique_ptrIN6spdlog21custom_flag_formatterENS_14default_deleteIS3_EEEEE11__get_valueB8de190102Ev, symObjAddr: 0x26770, symBinAddr: 0x10002CB74, symSize: 0x14 }
  - { offset: 0x81749, size: 0x8, addend: 0x0, symName: __ZNSt3__114pointer_traitsIPKNS_17__hash_value_typeIcNS_10unique_ptrIN6spdlog21custom_flag_formatterENS_14default_deleteIS4_EEEEEEE10pointer_toB8de190102ERS9_, symObjAddr: 0x26784, symBinAddr: 0x10002CB88, symSize: 0x14 }
  - { offset: 0x8176C, size: 0x8, addend: 0x0, symName: __ZNSt3__116__hash_node_baseIPNS_11__hash_nodeINS_17__hash_value_typeIcNS_10unique_ptrIN6spdlog21custom_flag_formatterENS_14default_deleteIS5_EEEEEEPvEEE8__upcastB8de190102Ev, symObjAddr: 0x26798, symBinAddr: 0x10002CB9C, symSize: 0x24 }
  - { offset: 0x81791, size: 0x8, addend: 0x0, symName: __ZNSt3__111__hash_nodeINS_17__hash_value_typeIcNS_10unique_ptrIN6spdlog21custom_flag_formatterENS_14default_deleteIS4_EEEEEEPvE11__get_valueB8de190102Ev, symObjAddr: 0x267BC, symBinAddr: 0x10002CBC0, symSize: 0x18 }
  - { offset: 0x817B6, size: 0x8, addend: 0x0, symName: __ZNSt3__114pointer_traitsIPNS_16__hash_node_baseIPNS_11__hash_nodeINS_17__hash_value_typeIcNS_10unique_ptrIN6spdlog21custom_flag_formatterENS_14default_deleteIS6_EEEEEEPvEEEEE10pointer_toB8de190102ERSE_, symObjAddr: 0x267D4, symBinAddr: 0x10002CBD8, symSize: 0x14 }
  - { offset: 0x817D9, size: 0x8, addend: 0x0, symName: __ZNKSt3__117__compressed_pairIPN6spdlog21custom_flag_formatterENS_14default_deleteIS2_EEE5firstB8de190102Ev, symObjAddr: 0x267E8, symBinAddr: 0x10002CBEC, symSize: 0x24 }
  - { offset: 0x817FE, size: 0x8, addend: 0x0, symName: __ZNKSt3__122__compressed_pair_elemIPN6spdlog21custom_flag_formatterELi0ELb0EE5__getB8de190102Ev, symObjAddr: 0x2680C, symBinAddr: 0x10002CC10, symSize: 0x14 }
  - { offset: 0x81837, size: 0x8, addend: 0x0, symName: __ZNSt3__112__hash_tableINS_17__hash_value_typeIcNS_10unique_ptrIN6spdlog21custom_flag_formatterENS_14default_deleteIS4_EEEEEENS_22__unordered_map_hasherIcS8_NS_4hashIcEENS_8equal_toIcEELb1EEENS_21__unordered_map_equalIcS8_SD_SB_Lb1EEENS_9allocatorIS8_EEE25__emplace_unique_key_argsIcJRKNS_21piecewise_construct_tENS_5tupleIJRKcEEENSO_IJEEEEEENS_4pairINS_15__hash_iteratorIPNS_11__hash_nodeIS8_PvEEEEbEERKT_DpOT0_, symObjAddr: 0x26820, symBinAddr: 0x10002CC24, symSize: 0x4AC }
  - { offset: 0x81942, size: 0x8, addend: 0x0, symName: __ZNKSt3__115__hash_iteratorIPNS_11__hash_nodeINS_17__hash_value_typeIcNS_10unique_ptrIN6spdlog21custom_flag_formatterENS_14default_deleteIS5_EEEEEEPvEEEptB8de190102Ev, symObjAddr: 0x26CFC, symBinAddr: 0x10002D100, symSize: 0x4C }
  - { offset: 0x81967, size: 0x8, addend: 0x0, symName: __ZNSt3__117__hash_value_typeIcNS_10unique_ptrIN6spdlog21custom_flag_formatterENS_14default_deleteIS3_EEEEE11__get_valueB8de190102Ev, symObjAddr: 0x26D48, symBinAddr: 0x10002D14C, symSize: 0x14 }
  - { offset: 0x8198C, size: 0x8, addend: 0x0, symName: __ZNSt3__112__hash_tableINS_17__hash_value_typeIcNS_10unique_ptrIN6spdlog21custom_flag_formatterENS_14default_deleteIS4_EEEEEENS_22__unordered_map_hasherIcS8_NS_4hashIcEENS_8equal_toIcEELb1EEENS_21__unordered_map_equalIcS8_SD_SB_Lb1EEENS_9allocatorIS8_EEE13hash_functionB8de190102Ev, symObjAddr: 0x26D5C, symBinAddr: 0x10002D160, symSize: 0x28 }
  - { offset: 0x819B1, size: 0x8, addend: 0x0, symName: __ZNKSt3__122__unordered_map_hasherIcNS_17__hash_value_typeIcNS_10unique_ptrIN6spdlog21custom_flag_formatterENS_14default_deleteIS4_EEEEEENS_4hashIcEENS_8equal_toIcEELb1EEclB8de190102ERKc, symObjAddr: 0x26D84, symBinAddr: 0x10002D188, symSize: 0x30 }
  - { offset: 0x819E5, size: 0x8, addend: 0x0, symName: __ZNKSt3__112__hash_tableINS_17__hash_value_typeIcNS_10unique_ptrIN6spdlog21custom_flag_formatterENS_14default_deleteIS4_EEEEEENS_22__unordered_map_hasherIcS8_NS_4hashIcEENS_8equal_toIcEELb1EEENS_21__unordered_map_equalIcS8_SD_SB_Lb1EEENS_9allocatorIS8_EEE12bucket_countB8de190102Ev, symObjAddr: 0x26DB4, symBinAddr: 0x10002D1B8, symSize: 0x28 }
  - { offset: 0x81A0A, size: 0x8, addend: 0x0, symName: __ZNKSt3__110unique_ptrIA_PNS_16__hash_node_baseIPNS_11__hash_nodeINS_17__hash_value_typeIcNS0_IN6spdlog21custom_flag_formatterENS_14default_deleteIS5_EEEEEEPvEEEENS_25__bucket_list_deallocatorINS_9allocatorISE_EEEEEixB8de190102Em, symObjAddr: 0x26E6C, symBinAddr: 0x10002D270, symSize: 0x34 }
  - { offset: 0x81A3E, size: 0x8, addend: 0x0, symName: __ZNKSt3__116__hash_node_baseIPNS_11__hash_nodeINS_17__hash_value_typeIcNS_10unique_ptrIN6spdlog21custom_flag_formatterENS_14default_deleteIS5_EEEEEEPvEEE6__hashB8de190102Ev, symObjAddr: 0x26EA0, symBinAddr: 0x10002D2A4, symSize: 0x18 }
  - { offset: 0x81A63, size: 0x8, addend: 0x0, symName: __ZNSt3__112__hash_tableINS_17__hash_value_typeIcNS_10unique_ptrIN6spdlog21custom_flag_formatterENS_14default_deleteIS4_EEEEEENS_22__unordered_map_hasherIcS8_NS_4hashIcEENS_8equal_toIcEELb1EEENS_21__unordered_map_equalIcS8_SD_SB_Lb1EEENS_9allocatorIS8_EEE6key_eqB8de190102Ev, symObjAddr: 0x26EB8, symBinAddr: 0x10002D2BC, symSize: 0x28 }
  - { offset: 0x81A88, size: 0x8, addend: 0x0, symName: __ZNKSt3__121__unordered_map_equalIcNS_17__hash_value_typeIcNS_10unique_ptrIN6spdlog21custom_flag_formatterENS_14default_deleteIS4_EEEEEENS_8equal_toIcEENS_4hashIcEELb1EEclB8de190102ERKS8_RKc, symObjAddr: 0x26EE0, symBinAddr: 0x10002D2E4, symSize: 0x44 }
  - { offset: 0x81ACB, size: 0x8, addend: 0x0, symName: __ZNSt3__112__hash_tableINS_17__hash_value_typeIcNS_10unique_ptrIN6spdlog21custom_flag_formatterENS_14default_deleteIS4_EEEEEENS_22__unordered_map_hasherIcS8_NS_4hashIcEENS_8equal_toIcEELb1EEENS_21__unordered_map_equalIcS8_SD_SB_Lb1EEENS_9allocatorIS8_EEE21__construct_node_hashIRKNS_21piecewise_construct_tEJNS_5tupleIJRKcEEENSO_IJEEEEEENS2_INS_11__hash_nodeIS8_PvEENS_22__hash_node_destructorINSH_ISV_EEEEEEmOT_DpOT0_, symObjAddr: 0x26F24, symBinAddr: 0x10002D328, symSize: 0x148 }
  - { offset: 0x81B67, size: 0x8, addend: 0x0, symName: __ZNSt3__112__hash_tableINS_17__hash_value_typeIcNS_10unique_ptrIN6spdlog21custom_flag_formatterENS_14default_deleteIS4_EEEEEENS_22__unordered_map_hasherIcS8_NS_4hashIcEENS_8equal_toIcEELb1EEENS_21__unordered_map_equalIcS8_SD_SB_Lb1EEENS_9allocatorIS8_EEE4sizeB8de190102Ev, symObjAddr: 0x2706C, symBinAddr: 0x10002D470, symSize: 0x28 }
  - { offset: 0x81B8C, size: 0x8, addend: 0x0, symName: __ZNSt3__112__hash_tableINS_17__hash_value_typeIcNS_10unique_ptrIN6spdlog21custom_flag_formatterENS_14default_deleteIS4_EEEEEENS_22__unordered_map_hasherIcS8_NS_4hashIcEENS_8equal_toIcEELb1EEENS_21__unordered_map_equalIcS8_SD_SB_Lb1EEENS_9allocatorIS8_EEE15max_load_factorB8de190102Ev, symObjAddr: 0x27094, symBinAddr: 0x10002D498, symSize: 0x28 }
  - { offset: 0x81BB1, size: 0x8, addend: 0x0, symName: __ZNSt3__112__hash_tableINS_17__hash_value_typeIcNS_10unique_ptrIN6spdlog21custom_flag_formatterENS_14default_deleteIS4_EEEEEENS_22__unordered_map_hasherIcS8_NS_4hashIcEENS_8equal_toIcEELb1EEENS_21__unordered_map_equalIcS8_SD_SB_Lb1EEENS_9allocatorIS8_EEE15__rehash_uniqueB8de190102Em, symObjAddr: 0x270BC, symBinAddr: 0x10002D4C0, symSize: 0x2C }
  - { offset: 0x81BE5, size: 0x8, addend: 0x0, symName: __ZNSt3__117__compressed_pairINS_16__hash_node_baseIPNS_11__hash_nodeINS_17__hash_value_typeIcNS_10unique_ptrIN6spdlog21custom_flag_formatterENS_14default_deleteIS6_EEEEEEPvEEEENS_9allocatorISC_EEE5firstB8de190102Ev, symObjAddr: 0x2714C, symBinAddr: 0x10002D550, symSize: 0x24 }
  - { offset: 0x81C0A, size: 0x8, addend: 0x0, symName: __ZNSt3__116__hash_node_baseIPNS_11__hash_nodeINS_17__hash_value_typeIcNS_10unique_ptrIN6spdlog21custom_flag_formatterENS_14default_deleteIS5_EEEEEEPvEEE5__ptrB8de190102Ev, symObjAddr: 0x27170, symBinAddr: 0x10002D574, symSize: 0x24 }
  - { offset: 0x81C2F, size: 0x8, addend: 0x0, symName: __ZNKSt3__110unique_ptrINS_11__hash_nodeINS_17__hash_value_typeIcNS0_IN6spdlog21custom_flag_formatterENS_14default_deleteIS4_EEEEEEPvEENS_22__hash_node_destructorINS_9allocatorISA_EEEEEptB8de190102Ev, symObjAddr: 0x27194, symBinAddr: 0x10002D598, symSize: 0x28 }
  - { offset: 0x81C54, size: 0x8, addend: 0x0, symName: __ZNKSt3__110unique_ptrINS_11__hash_nodeINS_17__hash_value_typeIcNS0_IN6spdlog21custom_flag_formatterENS_14default_deleteIS4_EEEEEEPvEENS_22__hash_node_destructorINS_9allocatorISA_EEEEE3getB8de190102Ev, symObjAddr: 0x271BC, symBinAddr: 0x10002D5C0, symSize: 0x28 }
  - { offset: 0x81C79, size: 0x8, addend: 0x0, symName: __ZNSt3__110unique_ptrINS_11__hash_nodeINS_17__hash_value_typeIcNS0_IN6spdlog21custom_flag_formatterENS_14default_deleteIS4_EEEEEEPvEENS_22__hash_node_destructorINS_9allocatorISA_EEEEE7releaseB8de190102Ev, symObjAddr: 0x271E4, symBinAddr: 0x10002D5E8, symSize: 0x44 }
  - { offset: 0x81CAD, size: 0x8, addend: 0x0, symName: __ZNSt3__110unique_ptrINS_11__hash_nodeINS_17__hash_value_typeIcNS0_IN6spdlog21custom_flag_formatterENS_14default_deleteIS4_EEEEEEPvEENS_22__hash_node_destructorINS_9allocatorISA_EEEEED1B8de190102Ev, symObjAddr: 0x27228, symBinAddr: 0x10002D62C, symSize: 0x2C }
  - { offset: 0x81CD6, size: 0x8, addend: 0x0, symName: __ZNSt3__115__hash_iteratorIPNS_11__hash_nodeINS_17__hash_value_typeIcNS_10unique_ptrIN6spdlog21custom_flag_formatterENS_14default_deleteIS5_EEEEEEPvEEEC1B8de190102EPNS_16__hash_node_baseISC_EE, symObjAddr: 0x27254, symBinAddr: 0x10002D658, symSize: 0x34 }
  - { offset: 0x81D13, size: 0x8, addend: 0x0, symName: __ZNSt3__14pairINS_15__hash_iteratorIPNS_11__hash_nodeINS_17__hash_value_typeIcNS_10unique_ptrIN6spdlog21custom_flag_formatterENS_14default_deleteIS6_EEEEEEPvEEEEbEC1B8de190102ISE_RbLi0EEEOT_OT0_, symObjAddr: 0x27288, symBinAddr: 0x10002D68C, symSize: 0x3C }
  - { offset: 0x81D70, size: 0x8, addend: 0x0, symName: __ZNSt3__117__compressed_pairImNS_22__unordered_map_hasherIcNS_17__hash_value_typeIcNS_10unique_ptrIN6spdlog21custom_flag_formatterENS_14default_deleteIS5_EEEEEENS_4hashIcEENS_8equal_toIcEELb1EEEE6secondB8de190102Ev, symObjAddr: 0x272C4, symBinAddr: 0x10002D6C8, symSize: 0x24 }
  - { offset: 0x81D95, size: 0x8, addend: 0x0, symName: __ZNSt3__122__compressed_pair_elemINS_22__unordered_map_hasherIcNS_17__hash_value_typeIcNS_10unique_ptrIN6spdlog21custom_flag_formatterENS_14default_deleteIS5_EEEEEENS_4hashIcEENS_8equal_toIcEELb1EEELi1ELb1EE5__getB8de190102Ev, symObjAddr: 0x272E8, symBinAddr: 0x10002D6EC, symSize: 0x14 }
  - { offset: 0x81DBA, size: 0x8, addend: 0x0, symName: __ZNKSt3__14hashIcEclB8de190102Ec, symObjAddr: 0x272FC, symBinAddr: 0x10002D700, symSize: 0x18 }
  - { offset: 0x81DEE, size: 0x8, addend: 0x0, symName: __ZNKSt3__110unique_ptrIA_PNS_16__hash_node_baseIPNS_11__hash_nodeINS_17__hash_value_typeIcNS0_IN6spdlog21custom_flag_formatterENS_14default_deleteIS5_EEEEEEPvEEEENS_25__bucket_list_deallocatorINS_9allocatorISE_EEEEE11get_deleterB8de190102Ev, symObjAddr: 0x27314, symBinAddr: 0x10002D718, symSize: 0x24 }
  - { offset: 0x81E13, size: 0x8, addend: 0x0, symName: __ZNKSt3__125__bucket_list_deallocatorINS_9allocatorIPNS_16__hash_node_baseIPNS_11__hash_nodeINS_17__hash_value_typeIcNS_10unique_ptrIN6spdlog21custom_flag_formatterENS_14default_deleteIS7_EEEEEEPvEEEEEEE4sizeB8de190102Ev, symObjAddr: 0x27338, symBinAddr: 0x10002D73C, symSize: 0x28 }
  - { offset: 0x81E38, size: 0x8, addend: 0x0, symName: __ZNKSt3__117__compressed_pairIPPNS_16__hash_node_baseIPNS_11__hash_nodeINS_17__hash_value_typeIcNS_10unique_ptrIN6spdlog21custom_flag_formatterENS_14default_deleteIS6_EEEEEEPvEEEENS_25__bucket_list_deallocatorINS_9allocatorISF_EEEEE6secondB8de190102Ev, symObjAddr: 0x27360, symBinAddr: 0x10002D764, symSize: 0x28 }
  - { offset: 0x81E5D, size: 0x8, addend: 0x0, symName: __ZNKSt3__122__compressed_pair_elemINS_25__bucket_list_deallocatorINS_9allocatorIPNS_16__hash_node_baseIPNS_11__hash_nodeINS_17__hash_value_typeIcNS_10unique_ptrIN6spdlog21custom_flag_formatterENS_14default_deleteIS8_EEEEEEPvEEEEEEEELi1ELb0EE5__getB8de190102Ev, symObjAddr: 0x27388, symBinAddr: 0x10002D78C, symSize: 0x14 }
  - { offset: 0x81E82, size: 0x8, addend: 0x0, symName: __ZNKSt3__117__compressed_pairImNS_9allocatorIPNS_16__hash_node_baseIPNS_11__hash_nodeINS_17__hash_value_typeIcNS_10unique_ptrIN6spdlog21custom_flag_formatterENS_14default_deleteIS7_EEEEEEPvEEEEEEE5firstB8de190102Ev, symObjAddr: 0x2739C, symBinAddr: 0x10002D7A0, symSize: 0x24 }
  - { offset: 0x81EA7, size: 0x8, addend: 0x0, symName: __ZNKSt3__117__compressed_pairIPPNS_16__hash_node_baseIPNS_11__hash_nodeINS_17__hash_value_typeIcNS_10unique_ptrIN6spdlog21custom_flag_formatterENS_14default_deleteIS6_EEEEEEPvEEEENS_25__bucket_list_deallocatorINS_9allocatorISF_EEEEE5firstB8de190102Ev, symObjAddr: 0x273C0, symBinAddr: 0x10002D7C4, symSize: 0x24 }
  - { offset: 0x81ECC, size: 0x8, addend: 0x0, symName: __ZNKSt3__122__compressed_pair_elemIPPNS_16__hash_node_baseIPNS_11__hash_nodeINS_17__hash_value_typeIcNS_10unique_ptrIN6spdlog21custom_flag_formatterENS_14default_deleteIS6_EEEEEEPvEEEELi0ELb0EE5__getB8de190102Ev, symObjAddr: 0x273E4, symBinAddr: 0x10002D7E8, symSize: 0x14 }
  - { offset: 0x81EF1, size: 0x8, addend: 0x0, symName: __ZNSt3__117__compressed_pairIfNS_21__unordered_map_equalIcNS_17__hash_value_typeIcNS_10unique_ptrIN6spdlog21custom_flag_formatterENS_14default_deleteIS5_EEEEEENS_8equal_toIcEENS_4hashIcEELb1EEEE6secondB8de190102Ev, symObjAddr: 0x273F8, symBinAddr: 0x10002D7FC, symSize: 0x24 }
  - { offset: 0x81F16, size: 0x8, addend: 0x0, symName: __ZNSt3__122__compressed_pair_elemINS_21__unordered_map_equalIcNS_17__hash_value_typeIcNS_10unique_ptrIN6spdlog21custom_flag_formatterENS_14default_deleteIS5_EEEEEENS_8equal_toIcEENS_4hashIcEELb1EEELi1ELb1EE5__getB8de190102Ev, symObjAddr: 0x2741C, symBinAddr: 0x10002D820, symSize: 0x14 }
  - { offset: 0x81F3B, size: 0x8, addend: 0x0, symName: __ZNKSt3__18equal_toIcEclB8de190102ERKcS3_, symObjAddr: 0x27430, symBinAddr: 0x10002D834, symSize: 0x30 }
  - { offset: 0x81F7E, size: 0x8, addend: 0x0, symName: __ZNSt3__112__hash_tableINS_17__hash_value_typeIcNS_10unique_ptrIN6spdlog21custom_flag_formatterENS_14default_deleteIS4_EEEEEENS_22__unordered_map_hasherIcS8_NS_4hashIcEENS_8equal_toIcEELb1EEENS_21__unordered_map_equalIcS8_SD_SB_Lb1EEENS_9allocatorIS8_EEE12__node_allocB8de190102Ev, symObjAddr: 0x27460, symBinAddr: 0x10002D864, symSize: 0x28 }
  - { offset: 0x81FA3, size: 0x8, addend: 0x0, symName: __ZNSt3__116allocator_traitsINS_9allocatorINS_11__hash_nodeINS_17__hash_value_typeIcNS_10unique_ptrIN6spdlog21custom_flag_formatterENS_14default_deleteIS6_EEEEEEPvEEEEE8allocateB8de190102ERSD_m, symObjAddr: 0x27488, symBinAddr: 0x10002D88C, symSize: 0x2C }
  - { offset: 0x81FD6, size: 0x8, addend: 0x0, symName: __ZNSt3__122__hash_node_destructorINS_9allocatorINS_11__hash_nodeINS_17__hash_value_typeIcNS_10unique_ptrIN6spdlog21custom_flag_formatterENS_14default_deleteIS6_EEEEEEPvEEEEEC1B8de190102ERSD_b, symObjAddr: 0x274B4, symBinAddr: 0x10002D8B8, symSize: 0x40 }
  - { offset: 0x82022, size: 0x8, addend: 0x0, symName: __ZNSt3__110unique_ptrINS_11__hash_nodeINS_17__hash_value_typeIcNS0_IN6spdlog21custom_flag_formatterENS_14default_deleteIS4_EEEEEEPvEENS_22__hash_node_destructorINS_9allocatorISA_EEEEEC1B8de190102ILb1EvEEPSA_NS_16__dependent_typeINS_27__unique_ptr_deleter_sfinaeISE_EEXT_EE20__good_rval_ref_typeE, symObjAddr: 0x274F4, symBinAddr: 0x10002D8F8, symSize: 0x3C }
  - { offset: 0x82073, size: 0x8, addend: 0x0, symName: __ZNKSt3__110unique_ptrINS_11__hash_nodeINS_17__hash_value_typeIcNS0_IN6spdlog21custom_flag_formatterENS_14default_deleteIS4_EEEEEEPvEENS_22__hash_node_destructorINS_9allocatorISA_EEEEEdeB8de190102Ev, symObjAddr: 0x27584, symBinAddr: 0x10002D988, symSize: 0x28 }
  - { offset: 0x82098, size: 0x8, addend: 0x0, symName: __ZNSt3__116allocator_traitsINS_9allocatorINS_11__hash_nodeINS_17__hash_value_typeIcNS_10unique_ptrIN6spdlog21custom_flag_formatterENS_14default_deleteIS6_EEEEEEPvEEEEE9constructB8de190102INS_4pairIKcS9_EEJRKNS_21piecewise_construct_tENS_5tupleIJRSH_EEENSM_IJEEEELi0EEEvRSD_PT_DpOT0_, symObjAddr: 0x275AC, symBinAddr: 0x10002D9B0, symSize: 0x44 }
  - { offset: 0x82120, size: 0x8, addend: 0x0, symName: __ZNSt3__122__hash_key_value_typesINS_17__hash_value_typeIcNS_10unique_ptrIN6spdlog21custom_flag_formatterENS_14default_deleteIS4_EEEEEEE9__get_ptrB8de190102ERS8_, symObjAddr: 0x275F0, symBinAddr: 0x10002D9F4, symSize: 0x24 }
  - { offset: 0x82143, size: 0x8, addend: 0x0, symName: __ZNSt3__110unique_ptrINS_11__hash_nodeINS_17__hash_value_typeIcNS0_IN6spdlog21custom_flag_formatterENS_14default_deleteIS4_EEEEEEPvEENS_22__hash_node_destructorINS_9allocatorISA_EEEEE11get_deleterB8de190102Ev, symObjAddr: 0x27614, symBinAddr: 0x10002DA18, symSize: 0x24 }
  - { offset: 0x82168, size: 0x8, addend: 0x0, symName: __ZNSt3__117__compressed_pairINS_16__hash_node_baseIPNS_11__hash_nodeINS_17__hash_value_typeIcNS_10unique_ptrIN6spdlog21custom_flag_formatterENS_14default_deleteIS6_EEEEEEPvEEEENS_9allocatorISC_EEE6secondB8de190102Ev, symObjAddr: 0x27638, symBinAddr: 0x10002DA3C, symSize: 0x24 }
  - { offset: 0x8218D, size: 0x8, addend: 0x0, symName: __ZNSt3__122__compressed_pair_elemINS_9allocatorINS_11__hash_nodeINS_17__hash_value_typeIcNS_10unique_ptrIN6spdlog21custom_flag_formatterENS_14default_deleteIS6_EEEEEEPvEEEELi1ELb1EE5__getB8de190102Ev, symObjAddr: 0x2765C, symBinAddr: 0x10002DA60, symSize: 0x14 }
  - { offset: 0x821B2, size: 0x8, addend: 0x0, symName: __ZNSt3__19allocatorINS_11__hash_nodeINS_17__hash_value_typeIcNS_10unique_ptrIN6spdlog21custom_flag_formatterENS_14default_deleteIS5_EEEEEEPvEEE8allocateB8de190102Em, symObjAddr: 0x27670, symBinAddr: 0x10002DA74, symSize: 0x54 }
  - { offset: 0x821EF, size: 0x8, addend: 0x0, symName: __ZNSt3__116allocator_traitsINS_9allocatorINS_11__hash_nodeINS_17__hash_value_typeIcNS_10unique_ptrIN6spdlog21custom_flag_formatterENS_14default_deleteIS6_EEEEEEPvEEEEE8max_sizeB8de190102ISD_Li0EEEmRKSD_, symObjAddr: 0x276C4, symBinAddr: 0x10002DAC8, symSize: 0x24 }
  - { offset: 0x82222, size: 0x8, addend: 0x0, symName: __ZNKSt3__19allocatorINS_11__hash_nodeINS_17__hash_value_typeIcNS_10unique_ptrIN6spdlog21custom_flag_formatterENS_14default_deleteIS5_EEEEEEPvEEE8max_sizeB8de190102Ev, symObjAddr: 0x276E8, symBinAddr: 0x10002DAEC, symSize: 0x14 }
  - { offset: 0x82247, size: 0x8, addend: 0x0, symName: __ZNSt3__122__hash_node_destructorINS_9allocatorINS_11__hash_nodeINS_17__hash_value_typeIcNS_10unique_ptrIN6spdlog21custom_flag_formatterENS_14default_deleteIS6_EEEEEEPvEEEEEC2B8de190102ERSD_b, symObjAddr: 0x276FC, symBinAddr: 0x10002DB00, symSize: 0x30 }
  - { offset: 0x8228E, size: 0x8, addend: 0x0, symName: __ZNSt3__110unique_ptrINS_11__hash_nodeINS_17__hash_value_typeIcNS0_IN6spdlog21custom_flag_formatterENS_14default_deleteIS4_EEEEEEPvEENS_22__hash_node_destructorINS_9allocatorISA_EEEEEC2B8de190102ILb1EvEEPSA_NS_16__dependent_typeINS_27__unique_ptr_deleter_sfinaeISE_EEXT_EE20__good_rval_ref_typeE, symObjAddr: 0x2772C, symBinAddr: 0x10002DB30, symSize: 0x48 }
  - { offset: 0x822DF, size: 0x8, addend: 0x0, symName: __ZNSt3__117__compressed_pairIPNS_11__hash_nodeINS_17__hash_value_typeIcNS_10unique_ptrIN6spdlog21custom_flag_formatterENS_14default_deleteIS5_EEEEEEPvEENS_22__hash_node_destructorINS_9allocatorISB_EEEEEC1B8de190102IRSC_SG_EEOT_OT0_, symObjAddr: 0x27774, symBinAddr: 0x10002DB78, symSize: 0x3C }
  - { offset: 0x82336, size: 0x8, addend: 0x0, symName: __ZNSt3__117__compressed_pairIPNS_11__hash_nodeINS_17__hash_value_typeIcNS_10unique_ptrIN6spdlog21custom_flag_formatterENS_14default_deleteIS5_EEEEEEPvEENS_22__hash_node_destructorINS_9allocatorISB_EEEEEC2B8de190102IRSC_SG_EEOT_OT0_, symObjAddr: 0x277B0, symBinAddr: 0x10002DBB4, symSize: 0x48 }
  - { offset: 0x8238D, size: 0x8, addend: 0x0, symName: __ZNSt3__122__compressed_pair_elemIPNS_11__hash_nodeINS_17__hash_value_typeIcNS_10unique_ptrIN6spdlog21custom_flag_formatterENS_14default_deleteIS5_EEEEEEPvEELi0ELb0EEC2B8de190102IRSC_Li0EEEOT_, symObjAddr: 0x277F8, symBinAddr: 0x10002DBFC, symSize: 0x24 }
  - { offset: 0x823D3, size: 0x8, addend: 0x0, symName: __ZNSt3__122__compressed_pair_elemINS_22__hash_node_destructorINS_9allocatorINS_11__hash_nodeINS_17__hash_value_typeIcNS_10unique_ptrIN6spdlog21custom_flag_formatterENS_14default_deleteIS7_EEEEEEPvEEEEEELi1ELb0EEC2B8de190102ISF_Li0EEEOT_, symObjAddr: 0x2781C, symBinAddr: 0x10002DC20, symSize: 0x24 }
  - { offset: 0x82419, size: 0x8, addend: 0x0, symName: __ZNSt3__111__hash_nodeINS_17__hash_value_typeIcNS_10unique_ptrIN6spdlog21custom_flag_formatterENS_14default_deleteIS4_EEEEEEPvEC1B8de190102EPNS_16__hash_node_baseIPSA_EEm, symObjAddr: 0x27840, symBinAddr: 0x10002DC44, symSize: 0x3C }
  - { offset: 0x8245E, size: 0x8, addend: 0x0, symName: __ZNSt3__111__hash_nodeINS_17__hash_value_typeIcNS_10unique_ptrIN6spdlog21custom_flag_formatterENS_14default_deleteIS4_EEEEEEPvEC2B8de190102EPNS_16__hash_node_baseIPSA_EEm, symObjAddr: 0x2787C, symBinAddr: 0x10002DC80, symSize: 0x40 }
  - { offset: 0x824A3, size: 0x8, addend: 0x0, symName: __ZNSt3__116__hash_node_baseIPNS_11__hash_nodeINS_17__hash_value_typeIcNS_10unique_ptrIN6spdlog21custom_flag_formatterENS_14default_deleteIS5_EEEEEEPvEEEC2B8de190102EPSD_, symObjAddr: 0x278BC, symBinAddr: 0x10002DCC0, symSize: 0x20 }
  - { offset: 0x824DA, size: 0x8, addend: 0x0, symName: __ZNKSt3__117__compressed_pairIPNS_11__hash_nodeINS_17__hash_value_typeIcNS_10unique_ptrIN6spdlog21custom_flag_formatterENS_14default_deleteIS5_EEEEEEPvEENS_22__hash_node_destructorINS_9allocatorISB_EEEEE5firstB8de190102Ev, symObjAddr: 0x278DC, symBinAddr: 0x10002DCE0, symSize: 0x24 }
  - { offset: 0x824FF, size: 0x8, addend: 0x0, symName: __ZNKSt3__122__compressed_pair_elemIPNS_11__hash_nodeINS_17__hash_value_typeIcNS_10unique_ptrIN6spdlog21custom_flag_formatterENS_14default_deleteIS5_EEEEEEPvEELi0ELb0EE5__getB8de190102Ev, symObjAddr: 0x27900, symBinAddr: 0x10002DD04, symSize: 0x14 }
  - { offset: 0x82524, size: 0x8, addend: 0x0, symName: __ZNSt3__19allocatorINS_11__hash_nodeINS_17__hash_value_typeIcNS_10unique_ptrIN6spdlog21custom_flag_formatterENS_14default_deleteIS5_EEEEEEPvEEE9constructB8de190102INS_4pairIKcS8_EEJRKNS_21piecewise_construct_tENS_5tupleIJRSF_EEENSK_IJEEEEEEvPT_DpOT0_, symObjAddr: 0x27914, symBinAddr: 0x10002DD18, symSize: 0x44 }
  - { offset: 0x825A3, size: 0x8, addend: 0x0, symName: __ZNSt3__14pairIKcNS_10unique_ptrIN6spdlog21custom_flag_formatterENS_14default_deleteIS4_EEEEEC1B8de190102IJRS1_EJEEENS_21piecewise_construct_tENS_5tupleIJDpT_EEENSC_IJDpT0_EEE, symObjAddr: 0x27958, symBinAddr: 0x10002DD5C, symSize: 0x44 }
  - { offset: 0x82609, size: 0x8, addend: 0x0, symName: __ZNSt3__14pairIKcNS_10unique_ptrIN6spdlog21custom_flag_formatterENS_14default_deleteIS4_EEEEEC1B8de190102IJRS1_EJEJLm0EEJEEENS_21piecewise_construct_tERNS_5tupleIJDpT_EEERNSC_IJDpT0_EEENS_15__tuple_indicesIJXspT1_EEEENSL_IJXspT2_EEEE, symObjAddr: 0x2799C, symBinAddr: 0x10002DDA0, symSize: 0x3C }
  - { offset: 0x8269B, size: 0x8, addend: 0x0, symName: __ZNSt3__14pairIKcNS_10unique_ptrIN6spdlog21custom_flag_formatterENS_14default_deleteIS4_EEEEEC2B8de190102IJRS1_EJEJLm0EEJEEENS_21piecewise_construct_tERNS_5tupleIJDpT_EEERNSC_IJDpT0_EEENS_15__tuple_indicesIJXspT1_EEEENSL_IJXspT2_EEEE, symObjAddr: 0x279D8, symBinAddr: 0x10002DDDC, symSize: 0x4C }
  - { offset: 0x8272D, size: 0x8, addend: 0x0, symName: __ZNSt3__110unique_ptrIN6spdlog21custom_flag_formatterENS_14default_deleteIS2_EEEC1B8de190102ILb1EvEEv, symObjAddr: 0x27A48, symBinAddr: 0x10002DE4C, symSize: 0x2C }
  - { offset: 0x82762, size: 0x8, addend: 0x0, symName: __ZNSt3__112__tuple_leafILm0ERKcLb0EE3getB8de190102Ev, symObjAddr: 0x27A74, symBinAddr: 0x10002DE78, symSize: 0x18 }
  - { offset: 0x82787, size: 0x8, addend: 0x0, symName: __ZNSt3__110unique_ptrIN6spdlog21custom_flag_formatterENS_14default_deleteIS2_EEEC2B8de190102ILb1EvEEv, symObjAddr: 0x27A8C, symBinAddr: 0x10002DE90, symSize: 0x3C }
  - { offset: 0x827BC, size: 0x8, addend: 0x0, symName: __ZNSt3__117__compressed_pairIPN6spdlog21custom_flag_formatterENS_14default_deleteIS2_EEEC1B8de190102INS_16__value_init_tagES8_EEOT_OT0_, symObjAddr: 0x27AC8, symBinAddr: 0x10002DECC, symSize: 0x3C }
  - { offset: 0x82813, size: 0x8, addend: 0x0, symName: __ZNSt3__117__compressed_pairIPN6spdlog21custom_flag_formatterENS_14default_deleteIS2_EEEC2B8de190102INS_16__value_init_tagES8_EEOT_OT0_, symObjAddr: 0x27B04, symBinAddr: 0x10002DF08, symSize: 0x3C }
  - { offset: 0x8286A, size: 0x8, addend: 0x0, symName: __ZNSt3__122__compressed_pair_elemIPN6spdlog21custom_flag_formatterELi0ELb0EEC2B8de190102ENS_16__value_init_tagE, symObjAddr: 0x27B40, symBinAddr: 0x10002DF44, symSize: 0x18 }
  - { offset: 0x8289E, size: 0x8, addend: 0x0, symName: __ZNSt3__122__compressed_pair_elemINS_14default_deleteIN6spdlog21custom_flag_formatterEEELi1ELb1EEC2B8de190102ENS_16__value_init_tagE, symObjAddr: 0x27B58, symBinAddr: 0x10002DF5C, symSize: 0x14 }
  - { offset: 0x828D2, size: 0x8, addend: 0x0, symName: __ZNSt3__117__compressed_pairIPNS_11__hash_nodeINS_17__hash_value_typeIcNS_10unique_ptrIN6spdlog21custom_flag_formatterENS_14default_deleteIS5_EEEEEEPvEENS_22__hash_node_destructorINS_9allocatorISB_EEEEE6secondB8de190102Ev, symObjAddr: 0x27B6C, symBinAddr: 0x10002DF70, symSize: 0x28 }
  - { offset: 0x828F7, size: 0x8, addend: 0x0, symName: __ZNSt3__122__compressed_pair_elemINS_22__hash_node_destructorINS_9allocatorINS_11__hash_nodeINS_17__hash_value_typeIcNS_10unique_ptrIN6spdlog21custom_flag_formatterENS_14default_deleteIS7_EEEEEEPvEEEEEELi1ELb0EE5__getB8de190102Ev, symObjAddr: 0x27B94, symBinAddr: 0x10002DF98, symSize: 0x14 }
  - { offset: 0x8291C, size: 0x8, addend: 0x0, symName: __ZNSt3__117__compressed_pairImNS_22__unordered_map_hasherIcNS_17__hash_value_typeIcNS_10unique_ptrIN6spdlog21custom_flag_formatterENS_14default_deleteIS5_EEEEEENS_4hashIcEENS_8equal_toIcEELb1EEEE5firstB8de190102Ev, symObjAddr: 0x27BA8, symBinAddr: 0x10002DFAC, symSize: 0x24 }
  - { offset: 0x82941, size: 0x8, addend: 0x0, symName: __ZNSt3__122__compressed_pair_elemImLi0ELb0EE5__getB8de190102Ev, symObjAddr: 0x27BCC, symBinAddr: 0x10002DFD0, symSize: 0x14 }
  - { offset: 0x82966, size: 0x8, addend: 0x0, symName: __ZNSt3__117__compressed_pairIfNS_21__unordered_map_equalIcNS_17__hash_value_typeIcNS_10unique_ptrIN6spdlog21custom_flag_formatterENS_14default_deleteIS5_EEEEEENS_8equal_toIcEENS_4hashIcEELb1EEEE5firstB8de190102Ev, symObjAddr: 0x27BE0, symBinAddr: 0x10002DFE4, symSize: 0x24 }
  - { offset: 0x8298B, size: 0x8, addend: 0x0, symName: __ZNSt3__122__compressed_pair_elemIfLi0ELb0EE5__getB8de190102Ev, symObjAddr: 0x27C04, symBinAddr: 0x10002E008, symSize: 0x14 }
  - { offset: 0x829B0, size: 0x8, addend: 0x0, symName: __ZNSt3__112__hash_tableINS_17__hash_value_typeIcNS_10unique_ptrIN6spdlog21custom_flag_formatterENS_14default_deleteIS4_EEEEEENS_22__unordered_map_hasherIcS8_NS_4hashIcEENS_8equal_toIcEELb1EEENS_21__unordered_map_equalIcS8_SD_SB_Lb1EEENS_9allocatorIS8_EEE8__rehashILb1EEEvm, symObjAddr: 0x27C18, symBinAddr: 0x10002E01C, symSize: 0x194 }
  - { offset: 0x829FD, size: 0x8, addend: 0x0, symName: __ZNSt3__112__hash_tableINS_17__hash_value_typeIcNS_10unique_ptrIN6spdlog21custom_flag_formatterENS_14default_deleteIS4_EEEEEENS_22__unordered_map_hasherIcS8_NS_4hashIcEENS_8equal_toIcEELb1EEENS_21__unordered_map_equalIcS8_SD_SB_Lb1EEENS_9allocatorIS8_EEE11__do_rehashILb1EEEvm, symObjAddr: 0x27DAC, symBinAddr: 0x10002E1B0, symSize: 0x260 }
  - { offset: 0x82AE1, size: 0x8, addend: 0x0, symName: __ZNSt3__110unique_ptrIA_PNS_16__hash_node_baseIPNS_11__hash_nodeINS_17__hash_value_typeIcNS0_IN6spdlog21custom_flag_formatterENS_14default_deleteIS5_EEEEEEPvEEEENS_25__bucket_list_deallocatorINS_9allocatorISE_EEEEE11get_deleterB8de190102Ev, symObjAddr: 0x28074, symBinAddr: 0x10002E478, symSize: 0x24 }
  - { offset: 0x82B06, size: 0x8, addend: 0x0, symName: __ZNSt3__125__bucket_list_deallocatorINS_9allocatorIPNS_16__hash_node_baseIPNS_11__hash_nodeINS_17__hash_value_typeIcNS_10unique_ptrIN6spdlog21custom_flag_formatterENS_14default_deleteIS7_EEEEEEPvEEEEEEE7__allocB8de190102Ev, symObjAddr: 0x28098, symBinAddr: 0x10002E49C, symSize: 0x24 }
  - { offset: 0x82B2B, size: 0x8, addend: 0x0, symName: __ZNSt3__110unique_ptrIA_PNS_16__hash_node_baseIPNS_11__hash_nodeINS_17__hash_value_typeIcNS0_IN6spdlog21custom_flag_formatterENS_14default_deleteIS5_EEEEEEPvEEEENS_25__bucket_list_deallocatorINS_9allocatorISE_EEEEE5resetB8de190102IPSE_Li0EEEvT_, symObjAddr: 0x280BC, symBinAddr: 0x10002E4C0, symSize: 0x70 }
  - { offset: 0x82B7D, size: 0x8, addend: 0x0, symName: __ZNSt3__116allocator_traitsINS_9allocatorIPNS_16__hash_node_baseIPNS_11__hash_nodeINS_17__hash_value_typeIcNS_10unique_ptrIN6spdlog21custom_flag_formatterENS_14default_deleteIS7_EEEEEEPvEEEEEEE8allocateB8de190102ERSH_m, symObjAddr: 0x2812C, symBinAddr: 0x10002E530, symSize: 0x2C }
  - { offset: 0x82BB0, size: 0x8, addend: 0x0, symName: __ZNSt3__125__bucket_list_deallocatorINS_9allocatorIPNS_16__hash_node_baseIPNS_11__hash_nodeINS_17__hash_value_typeIcNS_10unique_ptrIN6spdlog21custom_flag_formatterENS_14default_deleteIS7_EEEEEEPvEEEEEEE4sizeB8de190102Ev, symObjAddr: 0x28158, symBinAddr: 0x10002E55C, symSize: 0x24 }
  - { offset: 0x82BD5, size: 0x8, addend: 0x0, symName: __ZNSt3__117__compressed_pairIPPNS_16__hash_node_baseIPNS_11__hash_nodeINS_17__hash_value_typeIcNS_10unique_ptrIN6spdlog21custom_flag_formatterENS_14default_deleteIS6_EEEEEEPvEEEENS_25__bucket_list_deallocatorINS_9allocatorISF_EEEEE6secondB8de190102Ev, symObjAddr: 0x2817C, symBinAddr: 0x10002E580, symSize: 0x28 }
  - { offset: 0x82BFA, size: 0x8, addend: 0x0, symName: __ZNSt3__122__compressed_pair_elemINS_25__bucket_list_deallocatorINS_9allocatorIPNS_16__hash_node_baseIPNS_11__hash_nodeINS_17__hash_value_typeIcNS_10unique_ptrIN6spdlog21custom_flag_formatterENS_14default_deleteIS8_EEEEEEPvEEEEEEEELi1ELb0EE5__getB8de190102Ev, symObjAddr: 0x281A4, symBinAddr: 0x10002E5A8, symSize: 0x14 }
  - { offset: 0x82C1F, size: 0x8, addend: 0x0, symName: __ZNSt3__117__compressed_pairImNS_9allocatorIPNS_16__hash_node_baseIPNS_11__hash_nodeINS_17__hash_value_typeIcNS_10unique_ptrIN6spdlog21custom_flag_formatterENS_14default_deleteIS7_EEEEEEPvEEEEEEE6secondB8de190102Ev, symObjAddr: 0x281B8, symBinAddr: 0x10002E5BC, symSize: 0x24 }
  - { offset: 0x82C44, size: 0x8, addend: 0x0, symName: __ZNSt3__122__compressed_pair_elemINS_9allocatorIPNS_16__hash_node_baseIPNS_11__hash_nodeINS_17__hash_value_typeIcNS_10unique_ptrIN6spdlog21custom_flag_formatterENS_14default_deleteIS7_EEEEEEPvEEEEEELi1ELb1EE5__getB8de190102Ev, symObjAddr: 0x281DC, symBinAddr: 0x10002E5E0, symSize: 0x14 }
  - { offset: 0x82C69, size: 0x8, addend: 0x0, symName: __ZNSt3__117__compressed_pairIPPNS_16__hash_node_baseIPNS_11__hash_nodeINS_17__hash_value_typeIcNS_10unique_ptrIN6spdlog21custom_flag_formatterENS_14default_deleteIS6_EEEEEEPvEEEENS_25__bucket_list_deallocatorINS_9allocatorISF_EEEEE5firstB8de190102Ev, symObjAddr: 0x281F0, symBinAddr: 0x10002E5F4, symSize: 0x24 }
  - { offset: 0x82C8E, size: 0x8, addend: 0x0, symName: __ZNSt3__125__bucket_list_deallocatorINS_9allocatorIPNS_16__hash_node_baseIPNS_11__hash_nodeINS_17__hash_value_typeIcNS_10unique_ptrIN6spdlog21custom_flag_formatterENS_14default_deleteIS7_EEEEEEPvEEEEEEEclB8de190102EPSG_, symObjAddr: 0x28214, symBinAddr: 0x10002E618, symSize: 0x58 }
  - { offset: 0x82CC2, size: 0x8, addend: 0x0, symName: __ZNSt3__122__compressed_pair_elemIPPNS_16__hash_node_baseIPNS_11__hash_nodeINS_17__hash_value_typeIcNS_10unique_ptrIN6spdlog21custom_flag_formatterENS_14default_deleteIS6_EEEEEEPvEEEELi0ELb0EE5__getB8de190102Ev, symObjAddr: 0x2826C, symBinAddr: 0x10002E670, symSize: 0x14 }
  - { offset: 0x82CE7, size: 0x8, addend: 0x0, symName: __ZNSt3__116allocator_traitsINS_9allocatorIPNS_16__hash_node_baseIPNS_11__hash_nodeINS_17__hash_value_typeIcNS_10unique_ptrIN6spdlog21custom_flag_formatterENS_14default_deleteIS7_EEEEEEPvEEEEEEE10deallocateB8de190102ERSH_PSG_m, symObjAddr: 0x28280, symBinAddr: 0x10002E684, symSize: 0x34 }
  - { offset: 0x82D29, size: 0x8, addend: 0x0, symName: __ZNSt3__19allocatorIPNS_16__hash_node_baseIPNS_11__hash_nodeINS_17__hash_value_typeIcNS_10unique_ptrIN6spdlog21custom_flag_formatterENS_14default_deleteIS6_EEEEEEPvEEEEE10deallocateB8de190102EPSF_m, symObjAddr: 0x282B4, symBinAddr: 0x10002E6B8, symSize: 0x40 }
  - { offset: 0x82D6A, size: 0x8, addend: 0x0, symName: __ZNSt3__19allocatorIPNS_16__hash_node_baseIPNS_11__hash_nodeINS_17__hash_value_typeIcNS_10unique_ptrIN6spdlog21custom_flag_formatterENS_14default_deleteIS6_EEEEEEPvEEEEE8allocateB8de190102Em, symObjAddr: 0x282F4, symBinAddr: 0x10002E6F8, symSize: 0x54 }
  - { offset: 0x82DA7, size: 0x8, addend: 0x0, symName: __ZNSt3__116allocator_traitsINS_9allocatorIPNS_16__hash_node_baseIPNS_11__hash_nodeINS_17__hash_value_typeIcNS_10unique_ptrIN6spdlog21custom_flag_formatterENS_14default_deleteIS7_EEEEEEPvEEEEEEE8max_sizeB8de190102ISH_Li0EEEmRKSH_, symObjAddr: 0x28348, symBinAddr: 0x10002E74C, symSize: 0x24 }
  - { offset: 0x82DDA, size: 0x8, addend: 0x0, symName: __ZNKSt3__19allocatorIPNS_16__hash_node_baseIPNS_11__hash_nodeINS_17__hash_value_typeIcNS_10unique_ptrIN6spdlog21custom_flag_formatterENS_14default_deleteIS6_EEEEEEPvEEEEE8max_sizeB8de190102Ev, symObjAddr: 0x2836C, symBinAddr: 0x10002E770, symSize: 0x14 }
  - { offset: 0x82DFF, size: 0x8, addend: 0x0, symName: __ZNSt3__117__compressed_pairImNS_9allocatorIPNS_16__hash_node_baseIPNS_11__hash_nodeINS_17__hash_value_typeIcNS_10unique_ptrIN6spdlog21custom_flag_formatterENS_14default_deleteIS7_EEEEEEPvEEEEEEE5firstB8de190102Ev, symObjAddr: 0x28380, symBinAddr: 0x10002E784, symSize: 0x24 }
  - { offset: 0x82E24, size: 0x8, addend: 0x0, symName: __ZNSt3__122__compressed_pair_elemINS_16__hash_node_baseIPNS_11__hash_nodeINS_17__hash_value_typeIcNS_10unique_ptrIN6spdlog21custom_flag_formatterENS_14default_deleteIS6_EEEEEEPvEEEELi0ELb0EE5__getB8de190102Ev, symObjAddr: 0x283C0, symBinAddr: 0x10002E7C4, symSize: 0x14 }
  - { offset: 0x82E49, size: 0x8, addend: 0x0, symName: __ZNSt3__117__compressed_pairIPNS_11__hash_nodeINS_17__hash_value_typeIcNS_10unique_ptrIN6spdlog21custom_flag_formatterENS_14default_deleteIS5_EEEEEEPvEENS_22__hash_node_destructorINS_9allocatorISB_EEEEE5firstB8de190102Ev, symObjAddr: 0x283D4, symBinAddr: 0x10002E7D8, symSize: 0x24 }
  - { offset: 0x82E6E, size: 0x8, addend: 0x0, symName: __ZNSt3__122__compressed_pair_elemIPNS_11__hash_nodeINS_17__hash_value_typeIcNS_10unique_ptrIN6spdlog21custom_flag_formatterENS_14default_deleteIS5_EEEEEEPvEELi0ELb0EE5__getB8de190102Ev, symObjAddr: 0x283F8, symBinAddr: 0x10002E7FC, symSize: 0x14 }
  - { offset: 0x82E93, size: 0x8, addend: 0x0, symName: __ZNSt3__110unique_ptrINS_11__hash_nodeINS_17__hash_value_typeIcNS0_IN6spdlog21custom_flag_formatterENS_14default_deleteIS4_EEEEEEPvEENS_22__hash_node_destructorINS_9allocatorISA_EEEEED2B8de190102Ev, symObjAddr: 0x2840C, symBinAddr: 0x10002E810, symSize: 0x30 }
  - { offset: 0x82EBC, size: 0x8, addend: 0x0, symName: __ZNSt3__110unique_ptrINS_11__hash_nodeINS_17__hash_value_typeIcNS0_IN6spdlog21custom_flag_formatterENS_14default_deleteIS4_EEEEEEPvEENS_22__hash_node_destructorINS_9allocatorISA_EEEEE5resetB8de190102EPSA_, symObjAddr: 0x2843C, symBinAddr: 0x10002E840, symSize: 0x70 }
  - { offset: 0x82EFF, size: 0x8, addend: 0x0, symName: __ZNSt3__122__hash_node_destructorINS_9allocatorINS_11__hash_nodeINS_17__hash_value_typeIcNS_10unique_ptrIN6spdlog21custom_flag_formatterENS_14default_deleteIS6_EEEEEEPvEEEEEclB8de190102EPSC_, symObjAddr: 0x284AC, symBinAddr: 0x10002E8B0, symSize: 0x9C }
  - { offset: 0x82F33, size: 0x8, addend: 0x0, symName: __ZNSt3__116allocator_traitsINS_9allocatorINS_11__hash_nodeINS_17__hash_value_typeIcNS_10unique_ptrIN6spdlog21custom_flag_formatterENS_14default_deleteIS6_EEEEEEPvEEEEE7destroyB8de190102INS_4pairIKcS9_EEvLi0EEEvRSD_PT_, symObjAddr: 0x28548, symBinAddr: 0x10002E94C, symSize: 0x28 }
  - { offset: 0x82F74, size: 0x8, addend: 0x0, symName: __ZNSt3__116allocator_traitsINS_9allocatorINS_11__hash_nodeINS_17__hash_value_typeIcNS_10unique_ptrIN6spdlog21custom_flag_formatterENS_14default_deleteIS6_EEEEEEPvEEEEE10deallocateB8de190102ERSD_PSC_m, symObjAddr: 0x285A8, symBinAddr: 0x10002E9AC, symSize: 0x34 }
  - { offset: 0x82FB5, size: 0x8, addend: 0x0, symName: __ZNSt3__14pairIKcNS_10unique_ptrIN6spdlog21custom_flag_formatterENS_14default_deleteIS4_EEEEED1Ev, symObjAddr: 0x28614, symBinAddr: 0x10002EA18, symSize: 0x2C }
  - { offset: 0x82FDF, size: 0x8, addend: 0x0, symName: __ZNSt3__14pairIKcNS_10unique_ptrIN6spdlog21custom_flag_formatterENS_14default_deleteIS4_EEEEED2Ev, symObjAddr: 0x28640, symBinAddr: 0x10002EA44, symSize: 0x30 }
  - { offset: 0x8300A, size: 0x8, addend: 0x0, symName: __ZNSt3__111__hash_nodeINS_17__hash_value_typeIcNS_10unique_ptrIN6spdlog21custom_flag_formatterENS_14default_deleteIS4_EEEEEEPvED1B8de190102Ev, symObjAddr: 0x28670, symBinAddr: 0x10002EA74, symSize: 0x2C }
  - { offset: 0x83033, size: 0x8, addend: 0x0, symName: __ZNSt3__111__hash_nodeINS_17__hash_value_typeIcNS_10unique_ptrIN6spdlog21custom_flag_formatterENS_14default_deleteIS4_EEEEEEPvED2B8de190102Ev, symObjAddr: 0x2869C, symBinAddr: 0x10002EAA0, symSize: 0x14 }
  - { offset: 0x8305C, size: 0x8, addend: 0x0, symName: __ZNSt3__19allocatorINS_11__hash_nodeINS_17__hash_value_typeIcNS_10unique_ptrIN6spdlog21custom_flag_formatterENS_14default_deleteIS5_EEEEEEPvEEE10deallocateB8de190102EPSB_m, symObjAddr: 0x286B0, symBinAddr: 0x10002EAB4, symSize: 0x40 }
  - { offset: 0x8309D, size: 0x8, addend: 0x0, symName: __ZNSt3__115__hash_iteratorIPNS_11__hash_nodeINS_17__hash_value_typeIcNS_10unique_ptrIN6spdlog21custom_flag_formatterENS_14default_deleteIS5_EEEEEEPvEEEC2B8de190102EPNS_16__hash_node_baseISC_EE, symObjAddr: 0x286F0, symBinAddr: 0x10002EAF4, symSize: 0x20 }
  - { offset: 0x830D5, size: 0x8, addend: 0x0, symName: __ZNSt3__14pairINS_15__hash_iteratorIPNS_11__hash_nodeINS_17__hash_value_typeIcNS_10unique_ptrIN6spdlog21custom_flag_formatterENS_14default_deleteIS6_EEEEEEPvEEEEbEC2B8de190102ISE_RbLi0EEEOT_OT0_, symObjAddr: 0x28710, symBinAddr: 0x10002EB14, symSize: 0x38 }
  - { offset: 0x83132, size: 0x8, addend: 0x0, symName: __ZNSt3__15tupleIJRKcEEC1B8de190102INS_4_AndELi0EEES2_, symObjAddr: 0x28748, symBinAddr: 0x10002EB4C, symSize: 0x34 }
  - { offset: 0x8317A, size: 0x8, addend: 0x0, symName: __ZNSt3__15tupleIJRKcEEC2B8de190102INS_4_AndELi0EEES2_, symObjAddr: 0x2877C, symBinAddr: 0x10002EB80, symSize: 0x34 }
  - { offset: 0x831C2, size: 0x8, addend: 0x0, symName: __ZNSt3__112__tuple_implINS_15__tuple_indicesIJLm0EEEEJRKcEEC1B8de190102IJLm0EEJS4_EJEJEJS4_EEENS1_IJXspT_EEEENS_13__tuple_typesIJDpT0_EEENS1_IJXspT1_EEEENS8_IJDpT2_EEEDpOT3_, symObjAddr: 0x287B0, symBinAddr: 0x10002EBB4, symSize: 0x34 }
  - { offset: 0x8325E, size: 0x8, addend: 0x0, symName: __ZNSt3__112__tuple_implINS_15__tuple_indicesIJLm0EEEEJRKcEEC2B8de190102IJLm0EEJS4_EJEJEJS4_EEENS1_IJXspT_EEEENS_13__tuple_typesIJDpT0_EEENS1_IJXspT1_EEEENS8_IJDpT2_EEEDpOT3_, symObjAddr: 0x287E4, symBinAddr: 0x10002EBE8, symSize: 0x34 }
  - { offset: 0x832FA, size: 0x8, addend: 0x0, symName: __ZNSt3__112__tuple_leafILm0ERKcLb0EEC2B8de190102IS2_Li0EEEOT_, symObjAddr: 0x28818, symBinAddr: 0x10002EC1C, symSize: 0x20 }
  - { offset: 0x83341, size: 0x8, addend: 0x0, symName: __ZNSt3__114pointer_traitsIPNS_17__hash_value_typeIcNS_10unique_ptrIN6spdlog21custom_flag_formatterENS_14default_deleteIS4_EEEEEEE10pointer_toB8de190102ERS8_, symObjAddr: 0x28838, symBinAddr: 0x10002EC3C, symSize: 0x14 }
  - { offset: 0x83364, size: 0x8, addend: 0x0, symName: __ZNSt3__110unique_ptrIN6spdlog21custom_flag_formatterENS_14default_deleteIS2_EEE5resetB8de190102EPS2_, symObjAddr: 0x2884C, symBinAddr: 0x10002EC50, symSize: 0x70 }
  - { offset: 0x833A7, size: 0x8, addend: 0x0, symName: __ZNSt3__110unique_ptrIN6spdlog21custom_flag_formatterENS_14default_deleteIS2_EEE7releaseB8de190102Ev, symObjAddr: 0x288BC, symBinAddr: 0x10002ECC0, symSize: 0x44 }
  - { offset: 0x833DB, size: 0x8, addend: 0x0, symName: __ZNSt3__110unique_ptrIN6spdlog21custom_flag_formatterENS_14default_deleteIS2_EEE11get_deleterB8de190102Ev, symObjAddr: 0x28900, symBinAddr: 0x10002ED04, symSize: 0x24 }
  - { offset: 0x83400, size: 0x8, addend: 0x0, symName: __ZNSt3__117__compressed_pairIPN6spdlog21custom_flag_formatterENS_14default_deleteIS2_EEE6secondB8de190102Ev, symObjAddr: 0x28924, symBinAddr: 0x10002ED28, symSize: 0x24 }
  - { offset: 0x83425, size: 0x8, addend: 0x0, symName: __ZNSt3__117__compressed_pairIPN6spdlog21custom_flag_formatterENS_14default_deleteIS2_EEE5firstB8de190102Ev, symObjAddr: 0x28948, symBinAddr: 0x10002ED4C, symSize: 0x24 }
  - { offset: 0x8344A, size: 0x8, addend: 0x0, symName: __ZNKSt3__114default_deleteIN6spdlog21custom_flag_formatterEEclB8de190102EPS2_, symObjAddr: 0x2896C, symBinAddr: 0x10002ED70, symSize: 0x44 }
  - { offset: 0x8347D, size: 0x8, addend: 0x0, symName: __ZNSt3__122__compressed_pair_elemIPN6spdlog21custom_flag_formatterELi0ELb0EE5__getB8de190102Ev, symObjAddr: 0x289B0, symBinAddr: 0x10002EDB4, symSize: 0x14 }
  - { offset: 0x834A2, size: 0x8, addend: 0x0, symName: __ZNSt3__122__compressed_pair_elemINS_14default_deleteIN6spdlog21custom_flag_formatterEEELi1ELb1EE5__getB8de190102Ev, symObjAddr: 0x289C4, symBinAddr: 0x10002EDC8, symSize: 0x14 }
  - { offset: 0x834C7, size: 0x8, addend: 0x0, symName: __ZNSt3__110unique_ptrIN6spdlog21custom_flag_formatterENS_14default_deleteIS2_EEED2B8de190102Ev, symObjAddr: 0x289D8, symBinAddr: 0x10002EDDC, symSize: 0x30 }
  - { offset: 0x834F0, size: 0x8, addend: 0x0, symName: __ZNSt3__121__hash_const_iteratorIPNS_11__hash_nodeINS_17__hash_value_typeIcNS_10unique_ptrIN6spdlog21custom_flag_formatterENS_14default_deleteIS5_EEEEEEPvEEEppB8de190102Ev, symObjAddr: 0x28A08, symBinAddr: 0x10002EE0C, symSize: 0x48 }
  - { offset: 0x83515, size: 0x8, addend: 0x0, symName: __ZNSt3__113unordered_mapIcNS_10unique_ptrIN6spdlog21custom_flag_formatterENS_14default_deleteIS3_EEEENS_4hashIcEENS_8equal_toIcEENS_9allocatorINS_4pairIKcS6_EEEEEC1EOSG_, symObjAddr: 0x28A50, symBinAddr: 0x10002EE54, symSize: 0x34 }
  - { offset: 0x8354D, size: 0x8, addend: 0x0, symName: __ZNSt3__110unique_ptrIN6spdlog17pattern_formatterENS_14default_deleteIS2_EEEC1B8de190102ILb1EvEEPS2_, symObjAddr: 0x28A84, symBinAddr: 0x10002EE88, symSize: 0x34 }
  - { offset: 0x83590, size: 0x8, addend: 0x0, symName: __ZNSt3__113unordered_mapIcNS_10unique_ptrIN6spdlog21custom_flag_formatterENS_14default_deleteIS3_EEEENS_4hashIcEENS_8equal_toIcEENS_9allocatorINS_4pairIKcS6_EEEEEC2EOSG_, symObjAddr: 0x28AB8, symBinAddr: 0x10002EEBC, symSize: 0x34 }
  - { offset: 0x835C8, size: 0x8, addend: 0x0, symName: __ZNSt3__112__hash_tableINS_17__hash_value_typeIcNS_10unique_ptrIN6spdlog21custom_flag_formatterENS_14default_deleteIS4_EEEEEENS_22__unordered_map_hasherIcS8_NS_4hashIcEENS_8equal_toIcEELb1EEENS_21__unordered_map_equalIcS8_SD_SB_Lb1EEENS_9allocatorIS8_EEEC1EOSJ_, symObjAddr: 0x28AEC, symBinAddr: 0x10002EEF0, symSize: 0x34 }
  - { offset: 0x83600, size: 0x8, addend: 0x0, symName: __ZNSt3__112__hash_tableINS_17__hash_value_typeIcNS_10unique_ptrIN6spdlog21custom_flag_formatterENS_14default_deleteIS4_EEEEEENS_22__unordered_map_hasherIcS8_NS_4hashIcEENS_8equal_toIcEELb1EEENS_21__unordered_map_equalIcS8_SD_SB_Lb1EEENS_9allocatorIS8_EEEC2EOSJ_, symObjAddr: 0x28B20, symBinAddr: 0x10002EF24, symSize: 0xF4 }
  - { offset: 0x83638, size: 0x8, addend: 0x0, symName: __ZNSt3__110unique_ptrIA_PNS_16__hash_node_baseIPNS_11__hash_nodeINS_17__hash_value_typeIcNS0_IN6spdlog21custom_flag_formatterENS_14default_deleteIS5_EEEEEEPvEEEENS_25__bucket_list_deallocatorINS_9allocatorISE_EEEEEC1B8de190102EOSK_, symObjAddr: 0x28C14, symBinAddr: 0x10002F018, symSize: 0x34 }
  - { offset: 0x83670, size: 0x8, addend: 0x0, symName: __ZNSt3__110unique_ptrIA_PNS_16__hash_node_baseIPNS_11__hash_nodeINS_17__hash_value_typeIcNS0_IN6spdlog21custom_flag_formatterENS_14default_deleteIS5_EEEEEEPvEEEENS_25__bucket_list_deallocatorINS_9allocatorISE_EEEEEC2B8de190102EOSK_, symObjAddr: 0x28C48, symBinAddr: 0x10002F04C, symSize: 0x60 }
  - { offset: 0x836A8, size: 0x8, addend: 0x0, symName: __ZNSt3__110unique_ptrIA_PNS_16__hash_node_baseIPNS_11__hash_nodeINS_17__hash_value_typeIcNS0_IN6spdlog21custom_flag_formatterENS_14default_deleteIS5_EEEEEEPvEEEENS_25__bucket_list_deallocatorINS_9allocatorISE_EEEEE7releaseB8de190102Ev, symObjAddr: 0x28CA8, symBinAddr: 0x10002F0AC, symSize: 0x44 }
  - { offset: 0x836E1, size: 0x8, addend: 0x0, symName: __ZNSt3__117__compressed_pairIPPNS_16__hash_node_baseIPNS_11__hash_nodeINS_17__hash_value_typeIcNS_10unique_ptrIN6spdlog21custom_flag_formatterENS_14default_deleteIS6_EEEEEEPvEEEENS_25__bucket_list_deallocatorINS_9allocatorISF_EEEEEC1B8de190102ISG_SK_EEOT_OT0_, symObjAddr: 0x28CEC, symBinAddr: 0x10002F0F0, symSize: 0x3C }
  - { offset: 0x83738, size: 0x8, addend: 0x0, symName: __ZNSt3__117__compressed_pairIPPNS_16__hash_node_baseIPNS_11__hash_nodeINS_17__hash_value_typeIcNS_10unique_ptrIN6spdlog21custom_flag_formatterENS_14default_deleteIS6_EEEEEEPvEEEENS_25__bucket_list_deallocatorINS_9allocatorISF_EEEEEC2B8de190102ISG_SK_EEOT_OT0_, symObjAddr: 0x28D28, symBinAddr: 0x10002F12C, symSize: 0x48 }
  - { offset: 0x8378F, size: 0x8, addend: 0x0, symName: __ZNSt3__122__compressed_pair_elemIPPNS_16__hash_node_baseIPNS_11__hash_nodeINS_17__hash_value_typeIcNS_10unique_ptrIN6spdlog21custom_flag_formatterENS_14default_deleteIS6_EEEEEEPvEEEELi0ELb0EEC2B8de190102ISG_Li0EEEOT_, symObjAddr: 0x28D70, symBinAddr: 0x10002F174, symSize: 0x24 }
  - { offset: 0x837D5, size: 0x8, addend: 0x0, symName: __ZNSt3__122__compressed_pair_elemINS_25__bucket_list_deallocatorINS_9allocatorIPNS_16__hash_node_baseIPNS_11__hash_nodeINS_17__hash_value_typeIcNS_10unique_ptrIN6spdlog21custom_flag_formatterENS_14default_deleteIS8_EEEEEEPvEEEEEEEELi1ELb0EEC2B8de190102ISJ_Li0EEEOT_, symObjAddr: 0x28D94, symBinAddr: 0x10002F198, symSize: 0x34 }
  - { offset: 0x8381B, size: 0x8, addend: 0x0, symName: __ZNSt3__125__bucket_list_deallocatorINS_9allocatorIPNS_16__hash_node_baseIPNS_11__hash_nodeINS_17__hash_value_typeIcNS_10unique_ptrIN6spdlog21custom_flag_formatterENS_14default_deleteIS7_EEEEEEPvEEEEEEEC1B8de190102EOSI_, symObjAddr: 0x28DC8, symBinAddr: 0x10002F1CC, symSize: 0x34 }
  - { offset: 0x83853, size: 0x8, addend: 0x0, symName: __ZNSt3__125__bucket_list_deallocatorINS_9allocatorIPNS_16__hash_node_baseIPNS_11__hash_nodeINS_17__hash_value_typeIcNS_10unique_ptrIN6spdlog21custom_flag_formatterENS_14default_deleteIS7_EEEEEEPvEEEEEEEC2B8de190102EOSI_, symObjAddr: 0x28DFC, symBinAddr: 0x10002F200, symSize: 0x48 }
  - { offset: 0x8388B, size: 0x8, addend: 0x0, symName: __ZNSt3__110unique_ptrIN6spdlog17pattern_formatterENS_14default_deleteIS2_EEEC2B8de190102ILb1EvEEPS2_, symObjAddr: 0x28E44, symBinAddr: 0x10002F248, symSize: 0x44 }
  - { offset: 0x838CE, size: 0x8, addend: 0x0, symName: __ZNSt3__117__compressed_pairIPN6spdlog17pattern_formatterENS_14default_deleteIS2_EEEC1B8de190102IRS3_NS_16__value_init_tagEEEOT_OT0_, symObjAddr: 0x28E88, symBinAddr: 0x10002F28C, symSize: 0x3C }
  - { offset: 0x83925, size: 0x8, addend: 0x0, symName: __ZNSt3__117__compressed_pairIPN6spdlog17pattern_formatterENS_14default_deleteIS2_EEEC2B8de190102IRS3_NS_16__value_init_tagEEEOT_OT0_, symObjAddr: 0x28EC4, symBinAddr: 0x10002F2C8, symSize: 0x40 }
  - { offset: 0x8397C, size: 0x8, addend: 0x0, symName: __ZNSt3__122__compressed_pair_elemIPN6spdlog17pattern_formatterELi0ELb0EEC2B8de190102IRS3_Li0EEEOT_, symObjAddr: 0x28F04, symBinAddr: 0x10002F308, symSize: 0x24 }
  - { offset: 0x839C2, size: 0x8, addend: 0x0, symName: __ZNSt3__122__compressed_pair_elemINS_14default_deleteIN6spdlog17pattern_formatterEEELi1ELb1EEC2B8de190102ENS_16__value_init_tagE, symObjAddr: 0x28F28, symBinAddr: 0x10002F32C, symSize: 0x14 }
  - { offset: 0x839F6, size: 0x8, addend: 0x0, symName: __ZNKSt3__117__compressed_pairIPN6spdlog17pattern_formatterENS_14default_deleteIS2_EEE5firstB8de190102Ev, symObjAddr: 0x28F3C, symBinAddr: 0x10002F340, symSize: 0x24 }
  - { offset: 0x83A1B, size: 0x8, addend: 0x0, symName: __ZNKSt3__122__compressed_pair_elemIPN6spdlog17pattern_formatterELi0ELb0EE5__getB8de190102Ev, symObjAddr: 0x28F60, symBinAddr: 0x10002F364, symSize: 0x14 }
  - { offset: 0x83A40, size: 0x8, addend: 0x0, symName: __ZNSt3__110unique_ptrIN6spdlog9formatterENS_14default_deleteIS2_EEEC2B8de190102INS1_17pattern_formatterENS3_IS7_EEvvEEONS0_IT_T0_EE, symObjAddr: 0x28F74, symBinAddr: 0x10002F378, symSize: 0x60 }
  - { offset: 0x83A8D, size: 0x8, addend: 0x0, symName: __ZNSt3__110unique_ptrIN6spdlog17pattern_formatterENS_14default_deleteIS2_EEE7releaseB8de190102Ev, symObjAddr: 0x28FD4, symBinAddr: 0x10002F3D8, symSize: 0x44 }
  - { offset: 0x83AC1, size: 0x8, addend: 0x0, symName: __ZNSt3__110unique_ptrIN6spdlog17pattern_formatterENS_14default_deleteIS2_EEE11get_deleterB8de190102Ev, symObjAddr: 0x29018, symBinAddr: 0x10002F41C, symSize: 0x24 }
  - { offset: 0x83AF0, size: 0x8, addend: 0x0, symName: __ZNSt3__117__compressed_pairIPN6spdlog9formatterENS_14default_deleteIS2_EEEC1B8de190102IPNS1_17pattern_formatterENS4_IS8_EEEEOT_OT0_, symObjAddr: 0x2903C, symBinAddr: 0x10002F440, symSize: 0x3C }
  - { offset: 0x83B47, size: 0x8, addend: 0x0, symName: __ZNSt3__117__compressed_pairIPN6spdlog17pattern_formatterENS_14default_deleteIS2_EEE5firstB8de190102Ev, symObjAddr: 0x29078, symBinAddr: 0x10002F47C, symSize: 0x24 }
  - { offset: 0x83B6C, size: 0x8, addend: 0x0, symName: __ZNSt3__122__compressed_pair_elemIPN6spdlog17pattern_formatterELi0ELb0EE5__getB8de190102Ev, symObjAddr: 0x2909C, symBinAddr: 0x10002F4A0, symSize: 0x14 }
  - { offset: 0x83B91, size: 0x8, addend: 0x0, symName: __ZNSt3__117__compressed_pairIPN6spdlog17pattern_formatterENS_14default_deleteIS2_EEE6secondB8de190102Ev, symObjAddr: 0x290B0, symBinAddr: 0x10002F4B4, symSize: 0x24 }
  - { offset: 0x83BB6, size: 0x8, addend: 0x0, symName: __ZNSt3__122__compressed_pair_elemINS_14default_deleteIN6spdlog17pattern_formatterEEELi1ELb1EE5__getB8de190102Ev, symObjAddr: 0x290D4, symBinAddr: 0x10002F4D8, symSize: 0x14 }
  - { offset: 0x83BDB, size: 0x8, addend: 0x0, symName: __ZNSt3__117__compressed_pairIPN6spdlog9formatterENS_14default_deleteIS2_EEEC2B8de190102IPNS1_17pattern_formatterENS4_IS8_EEEEOT_OT0_, symObjAddr: 0x290E8, symBinAddr: 0x10002F4EC, symSize: 0x44 }
  - { offset: 0x83C32, size: 0x8, addend: 0x0, symName: __ZNSt3__122__compressed_pair_elemIPN6spdlog9formatterELi0ELb0EEC2B8de190102IPNS1_17pattern_formatterELi0EEEOT_, symObjAddr: 0x2912C, symBinAddr: 0x10002F530, symSize: 0x24 }
  - { offset: 0x83C78, size: 0x8, addend: 0x0, symName: __ZNSt3__122__compressed_pair_elemINS_14default_deleteIN6spdlog9formatterEEELi1ELb1EEC2B8de190102INS1_INS2_17pattern_formatterEEELi0EEEOT_, symObjAddr: 0x29150, symBinAddr: 0x10002F554, symSize: 0x34 }
  - { offset: 0x83CBE, size: 0x8, addend: 0x0, symName: __ZNSt3__114default_deleteIN6spdlog9formatterEEC2B8de190102INS1_17pattern_formatterELi0EEERKNS0_IT_EE, symObjAddr: 0x29184, symBinAddr: 0x10002F588, symSize: 0x18 }
  - { offset: 0x83D01, size: 0x8, addend: 0x0, symName: __ZNSt3__110unique_ptrIN6spdlog17pattern_formatterENS_14default_deleteIS2_EEED2B8de190102Ev, symObjAddr: 0x2919C, symBinAddr: 0x10002F5A0, symSize: 0x30 }
  - { offset: 0x83D2A, size: 0x8, addend: 0x0, symName: __ZNSt3__110unique_ptrIN6spdlog17pattern_formatterENS_14default_deleteIS2_EEE5resetB8de190102EPS2_, symObjAddr: 0x291CC, symBinAddr: 0x10002F5D0, symSize: 0x70 }
  - { offset: 0x83D6D, size: 0x8, addend: 0x0, symName: __ZNKSt3__114default_deleteIN6spdlog17pattern_formatterEEclB8de190102EPS2_, symObjAddr: 0x2923C, symBinAddr: 0x10002F640, symSize: 0x44 }
  - { offset: 0x83DA0, size: 0x8, addend: 0x0, symName: __ZNSt3__18functionIFvRKNS_12basic_stringIcNS_11char_traitsIcEENS_9allocatorIcEEEEEEC2B8de190102Ev, symObjAddr: 0x29280, symBinAddr: 0x10002F684, symSize: 0x2C }
  - { offset: 0x83DC9, size: 0x8, addend: 0x0, symName: __ZNSt3__110__function12__value_funcIFvRKNS_12basic_stringIcNS_11char_traitsIcEENS_9allocatorIcEEEEEEC1B8de190102Ev, symObjAddr: 0x292AC, symBinAddr: 0x10002F6B0, symSize: 0x2C }
  - { offset: 0x83DF2, size: 0x8, addend: 0x0, symName: __ZNSt3__110__function12__value_funcIFvRKNS_12basic_stringIcNS_11char_traitsIcEENS_9allocatorIcEEEEEEC2B8de190102Ev, symObjAddr: 0x292D8, symBinAddr: 0x10002F6DC, symSize: 0x18 }
  - { offset: 0x83E1B, size: 0x8, addend: 0x0, symName: __ZNSt3__110shared_ptrIN6spdlog7details11thread_poolEEC2B8de190102Ev, symObjAddr: 0x292F0, symBinAddr: 0x10002F6F4, symSize: 0x1C }
  - { offset: 0x83E44, size: 0x8, addend: 0x0, symName: __ZNSt3__110unique_ptrIN6spdlog7details15periodic_workerENS_14default_deleteIS3_EEEC2B8de190102ILb1EvEEv, symObjAddr: 0x2930C, symBinAddr: 0x10002F710, symSize: 0x3C }
  - { offset: 0x83E79, size: 0x8, addend: 0x0, symName: __ZNSt3__117__compressed_pairIPN6spdlog7details15periodic_workerENS_14default_deleteIS3_EEEC1B8de190102INS_16__value_init_tagES9_EEOT_OT0_, symObjAddr: 0x29348, symBinAddr: 0x10002F74C, symSize: 0x3C }
  - { offset: 0x83ED0, size: 0x8, addend: 0x0, symName: __ZNSt3__117__compressed_pairIPN6spdlog7details15periodic_workerENS_14default_deleteIS3_EEEC2B8de190102INS_16__value_init_tagES9_EEOT_OT0_, symObjAddr: 0x29384, symBinAddr: 0x10002F788, symSize: 0x3C }
  - { offset: 0x83F27, size: 0x8, addend: 0x0, symName: __ZNSt3__122__compressed_pair_elemIPN6spdlog7details15periodic_workerELi0ELb0EEC2B8de190102ENS_16__value_init_tagE, symObjAddr: 0x293C0, symBinAddr: 0x10002F7C4, symSize: 0x18 }
  - { offset: 0x83F5B, size: 0x8, addend: 0x0, symName: __ZNSt3__122__compressed_pair_elemINS_14default_deleteIN6spdlog7details15periodic_workerEEELi1ELb1EEC2B8de190102ENS_16__value_init_tagE, symObjAddr: 0x293D8, symBinAddr: 0x10002F7DC, symSize: 0x14 }
  - { offset: 0x83F8F, size: 0x8, addend: 0x0, symName: __ZNSt3__110shared_ptrIN6spdlog6loggerEEC2B8de190102Ev, symObjAddr: 0x293EC, symBinAddr: 0x10002F7F0, symSize: 0x1C }
  - { offset: 0x83FB8, size: 0x8, addend: 0x0, symName: __ZNSt3__19allocatorIN6spdlog5sinks21ansicolor_stdout_sinkINS1_7details13console_mutexEEEEC1B8de190102Ev, symObjAddr: 0x294DC, symBinAddr: 0x10002F8E0, symSize: 0x2C }
  - { offset: 0x8402C, size: 0x8, addend: 0x0, symName: __ZNSt3__118__allocation_guardINS_9allocatorINS_20__shared_ptr_emplaceIN6spdlog5sinks21ansicolor_stdout_sinkINS3_7details13console_mutexEEENS1_IS8_EEEEEEEC1B8de190102IS9_EET_m, symObjAddr: 0x29508, symBinAddr: 0x10002F90C, symSize: 0x34 }
  - { offset: 0x8407A, size: 0x8, addend: 0x0, symName: __ZNKSt3__118__allocation_guardINS_9allocatorINS_20__shared_ptr_emplaceIN6spdlog5sinks21ansicolor_stdout_sinkINS3_7details13console_mutexEEENS1_IS8_EEEEEEE5__getB8de190102Ev, symObjAddr: 0x2953C, symBinAddr: 0x10002F940, symSize: 0x18 }
  - { offset: 0x8409F, size: 0x8, addend: 0x0, symName: __ZNSt3__120__shared_ptr_emplaceIN6spdlog5sinks21ansicolor_stdout_sinkINS1_7details13console_mutexEEENS_9allocatorIS6_EEEC1B8de190102IJES8_Li0EEES8_DpOT_, symObjAddr: 0x29554, symBinAddr: 0x10002F958, symSize: 0x2C }
  - { offset: 0x840EC, size: 0x8, addend: 0x0, symName: __ZNSt3__118__allocation_guardINS_9allocatorINS_20__shared_ptr_emplaceIN6spdlog5sinks21ansicolor_stdout_sinkINS3_7details13console_mutexEEENS1_IS8_EEEEEEE13__release_ptrB8de190102Ev, symObjAddr: 0x29580, symBinAddr: 0x10002F984, symSize: 0x24 }
  - { offset: 0x84120, size: 0x8, addend: 0x0, symName: __ZNSt3__110shared_ptrIN6spdlog5sinks21ansicolor_stdout_sinkINS1_7details13console_mutexEEEE27__create_with_control_blockB8de190102IS6_NS_20__shared_ptr_emplaceIS6_NS_9allocatorIS6_EEEEEES7_PT_PT0_, symObjAddr: 0x295A4, symBinAddr: 0x10002F9A8, symSize: 0xA4 }
  - { offset: 0x84175, size: 0x8, addend: 0x0, symName: __ZNSt3__120__shared_ptr_emplaceIN6spdlog5sinks21ansicolor_stdout_sinkINS1_7details13console_mutexEEENS_9allocatorIS6_EEE10__get_elemB8de190102Ev, symObjAddr: 0x29648, symBinAddr: 0x10002FA4C, symSize: 0x28 }
  - { offset: 0x8419A, size: 0x8, addend: 0x0, symName: __ZNSt3__118__allocation_guardINS_9allocatorINS_20__shared_ptr_emplaceIN6spdlog5sinks21ansicolor_stdout_sinkINS3_7details13console_mutexEEENS1_IS8_EEEEEEED1B8de190102Ev, symObjAddr: 0x29670, symBinAddr: 0x10002FA74, symSize: 0x2C }
  - { offset: 0x841C3, size: 0x8, addend: 0x0, symName: __ZNSt3__118__allocation_guardINS_9allocatorINS_20__shared_ptr_emplaceIN6spdlog5sinks21ansicolor_stdout_sinkINS3_7details13console_mutexEEENS1_IS8_EEEEEEEC2B8de190102IS9_EET_m, symObjAddr: 0x2969C, symBinAddr: 0x10002FAA0, symSize: 0x50 }
  - { offset: 0x84211, size: 0x8, addend: 0x0, symName: __ZNSt3__19allocatorINS_20__shared_ptr_emplaceIN6spdlog5sinks21ansicolor_stdout_sinkINS2_7details13console_mutexEEENS0_IS7_EEEEEC1B8de190102IS7_EERKNS0_IT_EE, symObjAddr: 0x296EC, symBinAddr: 0x10002FAF0, symSize: 0x34 }
  - { offset: 0x8424E, size: 0x8, addend: 0x0, symName: __ZNSt3__116allocator_traitsINS_9allocatorINS_20__shared_ptr_emplaceIN6spdlog5sinks21ansicolor_stdout_sinkINS3_7details13console_mutexEEENS1_IS8_EEEEEEE8allocateB8de190102ERSB_m, symObjAddr: 0x29720, symBinAddr: 0x10002FB24, symSize: 0x2C }
  - { offset: 0x84281, size: 0x8, addend: 0x0, symName: __ZNSt3__19allocatorINS_20__shared_ptr_emplaceIN6spdlog5sinks21ansicolor_stdout_sinkINS2_7details13console_mutexEEENS0_IS7_EEEEEC2B8de190102IS7_EERKNS0_IT_EE, symObjAddr: 0x2974C, symBinAddr: 0x10002FB50, symSize: 0x30 }
  - { offset: 0x842BE, size: 0x8, addend: 0x0, symName: __ZNSt3__116__non_trivial_ifILb1ENS_9allocatorINS_20__shared_ptr_emplaceIN6spdlog5sinks21ansicolor_stdout_sinkINS3_7details13console_mutexEEENS1_IS8_EEEEEEEC2B8de190102Ev, symObjAddr: 0x2977C, symBinAddr: 0x10002FB80, symSize: 0x14 }
  - { offset: 0x842E7, size: 0x8, addend: 0x0, symName: __ZNSt3__19allocatorINS_20__shared_ptr_emplaceIN6spdlog5sinks21ansicolor_stdout_sinkINS2_7details13console_mutexEEENS0_IS7_EEEEE8allocateB8de190102Em, symObjAddr: 0x29790, symBinAddr: 0x10002FB94, symSize: 0x58 }
  - { offset: 0x84324, size: 0x8, addend: 0x0, symName: __ZNSt3__116allocator_traitsINS_9allocatorINS_20__shared_ptr_emplaceIN6spdlog5sinks21ansicolor_stdout_sinkINS3_7details13console_mutexEEENS1_IS8_EEEEEEE8max_sizeB8de190102ISB_Li0EEEmRKSB_, symObjAddr: 0x297E8, symBinAddr: 0x10002FBEC, symSize: 0x24 }
  - { offset: 0x84357, size: 0x8, addend: 0x0, symName: __ZNKSt3__19allocatorINS_20__shared_ptr_emplaceIN6spdlog5sinks21ansicolor_stdout_sinkINS2_7details13console_mutexEEENS0_IS7_EEEEE8max_sizeB8de190102Ev, symObjAddr: 0x2980C, symBinAddr: 0x10002FC10, symSize: 0x20 }
  - { offset: 0x8437C, size: 0x8, addend: 0x0, symName: __ZNSt3__120__shared_ptr_emplaceIN6spdlog5sinks21ansicolor_stdout_sinkINS1_7details13console_mutexEEENS_9allocatorIS6_EEEC2B8de190102IJES8_Li0EEES8_DpOT_, symObjAddr: 0x2982C, symBinAddr: 0x10002FC30, symSize: 0xB4 }
  - { offset: 0x843EA, size: 0x8, addend: 0x0, symName: __ZNSt3__119__shared_weak_countC2B8de190102El, symObjAddr: 0x298E0, symBinAddr: 0x10002FCE4, symSize: 0x4C }
  - { offset: 0x84421, size: 0x8, addend: 0x0, symName: __ZNSt3__120__shared_ptr_emplaceIN6spdlog5sinks21ansicolor_stdout_sinkINS1_7details13console_mutexEEENS_9allocatorIS6_EEE8_StorageC1B8de190102EOS8_, symObjAddr: 0x2992C, symBinAddr: 0x10002FD30, symSize: 0x34 }
  - { offset: 0x84459, size: 0x8, addend: 0x0, symName: __ZNSt3__120__shared_ptr_emplaceIN6spdlog5sinks21ansicolor_stdout_sinkINS1_7details13console_mutexEEENS_9allocatorIS6_EEE11__get_allocB8de190102Ev, symObjAddr: 0x29960, symBinAddr: 0x10002FD64, symSize: 0x28 }
  - { offset: 0x84483, size: 0x8, addend: 0x0, symName: __ZNSt3__116allocator_traitsINS_9allocatorIN6spdlog5sinks21ansicolor_stdout_sinkINS2_7details13console_mutexEEEEEE9constructB8de190102IS7_JELi0EEEvRS8_PT_DpOT0_, symObjAddr: 0x29988, symBinAddr: 0x10002FD8C, symSize: 0x2C }
  - { offset: 0x844CB, size: 0x8, addend: 0x0, symName: __ZNSt3__120__shared_ptr_emplaceIN6spdlog5sinks21ansicolor_stdout_sinkINS1_7details13console_mutexEEENS_9allocatorIS6_EEE8_StorageD1B8de190102Ev, symObjAddr: 0x299B4, symBinAddr: 0x10002FDB8, symSize: 0x2C }
  - { offset: 0x844F3, size: 0x8, addend: 0x0, symName: __ZNSt3__120__shared_ptr_emplaceIN6spdlog5sinks21ansicolor_stdout_sinkINS1_7details13console_mutexEEENS_9allocatorIS6_EEED1Ev, symObjAddr: 0x299E0, symBinAddr: 0x10002FDE4, symSize: 0x2C }
  - { offset: 0x8451D, size: 0x8, addend: 0x0, symName: __ZNSt3__120__shared_ptr_emplaceIN6spdlog5sinks21ansicolor_stdout_sinkINS1_7details13console_mutexEEENS_9allocatorIS6_EEED0Ev, symObjAddr: 0x29A0C, symBinAddr: 0x10002FE10, symSize: 0x30 }
  - { offset: 0x84548, size: 0x8, addend: 0x0, symName: __ZNSt3__120__shared_ptr_emplaceIN6spdlog5sinks21ansicolor_stdout_sinkINS1_7details13console_mutexEEENS_9allocatorIS6_EEE16__on_zero_sharedEv, symObjAddr: 0x29A3C, symBinAddr: 0x10002FE40, symSize: 0x24 }
  - { offset: 0x8456D, size: 0x8, addend: 0x0, symName: __ZNSt3__120__shared_ptr_emplaceIN6spdlog5sinks21ansicolor_stdout_sinkINS1_7details13console_mutexEEENS_9allocatorIS6_EEE21__on_zero_shared_weakEv, symObjAddr: 0x29A60, symBinAddr: 0x10002FE64, symSize: 0x5C }
  - { offset: 0x845AD, size: 0x8, addend: 0x0, symName: __ZNSt3__120__shared_ptr_emplaceIN6spdlog5sinks21ansicolor_stdout_sinkINS1_7details13console_mutexEEENS_9allocatorIS6_EEE8_StorageC2B8de190102EOS8_, symObjAddr: 0x29ABC, symBinAddr: 0x10002FEC0, symSize: 0x30 }
  - { offset: 0x845E5, size: 0x8, addend: 0x0, symName: __ZNSt3__120__shared_ptr_emplaceIN6spdlog5sinks21ansicolor_stdout_sinkINS1_7details13console_mutexEEENS_9allocatorIS6_EEE8_Storage11__get_allocB8de190102Ev, symObjAddr: 0x29AEC, symBinAddr: 0x10002FEF0, symSize: 0x3C }
  - { offset: 0x84637, size: 0x8, addend: 0x0, symName: __ZNSt3__117__compressed_pairINS_9allocatorIN6spdlog5sinks21ansicolor_stdout_sinkINS2_7details13console_mutexEEEEES7_E16__get_first_baseB8de190102EPS9_, symObjAddr: 0x29B28, symBinAddr: 0x10002FF2C, symSize: 0x14 }
  - { offset: 0x8465A, size: 0x8, addend: 0x0, symName: __ZNSt3__19allocatorIN6spdlog5sinks21ansicolor_stdout_sinkINS1_7details13console_mutexEEEE9constructB8de190102IS6_JEEEvPT_DpOT0_, symObjAddr: 0x29B3C, symBinAddr: 0x10002FF40, symSize: 0x2C }
  - { offset: 0x8469C, size: 0x8, addend: 0x0, symName: __ZN6spdlog5sinks21ansicolor_stdout_sinkINS_7details13console_mutexEEC1ENS_10color_modeE, symObjAddr: 0x29B68, symBinAddr: 0x10002FF6C, symSize: 0x34 }
  - { offset: 0x846D3, size: 0x8, addend: 0x0, symName: __ZN6spdlog5sinks21ansicolor_stdout_sinkINS_7details13console_mutexEEC2ENS_10color_modeE, symObjAddr: 0x29B9C, symBinAddr: 0x10002FFA0, symSize: 0x50 }
  - { offset: 0x8470A, size: 0x8, addend: 0x0, symName: __ZN6spdlog5sinks14ansicolor_sinkINS_7details13console_mutexEEC2EP7__sFILENS_10color_modeE, symObjAddr: 0x29BEC, symBinAddr: 0x10002FFF0, symSize: 0x610 }
  - { offset: 0x8474E, size: 0x8, addend: 0x0, symName: __ZN6spdlog5sinks21ansicolor_stdout_sinkINS_7details13console_mutexEED1Ev, symObjAddr: 0x2A1FC, symBinAddr: 0x100030600, symSize: 0x2C }
  - { offset: 0x84778, size: 0x8, addend: 0x0, symName: __ZN6spdlog5sinks21ansicolor_stdout_sinkINS_7details13console_mutexEED0Ev, symObjAddr: 0x2A228, symBinAddr: 0x10003062C, symSize: 0x30 }
  - { offset: 0x847A3, size: 0x8, addend: 0x0, symName: __ZN6spdlog5sinks14ansicolor_sinkINS_7details13console_mutexEE3logERKNS2_7log_msgE, symObjAddr: 0x2A258, symBinAddr: 0x10003065C, symSize: 0x234 }
  - { offset: 0x847F8, size: 0x8, addend: 0x0, symName: __ZN6spdlog5sinks14ansicolor_sinkINS_7details13console_mutexEE5flushEv, symObjAddr: 0x2A48C, symBinAddr: 0x100030890, symSize: 0x68 }
  - { offset: 0x8482C, size: 0x8, addend: 0x0, symName: __ZN6spdlog5sinks14ansicolor_sinkINS_7details13console_mutexEE11set_patternERKNSt3__112basic_stringIcNS5_11char_traitsIcEENS5_9allocatorIcEEEE, symObjAddr: 0x2A4F4, symBinAddr: 0x1000308F8, symSize: 0x188 }
  - { offset: 0x8486E, size: 0x8, addend: 0x0, symName: __ZN6spdlog5sinks14ansicolor_sinkINS_7details13console_mutexEE13set_formatterENSt3__110unique_ptrINS_9formatterENS5_14default_deleteIS7_EEEE, symObjAddr: 0x2A67C, symBinAddr: 0x100030A80, symSize: 0x54 }
  - { offset: 0x848B0, size: 0x8, addend: 0x0, symName: __ZN6spdlog5sinks4sinkC2Ev, symObjAddr: 0x2A6D0, symBinAddr: 0x100030AD4, symSize: 0x44 }
  - { offset: 0x848DA, size: 0x8, addend: 0x0, symName: __ZNSt3__15arrayINS_12basic_stringIcNS_11char_traitsIcEENS_9allocatorIcEEEELm7EEC1Ev, symObjAddr: 0x2A854, symBinAddr: 0x100030C58, symSize: 0x2C }
  - { offset: 0x84905, size: 0x8, addend: 0x0, symName: __ZN6spdlog5sinks14ansicolor_sinkINS_7details13console_mutexEE15set_color_mode_ENS_10color_modeE, symObjAddr: 0x2A880, symBinAddr: 0x100030C84, symSize: 0xBC }
  - { offset: 0x84938, size: 0x8, addend: 0x0, symName: __ZN6spdlog5sinks14ansicolor_sinkINS_7details13console_mutexEE10to_string_ERKN3fmt3v1117basic_string_viewIcEE, symObjAddr: 0x2A93C, symBinAddr: 0x100030D40, symSize: 0x48 }
  - { offset: 0x8495B, size: 0x8, addend: 0x0, symName: __ZNSt3__15arrayINS_12basic_stringIcNS_11char_traitsIcEENS_9allocatorIcEEEELm7EE2atB8de190102Em, symObjAddr: 0x2A984, symBinAddr: 0x100030D88, symSize: 0x58 }
  - { offset: 0x8498D, size: 0x8, addend: 0x0, symName: __ZNSt3__15arrayINS_12basic_stringIcNS_11char_traitsIcEENS_9allocatorIcEEEELm7EED1Ev, symObjAddr: 0x2A9DC, symBinAddr: 0x100030DE0, symSize: 0x2C }
  - { offset: 0x849B8, size: 0x8, addend: 0x0, symName: __ZN6spdlog5sinks4sinkD2Ev, symObjAddr: 0x2AA08, symBinAddr: 0x100030E0C, symSize: 0x14 }
  - { offset: 0x849E1, size: 0x8, addend: 0x0, symName: __ZN6spdlog5sinks14ansicolor_sinkINS_7details13console_mutexEED1Ev, symObjAddr: 0x2AA1C, symBinAddr: 0x100030E20, symSize: 0x2C }
  - { offset: 0x84A0A, size: 0x8, addend: 0x0, symName: __ZN6spdlog5sinks14ansicolor_sinkINS_7details13console_mutexEED0Ev, symObjAddr: 0x2AA48, symBinAddr: 0x100030E4C, symSize: 0x30 }
  - { offset: 0x84A33, size: 0x8, addend: 0x0, symName: __ZNSt3__16atomicIiEC1B8de190102Ei, symObjAddr: 0x2AA78, symBinAddr: 0x100030E7C, symSize: 0x34 }
  - { offset: 0x84A6A, size: 0x8, addend: 0x0, symName: __ZN6spdlog5sinks4sinkD1Ev, symObjAddr: 0x2AAAC, symBinAddr: 0x100030EB0, symSize: 0x14 }
  - { offset: 0x84A93, size: 0x8, addend: 0x0, symName: __ZN6spdlog5sinks4sinkD0Ev, symObjAddr: 0x2AAC0, symBinAddr: 0x100030EC4, symSize: 0xC }
  - { offset: 0x84ABC, size: 0x8, addend: 0x0, symName: __ZNSt3__16atomicIiEC2B8de190102Ei, symObjAddr: 0x2AACC, symBinAddr: 0x100030ED0, symSize: 0x34 }
  - { offset: 0x84AF3, size: 0x8, addend: 0x0, symName: __ZNSt3__113__atomic_baseIiLb1EEC2B8de190102Ei, symObjAddr: 0x2AB00, symBinAddr: 0x100030F04, symSize: 0x34 }
  - { offset: 0x84B2A, size: 0x8, addend: 0x0, symName: __ZNSt3__113__atomic_baseIiLb0EEC2B8de190102Ei, symObjAddr: 0x2AB34, symBinAddr: 0x100030F38, symSize: 0x34 }
  - { offset: 0x84B61, size: 0x8, addend: 0x0, symName: __ZNSt3__117__cxx_atomic_implIiNS_22__cxx_atomic_base_implIiEEEC1B8de190102Ei, symObjAddr: 0x2AB68, symBinAddr: 0x100030F6C, symSize: 0x34 }
  - { offset: 0x84B99, size: 0x8, addend: 0x0, symName: __ZNSt3__117__cxx_atomic_implIiNS_22__cxx_atomic_base_implIiEEEC2B8de190102Ei, symObjAddr: 0x2AB9C, symBinAddr: 0x100030FA0, symSize: 0x34 }
  - { offset: 0x84BD1, size: 0x8, addend: 0x0, symName: __ZNSt3__122__cxx_atomic_base_implIiEC2Ei, symObjAddr: 0x2ABD0, symBinAddr: 0x100030FD4, symSize: 0x20 }
  - { offset: 0x84C08, size: 0x8, addend: 0x0, symName: __ZNSt3__15arrayINS_12basic_stringIcNS_11char_traitsIcEENS_9allocatorIcEEEELm7EEC2Ev, symObjAddr: 0x2ABF0, symBinAddr: 0x100030FF4, symSize: 0x60 }
  - { offset: 0x84C33, size: 0x8, addend: 0x0, symName: __ZNKSt3__15arrayIPKcLm16EE5beginB8de190102Ev, symObjAddr: 0x2AE78, symBinAddr: 0x10003127C, symSize: 0x24 }
  - { offset: 0x84C58, size: 0x8, addend: 0x0, symName: __ZNKSt3__15arrayIPKcLm16EE3endB8de190102Ev, symObjAddr: 0x2AE9C, symBinAddr: 0x1000312A0, symSize: 0x28 }
  - { offset: 0x84C87, size: 0x8, addend: 0x0, symName: __ZZZN6spdlog7details2os17is_color_terminalEvENKUlvE_clEvENKUlPKcE_clES4_, symObjAddr: 0x2AEC4, symBinAddr: 0x1000312C8, symSize: 0x3C }
  - { offset: 0x84CBE, size: 0x8, addend: 0x0, symName: __Z6strstrB8de190102Ua9enable_ifIXLb1EEEPKcS0_, symObjAddr: 0x2AF00, symBinAddr: 0x100031304, symSize: 0x2C }
  - { offset: 0x84CF9, size: 0x8, addend: 0x0, symName: __ZNKSt3__15arrayIPKcLm16EE4dataB8de190102Ev, symObjAddr: 0x2AF2C, symBinAddr: 0x100031330, symSize: 0x14 }
  - { offset: 0x84D1E, size: 0x8, addend: 0x0, symName: __ZNSt3__112basic_stringIcNS_11char_traitsIcEENS_9allocatorIcEEEC1B8de190102EPKcm, symObjAddr: 0x2AF40, symBinAddr: 0x100031344, symSize: 0x3C }
  - { offset: 0x84D65, size: 0x8, addend: 0x0, symName: __ZNSt3__112basic_stringIcNS_11char_traitsIcEENS_9allocatorIcEEEC2B8de190102EPKcm, symObjAddr: 0x2AF7C, symBinAddr: 0x100031380, symSize: 0x8C }
  - { offset: 0x84DAC, size: 0x8, addend: 0x0, symName: __ZNSt12out_of_rangeC1B8de190102EPKc, symObjAddr: 0x2B06C, symBinAddr: 0x100031470, symSize: 0x34 }
  - { offset: 0x84DE3, size: 0x8, addend: 0x0, symName: __ZNSt12out_of_rangeC2B8de190102EPKc, symObjAddr: 0x2B0A0, symBinAddr: 0x1000314A4, symSize: 0x44 }
  - { offset: 0x84E19, size: 0x8, addend: 0x0, symName: __ZNSt3__15arrayINS_12basic_stringIcNS_11char_traitsIcEENS_9allocatorIcEEEELm7EED2Ev, symObjAddr: 0x2B0E4, symBinAddr: 0x1000314E8, symSize: 0x60 }
  - { offset: 0x84E44, size: 0x8, addend: 0x0, symName: __ZN6spdlog5sinks14ansicolor_sinkINS_7details13console_mutexEED2Ev, symObjAddr: 0x2B144, symBinAddr: 0x100031548, symSize: 0x54 }
  - { offset: 0x84E6C, size: 0x8, addend: 0x0, symName: __ZN6spdlog5sinks21ansicolor_stdout_sinkINS_7details13console_mutexEED2Ev, symObjAddr: 0x2B198, symBinAddr: 0x10003159C, symSize: 0x2C }
  - { offset: 0x84E97, size: 0x8, addend: 0x0, symName: __ZNKSt3__110unique_ptrIN6spdlog9formatterENS_14default_deleteIS2_EEEptB8de190102Ev, symObjAddr: 0x2B1F8, symBinAddr: 0x1000315C8, symSize: 0x28 }
  - { offset: 0x84EBC, size: 0x8, addend: 0x0, symName: __ZNK6spdlog5sinks14ansicolor_sinkINS_7details13console_mutexEE12print_range_ERKN3fmt3v1119basic_memory_bufferIcLm250ENS6_6detail9allocatorIcEEEEmm, symObjAddr: 0x2B220, symBinAddr: 0x1000315F0, symSize: 0x58 }
  - { offset: 0x84F0B, size: 0x8, addend: 0x0, symName: __ZNK6spdlog5sinks14ansicolor_sinkINS_7details13console_mutexEE12print_ccode_ERKN3fmt3v1117basic_string_viewIcEE, symObjAddr: 0x2B278, symBinAddr: 0x100031648, symSize: 0x50 }
  - { offset: 0x84F3E, size: 0x8, addend: 0x0, symName: __ZNKSt3__117__compressed_pairIPN6spdlog9formatterENS_14default_deleteIS2_EEE5firstB8de190102Ev, symObjAddr: 0x2B330, symBinAddr: 0x100031698, symSize: 0x24 }
  - { offset: 0x84F63, size: 0x8, addend: 0x0, symName: __ZNKSt3__122__compressed_pair_elemIPN6spdlog9formatterELi0ELb0EE5__getB8de190102Ev, symObjAddr: 0x2B354, symBinAddr: 0x1000316BC, symSize: 0x14 }
  - { offset: 0x84F88, size: 0x8, addend: 0x0, symName: __ZNK3fmt3v116detail6bufferIcE4dataEv, symObjAddr: 0x2B3AC, symBinAddr: 0x100031714, symSize: 0x18 }
  - { offset: 0x84FAD, size: 0x8, addend: 0x0, symName: __ZNSt3__110unique_ptrIN6spdlog9formatterENS_14default_deleteIS2_EEEaSB8de190102EOS5_, symObjAddr: 0x2B3F4, symBinAddr: 0x10003172C, symSize: 0x50 }
  - { offset: 0x84FE0, size: 0x8, addend: 0x0, symName: __ZNSt3__110unique_ptrIN6spdlog9formatterENS_14default_deleteIS2_EEE5resetB8de190102EPS2_, symObjAddr: 0x2B444, symBinAddr: 0x10003177C, symSize: 0x70 }
  - { offset: 0x85023, size: 0x8, addend: 0x0, symName: __ZNSt3__110unique_ptrIN6spdlog9formatterENS_14default_deleteIS2_EEE7releaseB8de190102Ev, symObjAddr: 0x2B4B4, symBinAddr: 0x1000317EC, symSize: 0x44 }
  - { offset: 0x85057, size: 0x8, addend: 0x0, symName: __ZNSt3__110unique_ptrIN6spdlog9formatterENS_14default_deleteIS2_EEE11get_deleterB8de190102Ev, symObjAddr: 0x2B4F8, symBinAddr: 0x100031830, symSize: 0x24 }
  - { offset: 0x8507C, size: 0x8, addend: 0x0, symName: __ZNSt3__117__compressed_pairIPN6spdlog9formatterENS_14default_deleteIS2_EEE6secondB8de190102Ev, symObjAddr: 0x2B51C, symBinAddr: 0x100031854, symSize: 0x24 }
  - { offset: 0x850A1, size: 0x8, addend: 0x0, symName: __ZNSt3__117__compressed_pairIPN6spdlog9formatterENS_14default_deleteIS2_EEE5firstB8de190102Ev, symObjAddr: 0x2B540, symBinAddr: 0x100031878, symSize: 0x24 }
  - { offset: 0x850C6, size: 0x8, addend: 0x0, symName: __ZNKSt3__114default_deleteIN6spdlog9formatterEEclB8de190102EPS2_, symObjAddr: 0x2B564, symBinAddr: 0x10003189C, symSize: 0x44 }
  - { offset: 0x850F9, size: 0x8, addend: 0x0, symName: __ZNSt3__122__compressed_pair_elemIPN6spdlog9formatterELi0ELb0EE5__getB8de190102Ev, symObjAddr: 0x2B5A8, symBinAddr: 0x1000318E0, symSize: 0x14 }
  - { offset: 0x8511E, size: 0x8, addend: 0x0, symName: __ZNSt3__122__compressed_pair_elemINS_14default_deleteIN6spdlog9formatterEEELi1ELb1EE5__getB8de190102Ev, symObjAddr: 0x2B5BC, symBinAddr: 0x1000318F4, symSize: 0x14 }
  - { offset: 0x85143, size: 0x8, addend: 0x0, symName: __ZNSt3__120__shared_ptr_emplaceIN6spdlog5sinks21ansicolor_stdout_sinkINS1_7details13console_mutexEEENS_9allocatorIS6_EEE8_StorageD2B8de190102Ev, symObjAddr: 0x2B5D0, symBinAddr: 0x100031908, symSize: 0x2C }
  - { offset: 0x8516B, size: 0x8, addend: 0x0, symName: __ZNSt3__120__shared_ptr_emplaceIN6spdlog5sinks21ansicolor_stdout_sinkINS1_7details13console_mutexEEENS_9allocatorIS6_EEED2Ev, symObjAddr: 0x2B5FC, symBinAddr: 0x100031934, symSize: 0x48 }
  - { offset: 0x85196, size: 0x8, addend: 0x0, symName: __ZNSt3__120__shared_ptr_emplaceIN6spdlog5sinks21ansicolor_stdout_sinkINS1_7details13console_mutexEEENS_9allocatorIS6_EEE21__on_zero_shared_implB8de190102IS8_Li0EEEvv, symObjAddr: 0x2B644, symBinAddr: 0x10003197C, symSize: 0x44 }
  - { offset: 0x851E5, size: 0x8, addend: 0x0, symName: __ZNSt3__116allocator_traitsINS_9allocatorIN6spdlog5sinks21ansicolor_stdout_sinkINS2_7details13console_mutexEEEEEE7destroyB8de190102IS7_Li0EEEvRS8_PT_, symObjAddr: 0x2B688, symBinAddr: 0x1000319C0, symSize: 0x2C }
  - { offset: 0x85227, size: 0x8, addend: 0x0, symName: __ZNSt3__19allocatorIN6spdlog5sinks21ansicolor_stdout_sinkINS1_7details13console_mutexEEEE7destroyB8de190102EPS6_, symObjAddr: 0x2B6B4, symBinAddr: 0x1000319EC, symSize: 0x30 }
  - { offset: 0x8525A, size: 0x8, addend: 0x0, symName: __ZNSt3__116allocator_traitsINS_9allocatorINS_20__shared_ptr_emplaceIN6spdlog5sinks21ansicolor_stdout_sinkINS3_7details13console_mutexEEENS1_IS8_EEEEEEE10deallocateB8de190102ERSB_PSA_m, symObjAddr: 0x2B6E4, symBinAddr: 0x100031A1C, symSize: 0x34 }
  - { offset: 0x8529C, size: 0x8, addend: 0x0, symName: __ZNSt3__114pointer_traitsIPNS_20__shared_ptr_emplaceIN6spdlog5sinks21ansicolor_stdout_sinkINS2_7details13console_mutexEEENS_9allocatorIS7_EEEEE10pointer_toB8de190102ERSA_, symObjAddr: 0x2B718, symBinAddr: 0x100031A50, symSize: 0x14 }
  - { offset: 0x852BF, size: 0x8, addend: 0x0, symName: __ZNSt3__19allocatorINS_20__shared_ptr_emplaceIN6spdlog5sinks21ansicolor_stdout_sinkINS2_7details13console_mutexEEENS0_IS7_EEEEE10deallocateB8de190102EPS9_m, symObjAddr: 0x2B72C, symBinAddr: 0x100031A64, symSize: 0x44 }
  - { offset: 0x85300, size: 0x8, addend: 0x0, symName: __ZNSt3__110shared_ptrIN6spdlog5sinks21ansicolor_stdout_sinkINS1_7details13console_mutexEEEEC1B8de190102Ev, symObjAddr: 0x2B770, symBinAddr: 0x100031AA8, symSize: 0x2C }
  - { offset: 0x85329, size: 0x8, addend: 0x0, symName: __ZNSt3__110shared_ptrIN6spdlog5sinks21ansicolor_stdout_sinkINS1_7details13console_mutexEEEE18__enable_weak_thisB8de190102Ez, symObjAddr: 0x2B79C, symBinAddr: 0x100031AD4, symSize: 0x10 }
  - { offset: 0x8534F, size: 0x8, addend: 0x0, symName: __ZNSt3__110shared_ptrIN6spdlog5sinks21ansicolor_stdout_sinkINS1_7details13console_mutexEEEEC2B8de190102Ev, symObjAddr: 0x2B7AC, symBinAddr: 0x100031AE4, symSize: 0x1C }
  - { offset: 0x85378, size: 0x8, addend: 0x0, symName: __ZNSt3__120__shared_ptr_emplaceIN6spdlog5sinks21ansicolor_stdout_sinkINS1_7details13console_mutexEEENS_9allocatorIS6_EEE8_Storage10__get_elemB8de190102Ev, symObjAddr: 0x2B7C8, symBinAddr: 0x100031B00, symSize: 0x3C }
  - { offset: 0x853CA, size: 0x8, addend: 0x0, symName: __ZNSt3__117__compressed_pairINS_9allocatorIN6spdlog5sinks21ansicolor_stdout_sinkINS2_7details13console_mutexEEEEES7_E17__get_second_baseB8de190102EPS9_, symObjAddr: 0x2B804, symBinAddr: 0x100031B3C, symSize: 0x14 }
  - { offset: 0x853ED, size: 0x8, addend: 0x0, symName: __ZNSt3__118__allocation_guardINS_9allocatorINS_20__shared_ptr_emplaceIN6spdlog5sinks21ansicolor_stdout_sinkINS3_7details13console_mutexEEENS1_IS8_EEEEEEED2B8de190102Ev, symObjAddr: 0x2B818, symBinAddr: 0x100031B50, symSize: 0x2C }
  - { offset: 0x85416, size: 0x8, addend: 0x0, symName: __ZNSt3__118__allocation_guardINS_9allocatorINS_20__shared_ptr_emplaceIN6spdlog5sinks21ansicolor_stdout_sinkINS3_7details13console_mutexEEENS1_IS8_EEEEEEE9__destroyB8de190102Ev, symObjAddr: 0x2B844, symBinAddr: 0x100031B7C, symSize: 0x44 }
  - { offset: 0x8543B, size: 0x8, addend: 0x0, symName: __ZNSt3__19allocatorIN6spdlog5sinks21ansicolor_stdout_sinkINS1_7details13console_mutexEEEEC2B8de190102Ev, symObjAddr: 0x2B888, symBinAddr: 0x100031BC0, symSize: 0x2C }
  - { offset: 0x85464, size: 0x8, addend: 0x0, symName: __ZNSt3__116__non_trivial_ifILb1ENS_9allocatorIN6spdlog5sinks21ansicolor_stdout_sinkINS2_7details13console_mutexEEEEEEC2B8de190102Ev, symObjAddr: 0x2B8B4, symBinAddr: 0x100031BEC, symSize: 0x14 }
  - { offset: 0x8548D, size: 0x8, addend: 0x0, symName: __ZNSt3__19allocatorIN6spdlog6loggerEEC1B8de190102Ev, symObjAddr: 0x2B9AC, symBinAddr: 0x100031CE4, symSize: 0x2C }
  - { offset: 0x85501, size: 0x8, addend: 0x0, symName: __ZNSt3__118__allocation_guardINS_9allocatorINS_20__shared_ptr_emplaceIN6spdlog6loggerENS1_IS4_EEEEEEEC1B8de190102IS5_EET_m, symObjAddr: 0x2B9D8, symBinAddr: 0x100031D10, symSize: 0x34 }
  - { offset: 0x8554F, size: 0x8, addend: 0x0, symName: __ZNKSt3__118__allocation_guardINS_9allocatorINS_20__shared_ptr_emplaceIN6spdlog6loggerENS1_IS4_EEEEEEE5__getB8de190102Ev, symObjAddr: 0x2BA0C, symBinAddr: 0x100031D44, symSize: 0x18 }
  - { offset: 0x85574, size: 0x8, addend: 0x0, symName: __ZNSt3__120__shared_ptr_emplaceIN6spdlog6loggerENS_9allocatorIS2_EEEC1B8de190102IJRPKcNS_10shared_ptrINS1_5sinks21ansicolor_stdout_sinkINS1_7details13console_mutexEEEEEES4_Li0EEES4_DpOT_, symObjAddr: 0x2BA24, symBinAddr: 0x100031D5C, symSize: 0x3C }
  - { offset: 0x855EC, size: 0x8, addend: 0x0, symName: __ZNSt3__118__allocation_guardINS_9allocatorINS_20__shared_ptr_emplaceIN6spdlog6loggerENS1_IS4_EEEEEEE13__release_ptrB8de190102Ev, symObjAddr: 0x2BA60, symBinAddr: 0x100031D98, symSize: 0x24 }
  - { offset: 0x85620, size: 0x8, addend: 0x0, symName: __ZNSt3__110shared_ptrIN6spdlog6loggerEE27__create_with_control_blockB8de190102IS2_NS_20__shared_ptr_emplaceIS2_NS_9allocatorIS2_EEEEEES3_PT_PT0_, symObjAddr: 0x2BA84, symBinAddr: 0x100031DBC, symSize: 0xA4 }
  - { offset: 0x85675, size: 0x8, addend: 0x0, symName: __ZNSt3__120__shared_ptr_emplaceIN6spdlog6loggerENS_9allocatorIS2_EEE10__get_elemB8de190102Ev, symObjAddr: 0x2BB28, symBinAddr: 0x100031E60, symSize: 0x28 }
  - { offset: 0x8569A, size: 0x8, addend: 0x0, symName: __ZNSt3__118__allocation_guardINS_9allocatorINS_20__shared_ptr_emplaceIN6spdlog6loggerENS1_IS4_EEEEEEED1B8de190102Ev, symObjAddr: 0x2BB50, symBinAddr: 0x100031E88, symSize: 0x2C }
  - { offset: 0x856C3, size: 0x8, addend: 0x0, symName: __ZNSt3__118__allocation_guardINS_9allocatorINS_20__shared_ptr_emplaceIN6spdlog6loggerENS1_IS4_EEEEEEEC2B8de190102IS5_EET_m, symObjAddr: 0x2BB7C, symBinAddr: 0x100031EB4, symSize: 0x50 }
  - { offset: 0x85711, size: 0x8, addend: 0x0, symName: __ZNSt3__19allocatorINS_20__shared_ptr_emplaceIN6spdlog6loggerENS0_IS3_EEEEEC1B8de190102IS3_EERKNS0_IT_EE, symObjAddr: 0x2BBCC, symBinAddr: 0x100031F04, symSize: 0x34 }
  - { offset: 0x8574E, size: 0x8, addend: 0x0, symName: __ZNSt3__116allocator_traitsINS_9allocatorINS_20__shared_ptr_emplaceIN6spdlog6loggerENS1_IS4_EEEEEEE8allocateB8de190102ERS7_m, symObjAddr: 0x2BC00, symBinAddr: 0x100031F38, symSize: 0x2C }
  - { offset: 0x85781, size: 0x8, addend: 0x0, symName: __ZNSt3__19allocatorINS_20__shared_ptr_emplaceIN6spdlog6loggerENS0_IS3_EEEEEC2B8de190102IS3_EERKNS0_IT_EE, symObjAddr: 0x2BC2C, symBinAddr: 0x100031F64, symSize: 0x30 }
  - { offset: 0x857BE, size: 0x8, addend: 0x0, symName: __ZNSt3__116__non_trivial_ifILb1ENS_9allocatorINS_20__shared_ptr_emplaceIN6spdlog6loggerENS1_IS4_EEEEEEEC2B8de190102Ev, symObjAddr: 0x2BC5C, symBinAddr: 0x100031F94, symSize: 0x14 }
  - { offset: 0x857E7, size: 0x8, addend: 0x0, symName: __ZNSt3__19allocatorINS_20__shared_ptr_emplaceIN6spdlog6loggerENS0_IS3_EEEEE8allocateB8de190102Em, symObjAddr: 0x2BC70, symBinAddr: 0x100031FA8, symSize: 0x58 }
  - { offset: 0x85824, size: 0x8, addend: 0x0, symName: __ZNSt3__116allocator_traitsINS_9allocatorINS_20__shared_ptr_emplaceIN6spdlog6loggerENS1_IS4_EEEEEEE8max_sizeB8de190102IS7_Li0EEEmRKS7_, symObjAddr: 0x2BCC8, symBinAddr: 0x100032000, symSize: 0x24 }
  - { offset: 0x85857, size: 0x8, addend: 0x0, symName: __ZNKSt3__19allocatorINS_20__shared_ptr_emplaceIN6spdlog6loggerENS0_IS3_EEEEE8max_sizeB8de190102Ev, symObjAddr: 0x2BCEC, symBinAddr: 0x100032024, symSize: 0x20 }
  - { offset: 0x8587C, size: 0x8, addend: 0x0, symName: __ZNSt3__120__shared_ptr_emplaceIN6spdlog6loggerENS_9allocatorIS2_EEEC2B8de190102IJRPKcNS_10shared_ptrINS1_5sinks21ansicolor_stdout_sinkINS1_7details13console_mutexEEEEEES4_Li0EEES4_DpOT_, symObjAddr: 0x2BD0C, symBinAddr: 0x100032044, symSize: 0xC4 }
  - { offset: 0x85915, size: 0x8, addend: 0x0, symName: __ZNSt3__120__shared_ptr_emplaceIN6spdlog6loggerENS_9allocatorIS2_EEE8_StorageC1B8de190102EOS4_, symObjAddr: 0x2BDD0, symBinAddr: 0x100032108, symSize: 0x34 }
  - { offset: 0x8594D, size: 0x8, addend: 0x0, symName: __ZNSt3__120__shared_ptr_emplaceIN6spdlog6loggerENS_9allocatorIS2_EEE11__get_allocB8de190102Ev, symObjAddr: 0x2BE04, symBinAddr: 0x10003213C, symSize: 0x28 }
  - { offset: 0x85977, size: 0x8, addend: 0x0, symName: __ZNSt3__116allocator_traitsINS_9allocatorIN6spdlog6loggerEEEE9constructB8de190102IS3_JRPKcNS_10shared_ptrINS2_5sinks21ansicolor_stdout_sinkINS2_7details13console_mutexEEEEEELi0EEEvRS4_PT_DpOT0_, symObjAddr: 0x2BE2C, symBinAddr: 0x100032164, symSize: 0x3C }
  - { offset: 0x859EA, size: 0x8, addend: 0x0, symName: __ZNSt3__120__shared_ptr_emplaceIN6spdlog6loggerENS_9allocatorIS2_EEE8_StorageD1B8de190102Ev, symObjAddr: 0x2BE68, symBinAddr: 0x1000321A0, symSize: 0x2C }
  - { offset: 0x85A12, size: 0x8, addend: 0x0, symName: __ZNSt3__120__shared_ptr_emplaceIN6spdlog6loggerENS_9allocatorIS2_EEED1Ev, symObjAddr: 0x2BE94, symBinAddr: 0x1000321CC, symSize: 0x2C }
  - { offset: 0x85A3C, size: 0x8, addend: 0x0, symName: __ZNSt3__120__shared_ptr_emplaceIN6spdlog6loggerENS_9allocatorIS2_EEED0Ev, symObjAddr: 0x2BEC0, symBinAddr: 0x1000321F8, symSize: 0x30 }
  - { offset: 0x85A67, size: 0x8, addend: 0x0, symName: __ZNSt3__120__shared_ptr_emplaceIN6spdlog6loggerENS_9allocatorIS2_EEE16__on_zero_sharedEv, symObjAddr: 0x2BEF0, symBinAddr: 0x100032228, symSize: 0x24 }
  - { offset: 0x85A8C, size: 0x8, addend: 0x0, symName: __ZNSt3__120__shared_ptr_emplaceIN6spdlog6loggerENS_9allocatorIS2_EEE21__on_zero_shared_weakEv, symObjAddr: 0x2BF14, symBinAddr: 0x10003224C, symSize: 0x5C }
  - { offset: 0x85ACC, size: 0x8, addend: 0x0, symName: __ZNSt3__120__shared_ptr_emplaceIN6spdlog6loggerENS_9allocatorIS2_EEE8_StorageC2B8de190102EOS4_, symObjAddr: 0x2BF70, symBinAddr: 0x1000322A8, symSize: 0x30 }
  - { offset: 0x85B04, size: 0x8, addend: 0x0, symName: __ZNSt3__120__shared_ptr_emplaceIN6spdlog6loggerENS_9allocatorIS2_EEE8_Storage11__get_allocB8de190102Ev, symObjAddr: 0x2BFA0, symBinAddr: 0x1000322D8, symSize: 0x3C }
  - { offset: 0x85B56, size: 0x8, addend: 0x0, symName: __ZNSt3__117__compressed_pairINS_9allocatorIN6spdlog6loggerEEES3_E16__get_first_baseB8de190102EPS5_, symObjAddr: 0x2BFDC, symBinAddr: 0x100032314, symSize: 0x14 }
  - { offset: 0x85B79, size: 0x8, addend: 0x0, symName: __ZNSt3__19allocatorIN6spdlog6loggerEE9constructB8de190102IS2_JRPKcNS_10shared_ptrINS1_5sinks21ansicolor_stdout_sinkINS1_7details13console_mutexEEEEEEEEvPT_DpOT0_, symObjAddr: 0x2BFF0, symBinAddr: 0x100032328, symSize: 0xA0 }
  - { offset: 0x85BE4, size: 0x8, addend: 0x0, symName: __ZNSt3__110shared_ptrIN6spdlog5sinks4sinkEEC1B8de190102INS2_21ansicolor_stdout_sinkINS1_7details13console_mutexEEELi0EEEONS0_IT_EE, symObjAddr: 0x2C090, symBinAddr: 0x1000323C8, symSize: 0x34 }
  - { offset: 0x85C2B, size: 0x8, addend: 0x0, symName: __ZN6spdlog6loggerC1ENSt3__112basic_stringIcNS1_11char_traitsIcEENS1_9allocatorIcEEEENS1_10shared_ptrINS_5sinks4sinkEEE, symObjAddr: 0x2C0C4, symBinAddr: 0x1000323FC, symSize: 0x150 }
  - { offset: 0x85C72, size: 0x8, addend: 0x0, symName: __ZNSt3__110shared_ptrIN6spdlog5sinks4sinkEED1B8de190102Ev, symObjAddr: 0x2C214, symBinAddr: 0x10003254C, symSize: 0x2C }
  - { offset: 0x85C9B, size: 0x8, addend: 0x0, symName: __ZNSt3__110shared_ptrIN6spdlog5sinks4sinkEEC2B8de190102INS2_21ansicolor_stdout_sinkINS1_7details13console_mutexEEELi0EEEONS0_IT_EE, symObjAddr: 0x2C240, symBinAddr: 0x100032578, symSize: 0x40 }
  - { offset: 0x85CE2, size: 0x8, addend: 0x0, symName: __ZNSt3__110shared_ptrIN6spdlog5sinks4sinkEEC1B8de190102EOS4_, symObjAddr: 0x2C280, symBinAddr: 0x1000325B8, symSize: 0x34 }
  - { offset: 0x85D1A, size: 0x8, addend: 0x0, symName: __ZN6spdlog6loggerC1ENSt3__112basic_stringIcNS1_11char_traitsIcEENS1_9allocatorIcEEEESt16initializer_listINS1_10shared_ptrINS_5sinks4sinkEEEE, symObjAddr: 0x2C2B4, symBinAddr: 0x1000325EC, symSize: 0xA4 }
  - { offset: 0x85D60, size: 0x8, addend: 0x0, symName: __ZNSt3__110shared_ptrIN6spdlog5sinks4sinkEEC2B8de190102EOS4_, symObjAddr: 0x2C358, symBinAddr: 0x100032690, symSize: 0x40 }
  - { offset: 0x85D98, size: 0x8, addend: 0x0, symName: __ZNKSt16initializer_listINSt3__110shared_ptrIN6spdlog5sinks4sinkEEEE5beginB8de190102Ev, symObjAddr: 0x2C398, symBinAddr: 0x1000326D0, symSize: 0x18 }
  - { offset: 0x85DBD, size: 0x8, addend: 0x0, symName: __ZNKSt16initializer_listINSt3__110shared_ptrIN6spdlog5sinks4sinkEEEE3endB8de190102Ev, symObjAddr: 0x2C3B0, symBinAddr: 0x1000326E8, symSize: 0x20 }
  - { offset: 0x85DE2, size: 0x8, addend: 0x0, symName: __ZN6spdlog6loggerC1IPKNSt3__110shared_ptrINS_5sinks4sinkEEEEENS2_12basic_stringIcNS2_11char_traitsIcEENS2_9allocatorIcEEEET_SF_, symObjAddr: 0x2C3D0, symBinAddr: 0x100032708, symSize: 0x44 }
  - { offset: 0x85E3F, size: 0x8, addend: 0x0, symName: __ZN6spdlog6loggerC2IPKNSt3__110shared_ptrINS_5sinks4sinkEEEEENS2_12basic_stringIcNS2_11char_traitsIcEENS2_9allocatorIcEEEET_SF_, symObjAddr: 0x2C414, symBinAddr: 0x10003274C, symSize: 0xC8 }
  - { offset: 0x85E9C, size: 0x8, addend: 0x0, symName: __ZNSt3__16vectorINS_10shared_ptrIN6spdlog5sinks4sinkEEENS_9allocatorIS5_EEEC1IPKS5_Li0EEET_SC_, symObjAddr: 0x2C4DC, symBinAddr: 0x100032814, symSize: 0x3C }
  - { offset: 0x85EF2, size: 0x8, addend: 0x0, symName: __ZNSt3__18functionIFvRKNS_12basic_stringIcNS_11char_traitsIcEENS_9allocatorIcEEEEEEC1B8de190102EDn, symObjAddr: 0x2C518, symBinAddr: 0x100032850, symSize: 0x34 }
  - { offset: 0x85F27, size: 0x8, addend: 0x0, symName: __ZN6spdlog7details10backtracerC1Ev, symObjAddr: 0x2C54C, symBinAddr: 0x100032884, symSize: 0x2C }
  - { offset: 0x85F50, size: 0x8, addend: 0x0, symName: __ZN6spdlog6loggerD1Ev, symObjAddr: 0x2C578, symBinAddr: 0x1000328B0, symSize: 0x2C }
  - { offset: 0x85F79, size: 0x8, addend: 0x0, symName: __ZN6spdlog6loggerD0Ev, symObjAddr: 0x2C5A4, symBinAddr: 0x1000328DC, symSize: 0x30 }
  - { offset: 0x85FA2, size: 0x8, addend: 0x0, symName: __ZN6spdlog6logger5cloneENSt3__112basic_stringIcNS1_11char_traitsIcEENS1_9allocatorIcEEEE, symObjAddr: 0x2C5D4, symBinAddr: 0x10003290C, symSize: 0x8C }
  - { offset: 0x8618D, size: 0x8, addend: 0x0, symName: __ZN6spdlog6logger6flush_Ev, symObjAddr: 0x2CA7C, symBinAddr: 0x100032DB4, symSize: 0x1B4 }
  - { offset: 0x8620B, size: 0x8, addend: 0x0, symName: __ZNSt3__16vectorINS_10shared_ptrIN6spdlog5sinks4sinkEEENS_9allocatorIS5_EEEC2IPKS5_Li0EEET_SC_, symObjAddr: 0x2CC30, symBinAddr: 0x100032F68, symSize: 0x74 }
  - { offset: 0x8627F, size: 0x8, addend: 0x0, symName: __ZNSt3__117__compressed_pairIPNS_10shared_ptrIN6spdlog5sinks4sinkEEENS_9allocatorIS5_EEEC1B8de190102IDnNS_18__default_init_tagEEEOT_OT0_, symObjAddr: 0x2CCA4, symBinAddr: 0x100032FDC, symSize: 0x3C }
  - { offset: 0x862D6, size: 0x8, addend: 0x0, symName: __ZNSt3__16vectorINS_10shared_ptrIN6spdlog5sinks4sinkEEENS_9allocatorIS5_EEE16__init_with_sizeB8de190102IPKS5_SB_EEvT_T0_m, symObjAddr: 0x2CD0C, symBinAddr: 0x100033044, symSize: 0xB4 }
  - { offset: 0x86349, size: 0x8, addend: 0x0, symName: __ZNSt3__117__compressed_pairIPNS_10shared_ptrIN6spdlog5sinks4sinkEEENS_9allocatorIS5_EEEC2B8de190102IDnNS_18__default_init_tagEEEOT_OT0_, symObjAddr: 0x2CDC0, symBinAddr: 0x1000330F8, symSize: 0x40 }
  - { offset: 0x863A0, size: 0x8, addend: 0x0, symName: __ZNSt3__122__compressed_pair_elemIPNS_10shared_ptrIN6spdlog5sinks4sinkEEELi0ELb0EEC2B8de190102IDnLi0EEEOT_, symObjAddr: 0x2CE00, symBinAddr: 0x100033138, symSize: 0x1C }
  - { offset: 0x863E6, size: 0x8, addend: 0x0, symName: __ZNSt3__122__compressed_pair_elemINS_9allocatorINS_10shared_ptrIN6spdlog5sinks4sinkEEEEELi1ELb1EEC2B8de190102ENS_18__default_init_tagE, symObjAddr: 0x2CE1C, symBinAddr: 0x100033154, symSize: 0x2C }
  - { offset: 0x8641A, size: 0x8, addend: 0x0, symName: __ZNSt3__19allocatorINS_10shared_ptrIN6spdlog5sinks4sinkEEEEC2B8de190102Ev, symObjAddr: 0x2CE48, symBinAddr: 0x100033180, symSize: 0x2C }
  - { offset: 0x86443, size: 0x8, addend: 0x0, symName: __ZNSt3__116__non_trivial_ifILb1ENS_9allocatorINS_10shared_ptrIN6spdlog5sinks4sinkEEEEEEC2B8de190102Ev, symObjAddr: 0x2CE74, symBinAddr: 0x1000331AC, symSize: 0x14 }
  - { offset: 0x8646C, size: 0x8, addend: 0x0, symName: __ZNSt3__16vectorINS_10shared_ptrIN6spdlog5sinks4sinkEEENS_9allocatorIS5_EEE16__destroy_vectorC1B8de190102ERS8_, symObjAddr: 0x2CEF0, symBinAddr: 0x100033228, symSize: 0x34 }
  - { offset: 0x864A4, size: 0x8, addend: 0x0, symName: __ZNSt3__16vectorINS_10shared_ptrIN6spdlog5sinks4sinkEEENS_9allocatorIS5_EEE11__vallocateB8de190102Em, symObjAddr: 0x2CF24, symBinAddr: 0x10003325C, symSize: 0xA8 }
  - { offset: 0x864E7, size: 0x8, addend: 0x0, symName: __ZNSt3__16vectorINS_10shared_ptrIN6spdlog5sinks4sinkEEENS_9allocatorIS5_EEE18__construct_at_endIPKS5_SB_EEvT_T0_m, symObjAddr: 0x2CFCC, symBinAddr: 0x100033304, symSize: 0x8C }
  - { offset: 0x8655A, size: 0x8, addend: 0x0, symName: __ZNSt3__128__exception_guard_exceptionsINS_6vectorINS_10shared_ptrIN6spdlog5sinks4sinkEEENS_9allocatorIS6_EEE16__destroy_vectorEE10__completeB8de190102Ev, symObjAddr: 0x2D058, symBinAddr: 0x100033390, symSize: 0x1C }
  - { offset: 0x8657F, size: 0x8, addend: 0x0, symName: __ZNSt3__128__exception_guard_exceptionsINS_6vectorINS_10shared_ptrIN6spdlog5sinks4sinkEEENS_9allocatorIS6_EEE16__destroy_vectorEED1B8de190102Ev, symObjAddr: 0x2D074, symBinAddr: 0x1000333AC, symSize: 0x2C }
  - { offset: 0x865A8, size: 0x8, addend: 0x0, symName: __ZNSt3__128__exception_guard_exceptionsINS_6vectorINS_10shared_ptrIN6spdlog5sinks4sinkEEENS_9allocatorIS6_EEE16__destroy_vectorEEC1B8de190102ESA_, symObjAddr: 0x2D0A0, symBinAddr: 0x1000333D8, symSize: 0x34 }
  - { offset: 0x865DF, size: 0x8, addend: 0x0, symName: __ZNSt3__128__exception_guard_exceptionsINS_6vectorINS_10shared_ptrIN6spdlog5sinks4sinkEEENS_9allocatorIS6_EEE16__destroy_vectorEEC2B8de190102ESA_, symObjAddr: 0x2D0D4, symBinAddr: 0x10003340C, symSize: 0x24 }
  - { offset: 0x86616, size: 0x8, addend: 0x0, symName: __ZNSt3__16vectorINS_10shared_ptrIN6spdlog5sinks4sinkEEENS_9allocatorIS5_EEE16__destroy_vectorC2B8de190102ERS8_, symObjAddr: 0x2D0F8, symBinAddr: 0x100033430, symSize: 0x20 }
  - { offset: 0x8664E, size: 0x8, addend: 0x0, symName: __ZNKSt3__16vectorINS_10shared_ptrIN6spdlog5sinks4sinkEEENS_9allocatorIS5_EEE8max_sizeEv, symObjAddr: 0x2D118, symBinAddr: 0x100033450, symSize: 0x60 }
  - { offset: 0x86675, size: 0x8, addend: 0x0, symName: __ZNKSt3__16vectorINS_10shared_ptrIN6spdlog5sinks4sinkEEENS_9allocatorIS5_EEE20__throw_length_errorB8de190102Ev, symObjAddr: 0x2D178, symBinAddr: 0x1000334B0, symSize: 0x1C }
  - { offset: 0x8669A, size: 0x8, addend: 0x0, symName: __ZNSt3__16vectorINS_10shared_ptrIN6spdlog5sinks4sinkEEENS_9allocatorIS5_EEE7__allocB8de190102Ev, symObjAddr: 0x2D1D4, symBinAddr: 0x10003350C, symSize: 0x28 }
  - { offset: 0x866BF, size: 0x8, addend: 0x0, symName: __ZNSt3__16vectorINS_10shared_ptrIN6spdlog5sinks4sinkEEENS_9allocatorIS5_EEE9__end_capB8de190102Ev, symObjAddr: 0x2D1FC, symBinAddr: 0x100033534, symSize: 0x28 }
  - { offset: 0x866E4, size: 0x8, addend: 0x0, symName: __ZNKSt3__16vectorINS_10shared_ptrIN6spdlog5sinks4sinkEEENS_9allocatorIS5_EEE14__annotate_newB8de190102Em, symObjAddr: 0x2D224, symBinAddr: 0x10003355C, symSize: 0x14 }
  - { offset: 0x86722, size: 0x8, addend: 0x0, symName: __ZNSt3__116allocator_traitsINS_9allocatorINS_10shared_ptrIN6spdlog5sinks4sinkEEEEEE8max_sizeB8de190102IS7_Li0EEEmRKS7_, symObjAddr: 0x2D238, symBinAddr: 0x100033570, symSize: 0x24 }
  - { offset: 0x86755, size: 0x8, addend: 0x0, symName: __ZNKSt3__16vectorINS_10shared_ptrIN6spdlog5sinks4sinkEEENS_9allocatorIS5_EEE7__allocB8de190102Ev, symObjAddr: 0x2D25C, symBinAddr: 0x100033594, symSize: 0x28 }
  - { offset: 0x8677A, size: 0x8, addend: 0x0, symName: __ZNKSt3__19allocatorINS_10shared_ptrIN6spdlog5sinks4sinkEEEE8max_sizeB8de190102Ev, symObjAddr: 0x2D284, symBinAddr: 0x1000335BC, symSize: 0x14 }
  - { offset: 0x8679F, size: 0x8, addend: 0x0, symName: __ZNKSt3__117__compressed_pairIPNS_10shared_ptrIN6spdlog5sinks4sinkEEENS_9allocatorIS5_EEE6secondB8de190102Ev, symObjAddr: 0x2D298, symBinAddr: 0x1000335D0, symSize: 0x24 }
  - { offset: 0x867C4, size: 0x8, addend: 0x0, symName: __ZNKSt3__122__compressed_pair_elemINS_9allocatorINS_10shared_ptrIN6spdlog5sinks4sinkEEEEELi1ELb1EE5__getB8de190102Ev, symObjAddr: 0x2D2BC, symBinAddr: 0x1000335F4, symSize: 0x14 }
  - { offset: 0x867E9, size: 0x8, addend: 0x0, symName: __ZNSt3__19allocatorINS_10shared_ptrIN6spdlog5sinks4sinkEEEE8allocateB8de190102Em, symObjAddr: 0x2D2D0, symBinAddr: 0x100033608, symSize: 0x54 }
  - { offset: 0x8681C, size: 0x8, addend: 0x0, symName: __ZNSt3__117__compressed_pairIPNS_10shared_ptrIN6spdlog5sinks4sinkEEENS_9allocatorIS5_EEE6secondB8de190102Ev, symObjAddr: 0x2D324, symBinAddr: 0x10003365C, symSize: 0x24 }
  - { offset: 0x86841, size: 0x8, addend: 0x0, symName: __ZNSt3__122__compressed_pair_elemINS_9allocatorINS_10shared_ptrIN6spdlog5sinks4sinkEEEEELi1ELb1EE5__getB8de190102Ev, symObjAddr: 0x2D348, symBinAddr: 0x100033680, symSize: 0x14 }
  - { offset: 0x86866, size: 0x8, addend: 0x0, symName: __ZNSt3__117__compressed_pairIPNS_10shared_ptrIN6spdlog5sinks4sinkEEENS_9allocatorIS5_EEE5firstB8de190102Ev, symObjAddr: 0x2D35C, symBinAddr: 0x100033694, symSize: 0x24 }
  - { offset: 0x8688B, size: 0x8, addend: 0x0, symName: __ZNSt3__122__compressed_pair_elemIPNS_10shared_ptrIN6spdlog5sinks4sinkEEELi0ELb0EE5__getB8de190102Ev, symObjAddr: 0x2D380, symBinAddr: 0x1000336B8, symSize: 0x14 }
  - { offset: 0x868C9, size: 0x8, addend: 0x0, symName: __ZNSt3__16vectorINS_10shared_ptrIN6spdlog5sinks4sinkEEENS_9allocatorIS5_EEE21_ConstructTransactionC1B8de190102ERS8_m, symObjAddr: 0x2D394, symBinAddr: 0x1000336CC, symSize: 0x3C }
  - { offset: 0x86910, size: 0x8, addend: 0x0, symName: __ZNSt3__16vectorINS_10shared_ptrIN6spdlog5sinks4sinkEEENS_9allocatorIS5_EEE21_ConstructTransactionD1B8de190102Ev, symObjAddr: 0x2D450, symBinAddr: 0x100033788, symSize: 0x2C }
  - { offset: 0x86939, size: 0x8, addend: 0x0, symName: __ZNSt3__16vectorINS_10shared_ptrIN6spdlog5sinks4sinkEEENS_9allocatorIS5_EEE21_ConstructTransactionC2B8de190102ERS8_m, symObjAddr: 0x2D47C, symBinAddr: 0x1000337B4, symSize: 0x44 }
  - { offset: 0x8699E, size: 0x8, addend: 0x0, symName: __ZNSt3__14pairIPKNS_10shared_ptrIN6spdlog5sinks4sinkEEES7_EC1B8de190102IS7_S7_Li0EEEOT_OT0_, symObjAddr: 0x2D6CC, symBinAddr: 0x100033A04, symSize: 0x3C }
  - { offset: 0x869FB, size: 0x8, addend: 0x0, symName: __ZNSt3__14pairIPKNS_10shared_ptrIN6spdlog5sinks4sinkEEES7_EC2B8de190102IS7_S7_Li0EEEOT_OT0_, symObjAddr: 0x2D708, symBinAddr: 0x100033A40, symSize: 0x34 }
  - { offset: 0x86A58, size: 0x8, addend: 0x0, symName: __ZNSt3__118__unwrap_iter_implIPKNS_10shared_ptrIN6spdlog5sinks4sinkEEELb1EE8__unwrapB8de190102ES7_, symObjAddr: 0x2D73C, symBinAddr: 0x100033A74, symSize: 0x24 }
  - { offset: 0x86A7B, size: 0x8, addend: 0x0, symName: __ZNSt3__129_AllocatorDestroyRangeReverseINS_9allocatorINS_10shared_ptrIN6spdlog5sinks4sinkEEEEEPS6_EC1B8de190102ERS7_RS8_SB_, symObjAddr: 0x2D7C0, symBinAddr: 0x100033AF8, symSize: 0x44 }
  - { offset: 0x86AD1, size: 0x8, addend: 0x0, symName: __ZNSt3__116allocator_traitsINS_9allocatorINS_10shared_ptrIN6spdlog5sinks4sinkEEEEEE9constructB8de190102IS6_JRKS6_ELi0EEEvRS7_PT_DpOT0_, symObjAddr: 0x2D804, symBinAddr: 0x100033B3C, symSize: 0x34 }
  - { offset: 0x86B2F, size: 0x8, addend: 0x0, symName: __ZNSt3__128__exception_guard_exceptionsINS_29_AllocatorDestroyRangeReverseINS_9allocatorINS_10shared_ptrIN6spdlog5sinks4sinkEEEEEPS7_EEE10__completeB8de190102Ev, symObjAddr: 0x2D84C, symBinAddr: 0x100033B84, symSize: 0x1C }
  - { offset: 0x86B54, size: 0x8, addend: 0x0, symName: __ZNSt3__128__exception_guard_exceptionsINS_29_AllocatorDestroyRangeReverseINS_9allocatorINS_10shared_ptrIN6spdlog5sinks4sinkEEEEEPS7_EEED1B8de190102Ev, symObjAddr: 0x2D868, symBinAddr: 0x100033BA0, symSize: 0x2C }
  - { offset: 0x86B7D, size: 0x8, addend: 0x0, symName: __ZNSt3__128__exception_guard_exceptionsINS_29_AllocatorDestroyRangeReverseINS_9allocatorINS_10shared_ptrIN6spdlog5sinks4sinkEEEEEPS7_EEEC1B8de190102ESA_, symObjAddr: 0x2D894, symBinAddr: 0x100033BCC, symSize: 0x34 }
  - { offset: 0x86BB5, size: 0x8, addend: 0x0, symName: __ZNSt3__128__exception_guard_exceptionsINS_29_AllocatorDestroyRangeReverseINS_9allocatorINS_10shared_ptrIN6spdlog5sinks4sinkEEEEEPS7_EEEC2B8de190102ESA_, symObjAddr: 0x2D8C8, symBinAddr: 0x100033C00, symSize: 0x30 }
  - { offset: 0x86BED, size: 0x8, addend: 0x0, symName: __ZNSt3__129_AllocatorDestroyRangeReverseINS_9allocatorINS_10shared_ptrIN6spdlog5sinks4sinkEEEEEPS6_EC2B8de190102ERS7_RS8_SB_, symObjAddr: 0x2D8F8, symBinAddr: 0x100033C30, symSize: 0x38 }
  - { offset: 0x86C43, size: 0x8, addend: 0x0, symName: __ZNSt3__19allocatorINS_10shared_ptrIN6spdlog5sinks4sinkEEEE9constructB8de190102IS5_JRKS5_EEEvPT_DpOT0_, symObjAddr: 0x2D930, symBinAddr: 0x100033C68, symSize: 0x30 }
  - { offset: 0x86C9A, size: 0x8, addend: 0x0, symName: __ZNSt3__110shared_ptrIN6spdlog5sinks4sinkEEC1B8de190102ERKS4_, symObjAddr: 0x2D960, symBinAddr: 0x100033C98, symSize: 0x34 }
  - { offset: 0x86CD2, size: 0x8, addend: 0x0, symName: __ZNSt3__110shared_ptrIN6spdlog5sinks4sinkEEC2B8de190102ERKS4_, symObjAddr: 0x2D994, symBinAddr: 0x100033CCC, symSize: 0x68 }
  - { offset: 0x86D0A, size: 0x8, addend: 0x0, symName: __ZNSt3__119__shared_weak_count12__add_sharedB8de190102Ev, symObjAddr: 0x2D9FC, symBinAddr: 0x100033D34, symSize: 0x24 }
  - { offset: 0x86D2F, size: 0x8, addend: 0x0, symName: __ZNSt3__114__shared_count12__add_sharedB8de190102Ev, symObjAddr: 0x2DA20, symBinAddr: 0x100033D58, symSize: 0x28 }
  - { offset: 0x86D54, size: 0x8, addend: 0x0, symName: __ZNSt3__128__exception_guard_exceptionsINS_29_AllocatorDestroyRangeReverseINS_9allocatorINS_10shared_ptrIN6spdlog5sinks4sinkEEEEEPS7_EEED2B8de190102Ev, symObjAddr: 0x2DA78, symBinAddr: 0x100033DB0, symSize: 0x50 }
  - { offset: 0x86D7D, size: 0x8, addend: 0x0, symName: __ZNKSt3__129_AllocatorDestroyRangeReverseINS_9allocatorINS_10shared_ptrIN6spdlog5sinks4sinkEEEEEPS6_EclB8de190102Ev, symObjAddr: 0x2DAC8, symBinAddr: 0x100033E00, symSize: 0x68 }
  - { offset: 0x86DA2, size: 0x8, addend: 0x0, symName: __ZNSt3__116reverse_iteratorIPNS_10shared_ptrIN6spdlog5sinks4sinkEEEEC1B8de190102ES6_, symObjAddr: 0x2DBA0, symBinAddr: 0x100033ED8, symSize: 0x34 }
  - { offset: 0x86DD9, size: 0x8, addend: 0x0, symName: __ZNSt3__116allocator_traitsINS_9allocatorINS_10shared_ptrIN6spdlog5sinks4sinkEEEEEE7destroyB8de190102IS6_Li0EEEvRS7_PT_, symObjAddr: 0x2DC18, symBinAddr: 0x100033F50, symSize: 0x2C }
  - { offset: 0x86E1B, size: 0x8, addend: 0x0, symName: __ZNSt3__116reverse_iteratorIPNS_10shared_ptrIN6spdlog5sinks4sinkEEEEppB8de190102Ev, symObjAddr: 0x2DC68, symBinAddr: 0x100033FA0, symSize: 0x20 }
  - { offset: 0x86E40, size: 0x8, addend: 0x0, symName: __ZNKSt3__116reverse_iteratorIPNS_10shared_ptrIN6spdlog5sinks4sinkEEEE4baseB8de190102Ev, symObjAddr: 0x2DC88, symBinAddr: 0x100033FC0, symSize: 0x18 }
  - { offset: 0x86E65, size: 0x8, addend: 0x0, symName: __ZNSt3__19allocatorINS_10shared_ptrIN6spdlog5sinks4sinkEEEE7destroyB8de190102EPS5_, symObjAddr: 0x2DCA0, symBinAddr: 0x100033FD8, symSize: 0x28 }
  - { offset: 0x86E9D, size: 0x8, addend: 0x0, symName: __ZNSt3__119__to_address_helperINS_16reverse_iteratorIPNS_10shared_ptrIN6spdlog5sinks4sinkEEEEEvE6__callB8de190102ERKS8_, symObjAddr: 0x2DCC8, symBinAddr: 0x100034000, symSize: 0x38 }
  - { offset: 0x86EC0, size: 0x8, addend: 0x0, symName: __ZNKSt3__116reverse_iteratorIPNS_10shared_ptrIN6spdlog5sinks4sinkEEEEptB8de190102Ev, symObjAddr: 0x2DD00, symBinAddr: 0x100034038, symSize: 0x24 }
  - { offset: 0x86EE5, size: 0x8, addend: 0x0, symName: __ZNKSt3__116reverse_iteratorIPNS_10shared_ptrIN6spdlog5sinks4sinkEEEEdeB8de190102Ev, symObjAddr: 0x2DD24, symBinAddr: 0x10003405C, symSize: 0x28 }
  - { offset: 0x86F19, size: 0x8, addend: 0x0, symName: __ZNSt3__116reverse_iteratorIPNS_10shared_ptrIN6spdlog5sinks4sinkEEEEC2B8de190102ES6_, symObjAddr: 0x2DD4C, symBinAddr: 0x100034084, symSize: 0x28 }
  - { offset: 0x86F50, size: 0x8, addend: 0x0, symName: __ZNSt3__118__unwrap_iter_implIPNS_10shared_ptrIN6spdlog5sinks4sinkEEELb1EE8__unwrapB8de190102ES6_, symObjAddr: 0x2DD74, symBinAddr: 0x1000340AC, symSize: 0x24 }
  - { offset: 0x86F73, size: 0x8, addend: 0x0, symName: __ZNSt3__118__unwrap_iter_implIPNS_10shared_ptrIN6spdlog5sinks4sinkEEELb1EE8__rewrapB8de190102ES6_S6_, symObjAddr: 0x2DD98, symBinAddr: 0x1000340D0, symSize: 0x50 }
  - { offset: 0x86FA4, size: 0x8, addend: 0x0, symName: __ZNSt3__16vectorINS_10shared_ptrIN6spdlog5sinks4sinkEEENS_9allocatorIS5_EEE21_ConstructTransactionD2B8de190102Ev, symObjAddr: 0x2DDE8, symBinAddr: 0x100034120, symSize: 0x20 }
  - { offset: 0x86FCD, size: 0x8, addend: 0x0, symName: __ZNSt3__128__exception_guard_exceptionsINS_6vectorINS_10shared_ptrIN6spdlog5sinks4sinkEEENS_9allocatorIS6_EEE16__destroy_vectorEED2B8de190102Ev, symObjAddr: 0x2DE08, symBinAddr: 0x100034140, symSize: 0x50 }
  - { offset: 0x86FF6, size: 0x8, addend: 0x0, symName: __ZNSt3__16vectorINS_10shared_ptrIN6spdlog5sinks4sinkEEENS_9allocatorIS5_EEE16__destroy_vectorclB8de190102Ev, symObjAddr: 0x2DE58, symBinAddr: 0x100034190, symSize: 0x88 }
  - { offset: 0x8701B, size: 0x8, addend: 0x0, symName: __ZNSt3__16vectorINS_10shared_ptrIN6spdlog5sinks4sinkEEENS_9allocatorIS5_EEE7__clearB8de190102Ev, symObjAddr: 0x2DEE0, symBinAddr: 0x100034218, symSize: 0x28 }
  - { offset: 0x87040, size: 0x8, addend: 0x0, symName: __ZNKSt3__16vectorINS_10shared_ptrIN6spdlog5sinks4sinkEEENS_9allocatorIS5_EEE17__annotate_deleteB8de190102Ev, symObjAddr: 0x2DF08, symBinAddr: 0x100034240, symSize: 0x10 }
  - { offset: 0x87065, size: 0x8, addend: 0x0, symName: __ZNSt3__116allocator_traitsINS_9allocatorINS_10shared_ptrIN6spdlog5sinks4sinkEEEEEE10deallocateB8de190102ERS7_PS6_m, symObjAddr: 0x2DF18, symBinAddr: 0x100034250, symSize: 0x34 }
  - { offset: 0x870A7, size: 0x8, addend: 0x0, symName: __ZNKSt3__16vectorINS_10shared_ptrIN6spdlog5sinks4sinkEEENS_9allocatorIS5_EEE8capacityB8de190102Ev, symObjAddr: 0x2DF4C, symBinAddr: 0x100034284, symSize: 0x40 }
  - { offset: 0x870CC, size: 0x8, addend: 0x0, symName: __ZNSt3__16vectorINS_10shared_ptrIN6spdlog5sinks4sinkEEENS_9allocatorIS5_EEE22__base_destruct_at_endB8de190102EPS5_, symObjAddr: 0x2DF8C, symBinAddr: 0x1000342C4, symSize: 0x88 }
  - { offset: 0x8710F, size: 0x8, addend: 0x0, symName: __ZNSt3__19allocatorINS_10shared_ptrIN6spdlog5sinks4sinkEEEE10deallocateB8de190102EPS5_m, symObjAddr: 0x2E014, symBinAddr: 0x10003434C, symSize: 0x40 }
  - { offset: 0x87150, size: 0x8, addend: 0x0, symName: __ZNKSt3__16vectorINS_10shared_ptrIN6spdlog5sinks4sinkEEENS_9allocatorIS5_EEE9__end_capB8de190102Ev, symObjAddr: 0x2E054, symBinAddr: 0x10003438C, symSize: 0x28 }
  - { offset: 0x87175, size: 0x8, addend: 0x0, symName: __ZNKSt3__117__compressed_pairIPNS_10shared_ptrIN6spdlog5sinks4sinkEEENS_9allocatorIS5_EEE5firstB8de190102Ev, symObjAddr: 0x2E07C, symBinAddr: 0x1000343B4, symSize: 0x24 }
  - { offset: 0x8719A, size: 0x8, addend: 0x0, symName: __ZNKSt3__122__compressed_pair_elemIPNS_10shared_ptrIN6spdlog5sinks4sinkEEELi0ELb0EE5__getB8de190102Ev, symObjAddr: 0x2E0A0, symBinAddr: 0x1000343D8, symSize: 0x14 }
  - { offset: 0x871BF, size: 0x8, addend: 0x0, symName: __ZNSt3__18functionIFvRKNS_12basic_stringIcNS_11char_traitsIcEENS_9allocatorIcEEEEEEC2B8de190102EDn, symObjAddr: 0x2E0B4, symBinAddr: 0x1000343EC, symSize: 0x30 }
  - { offset: 0x871F4, size: 0x8, addend: 0x0, symName: __ZN6spdlog7details10backtracerC2Ev, symObjAddr: 0x2E0E4, symBinAddr: 0x10003441C, symSize: 0x4C }
  - { offset: 0x8721D, size: 0x8, addend: 0x0, symName: __ZNSt3__16atomicIbEC1B8de190102Eb, symObjAddr: 0x2E130, symBinAddr: 0x100034468, symSize: 0x38 }
  - { offset: 0x87254, size: 0x8, addend: 0x0, symName: __ZN6spdlog7details10circular_qINS0_14log_msg_bufferEEC1Ev, symObjAddr: 0x2E168, symBinAddr: 0x1000344A0, symSize: 0x2C }
  - { offset: 0x8727D, size: 0x8, addend: 0x0, symName: __ZNSt3__16atomicIbEC2B8de190102Eb, symObjAddr: 0x2E194, symBinAddr: 0x1000344CC, symSize: 0x38 }
  - { offset: 0x872B4, size: 0x8, addend: 0x0, symName: __ZNSt3__113__atomic_baseIbLb0EEC2B8de190102Eb, symObjAddr: 0x2E1CC, symBinAddr: 0x100034504, symSize: 0x38 }
  - { offset: 0x872EB, size: 0x8, addend: 0x0, symName: __ZNSt3__117__cxx_atomic_implIbNS_22__cxx_atomic_base_implIbEEEC1B8de190102Eb, symObjAddr: 0x2E204, symBinAddr: 0x10003453C, symSize: 0x38 }
  - { offset: 0x87323, size: 0x8, addend: 0x0, symName: __ZNSt3__117__cxx_atomic_implIbNS_22__cxx_atomic_base_implIbEEEC2B8de190102Eb, symObjAddr: 0x2E23C, symBinAddr: 0x100034574, symSize: 0x38 }
  - { offset: 0x8735B, size: 0x8, addend: 0x0, symName: __ZNSt3__122__cxx_atomic_base_implIbEC2Eb, symObjAddr: 0x2E274, symBinAddr: 0x1000345AC, symSize: 0x24 }
  - { offset: 0x87393, size: 0x8, addend: 0x0, symName: __ZN6spdlog7details10circular_qINS0_14log_msg_bufferEEC2Ev, symObjAddr: 0x2E298, symBinAddr: 0x1000345D0, symSize: 0x40 }
  - { offset: 0x873BC, size: 0x8, addend: 0x0, symName: __ZNSt3__16vectorIN6spdlog7details14log_msg_bufferENS_9allocatorIS3_EEEC1B8de190102Ev, symObjAddr: 0x2E2D8, symBinAddr: 0x100034610, symSize: 0x2C }
  - { offset: 0x873E5, size: 0x8, addend: 0x0, symName: __ZNSt3__16vectorIN6spdlog7details14log_msg_bufferENS_9allocatorIS3_EEEC2B8de190102Ev, symObjAddr: 0x2E304, symBinAddr: 0x10003463C, symSize: 0x4C }
  - { offset: 0x8740E, size: 0x8, addend: 0x0, symName: __ZNSt3__117__compressed_pairIPN6spdlog7details14log_msg_bufferENS_9allocatorIS3_EEEC1B8de190102IDnNS_18__default_init_tagEEEOT_OT0_, symObjAddr: 0x2E350, symBinAddr: 0x100034688, symSize: 0x3C }
  - { offset: 0x87465, size: 0x8, addend: 0x0, symName: __ZNSt3__117__compressed_pairIPN6spdlog7details14log_msg_bufferENS_9allocatorIS3_EEEC2B8de190102IDnNS_18__default_init_tagEEEOT_OT0_, symObjAddr: 0x2E38C, symBinAddr: 0x1000346C4, symSize: 0x40 }
  - { offset: 0x874BC, size: 0x8, addend: 0x0, symName: __ZNSt3__122__compressed_pair_elemIPN6spdlog7details14log_msg_bufferELi0ELb0EEC2B8de190102IDnLi0EEEOT_, symObjAddr: 0x2E3CC, symBinAddr: 0x100034704, symSize: 0x1C }
  - { offset: 0x87502, size: 0x8, addend: 0x0, symName: __ZNSt3__122__compressed_pair_elemINS_9allocatorIN6spdlog7details14log_msg_bufferEEELi1ELb1EEC2B8de190102ENS_18__default_init_tagE, symObjAddr: 0x2E3E8, symBinAddr: 0x100034720, symSize: 0x2C }
  - { offset: 0x87536, size: 0x8, addend: 0x0, symName: __ZNSt3__19allocatorIN6spdlog7details14log_msg_bufferEEC2B8de190102Ev, symObjAddr: 0x2E414, symBinAddr: 0x10003474C, symSize: 0x2C }
  - { offset: 0x8755F, size: 0x8, addend: 0x0, symName: __ZNSt3__116__non_trivial_ifILb1ENS_9allocatorIN6spdlog7details14log_msg_bufferEEEEC2B8de190102Ev, symObjAddr: 0x2E440, symBinAddr: 0x100034778, symSize: 0x14 }
  - { offset: 0x87588, size: 0x8, addend: 0x0, symName: __ZN6spdlog6loggerD2Ev, symObjAddr: 0x2E454, symBinAddr: 0x10003478C, symSize: 0x64 }
  - { offset: 0x875B0, size: 0x8, addend: 0x0, symName: __ZN6spdlog7details10backtracerD1Ev, symObjAddr: 0x2E4B8, symBinAddr: 0x1000347F0, symSize: 0x2C }
  - { offset: 0x875DB, size: 0x8, addend: 0x0, symName: __ZNSt3__16vectorINS_10shared_ptrIN6spdlog5sinks4sinkEEENS_9allocatorIS5_EEED1B8de190102Ev, symObjAddr: 0x2E4E4, symBinAddr: 0x10003481C, symSize: 0x2C }
  - { offset: 0x87603, size: 0x8, addend: 0x0, symName: __ZN6spdlog7details10backtracerD2Ev, symObjAddr: 0x2E510, symBinAddr: 0x100034848, symSize: 0x38 }
  - { offset: 0x8762D, size: 0x8, addend: 0x0, symName: __ZN6spdlog7details10circular_qINS0_14log_msg_bufferEED1Ev, symObjAddr: 0x2E548, symBinAddr: 0x100034880, symSize: 0x2C }
  - { offset: 0x87657, size: 0x8, addend: 0x0, symName: __ZN6spdlog7details10circular_qINS0_14log_msg_bufferEED2Ev, symObjAddr: 0x2E574, symBinAddr: 0x1000348AC, symSize: 0x30 }
  - { offset: 0x87682, size: 0x8, addend: 0x0, symName: __ZNSt3__16vectorIN6spdlog7details14log_msg_bufferENS_9allocatorIS3_EEED1B8de190102Ev, symObjAddr: 0x2E5A4, symBinAddr: 0x1000348DC, symSize: 0x2C }
  - { offset: 0x876AB, size: 0x8, addend: 0x0, symName: __ZNSt3__16vectorIN6spdlog7details14log_msg_bufferENS_9allocatorIS3_EEED2B8de190102Ev, symObjAddr: 0x2E5D0, symBinAddr: 0x100034908, symSize: 0x44 }
  - { offset: 0x876D4, size: 0x8, addend: 0x0, symName: __ZNSt3__16vectorIN6spdlog7details14log_msg_bufferENS_9allocatorIS3_EEE16__destroy_vectorC1B8de190102ERS6_, symObjAddr: 0x2E614, symBinAddr: 0x10003494C, symSize: 0x34 }
  - { offset: 0x8770C, size: 0x8, addend: 0x0, symName: __ZNSt3__16vectorIN6spdlog7details14log_msg_bufferENS_9allocatorIS3_EEE16__destroy_vectorclB8de190102Ev, symObjAddr: 0x2E648, symBinAddr: 0x100034980, symSize: 0x88 }
  - { offset: 0x87731, size: 0x8, addend: 0x0, symName: __ZNSt3__16vectorIN6spdlog7details14log_msg_bufferENS_9allocatorIS3_EEE16__destroy_vectorC2B8de190102ERS6_, symObjAddr: 0x2E6D0, symBinAddr: 0x100034A08, symSize: 0x20 }
  - { offset: 0x87769, size: 0x8, addend: 0x0, symName: __ZNSt3__16vectorIN6spdlog7details14log_msg_bufferENS_9allocatorIS3_EEE7__clearB8de190102Ev, symObjAddr: 0x2E6F0, symBinAddr: 0x100034A28, symSize: 0x28 }
  - { offset: 0x8778E, size: 0x8, addend: 0x0, symName: __ZNKSt3__16vectorIN6spdlog7details14log_msg_bufferENS_9allocatorIS3_EEE17__annotate_deleteB8de190102Ev, symObjAddr: 0x2E718, symBinAddr: 0x100034A50, symSize: 0x10 }
  - { offset: 0x877B3, size: 0x8, addend: 0x0, symName: __ZNSt3__116allocator_traitsINS_9allocatorIN6spdlog7details14log_msg_bufferEEEE10deallocateB8de190102ERS5_PS4_m, symObjAddr: 0x2E728, symBinAddr: 0x100034A60, symSize: 0x34 }
  - { offset: 0x877F5, size: 0x8, addend: 0x0, symName: __ZNSt3__16vectorIN6spdlog7details14log_msg_bufferENS_9allocatorIS3_EEE7__allocB8de190102Ev, symObjAddr: 0x2E75C, symBinAddr: 0x100034A94, symSize: 0x28 }
  - { offset: 0x8781A, size: 0x8, addend: 0x0, symName: __ZNKSt3__16vectorIN6spdlog7details14log_msg_bufferENS_9allocatorIS3_EEE8capacityB8de190102Ev, symObjAddr: 0x2E784, symBinAddr: 0x100034ABC, symSize: 0x40 }
  - { offset: 0x8783F, size: 0x8, addend: 0x0, symName: __ZNSt3__16vectorIN6spdlog7details14log_msg_bufferENS_9allocatorIS3_EEE22__base_destruct_at_endB8de190102EPS3_, symObjAddr: 0x2E7C4, symBinAddr: 0x100034AFC, symSize: 0x88 }
  - { offset: 0x87882, size: 0x8, addend: 0x0, symName: __ZNSt3__116allocator_traitsINS_9allocatorIN6spdlog7details14log_msg_bufferEEEE7destroyB8de190102IS4_Li0EEEvRS5_PT_, symObjAddr: 0x2E84C, symBinAddr: 0x100034B84, symSize: 0x2C }
  - { offset: 0x878C4, size: 0x8, addend: 0x0, symName: __ZNSt3__19allocatorIN6spdlog7details14log_msg_bufferEE7destroyB8de190102EPS3_, symObjAddr: 0x2E88C, symBinAddr: 0x100034BC4, symSize: 0x28 }
  - { offset: 0x878F7, size: 0x8, addend: 0x0, symName: __ZNSt3__19allocatorIN6spdlog7details14log_msg_bufferEE10deallocateB8de190102EPS3_m, symObjAddr: 0x2E910, symBinAddr: 0x100034BEC, symSize: 0x44 }
  - { offset: 0x87938, size: 0x8, addend: 0x0, symName: __ZNSt3__117__compressed_pairIPN6spdlog7details14log_msg_bufferENS_9allocatorIS3_EEE6secondB8de190102Ev, symObjAddr: 0x2E954, symBinAddr: 0x100034C30, symSize: 0x24 }
  - { offset: 0x8795D, size: 0x8, addend: 0x0, symName: __ZNSt3__122__compressed_pair_elemINS_9allocatorIN6spdlog7details14log_msg_bufferEEELi1ELb1EE5__getB8de190102Ev, symObjAddr: 0x2E978, symBinAddr: 0x100034C54, symSize: 0x14 }
  - { offset: 0x87982, size: 0x8, addend: 0x0, symName: __ZNKSt3__16vectorIN6spdlog7details14log_msg_bufferENS_9allocatorIS3_EEE9__end_capB8de190102Ev, symObjAddr: 0x2E98C, symBinAddr: 0x100034C68, symSize: 0x28 }
  - { offset: 0x879A7, size: 0x8, addend: 0x0, symName: __ZNKSt3__117__compressed_pairIPN6spdlog7details14log_msg_bufferENS_9allocatorIS3_EEE5firstB8de190102Ev, symObjAddr: 0x2E9B4, symBinAddr: 0x100034C90, symSize: 0x24 }
  - { offset: 0x879CC, size: 0x8, addend: 0x0, symName: __ZNKSt3__122__compressed_pair_elemIPN6spdlog7details14log_msg_bufferELi0ELb0EE5__getB8de190102Ev, symObjAddr: 0x2E9D8, symBinAddr: 0x100034CB4, symSize: 0x14 }
  - { offset: 0x879F1, size: 0x8, addend: 0x0, symName: __ZNSt3__16vectorINS_10shared_ptrIN6spdlog5sinks4sinkEEENS_9allocatorIS5_EEED2B8de190102Ev, symObjAddr: 0x2E9EC, symBinAddr: 0x100034CC8, symSize: 0x40 }
  - { offset: 0x87A1A, size: 0x8, addend: 0x0, symName: __ZNSt3__120__shared_ptr_emplaceIN6spdlog6loggerENS_9allocatorIS2_EEEC1B8de190102IJRS2_ES4_Li0EEES4_DpOT_, symObjAddr: 0x2EB48, symBinAddr: 0x100034E24, symSize: 0x34 }
  - { offset: 0x87A7D, size: 0x8, addend: 0x0, symName: __ZNSt3__120__shared_ptr_emplaceIN6spdlog6loggerENS_9allocatorIS2_EEEC2B8de190102IJRS2_ES4_Li0EEES4_DpOT_, symObjAddr: 0x2EB7C, symBinAddr: 0x100034E58, symSize: 0xBC }
  - { offset: 0x87B01, size: 0x8, addend: 0x0, symName: __ZNSt3__116allocator_traitsINS_9allocatorIN6spdlog6loggerEEEE9constructB8de190102IS3_JRS3_ELi0EEEvRS4_PT_DpOT0_, symObjAddr: 0x2EC38, symBinAddr: 0x100034F14, symSize: 0x34 }
  - { offset: 0x87B5F, size: 0x8, addend: 0x0, symName: __ZNSt3__19allocatorIN6spdlog6loggerEE9constructB8de190102IS2_JRS2_EEEvPT_DpOT0_, symObjAddr: 0x2EC6C, symBinAddr: 0x100034F48, symSize: 0x30 }
  - { offset: 0x87BB5, size: 0x8, addend: 0x0, symName: __ZN6spdlog6loggerC1ERKS0_, symObjAddr: 0x2EC9C, symBinAddr: 0x100034F78, symSize: 0x34 }
  - { offset: 0x87BED, size: 0x8, addend: 0x0, symName: __ZN6spdlog6loggerC2ERKS0_, symObjAddr: 0x2ECD0, symBinAddr: 0x100034FAC, symSize: 0x150 }
  - { offset: 0x87C26, size: 0x8, addend: 0x0, symName: __ZNSt3__16vectorINS_10shared_ptrIN6spdlog5sinks4sinkEEENS_9allocatorIS5_EEEC1ERKS8_, symObjAddr: 0x2EE20, symBinAddr: 0x1000350FC, symSize: 0x34 }
  - { offset: 0x87C60, size: 0x8, addend: 0x0, symName: __ZNSt3__18functionIFvRKNS_12basic_stringIcNS_11char_traitsIcEENS_9allocatorIcEEEEEEC1ERKSA_, symObjAddr: 0x2EE80, symBinAddr: 0x100035130, symSize: 0x34 }
  - { offset: 0x87C99, size: 0x8, addend: 0x0, symName: __ZN6spdlog7details10backtracerC1ERKS1_, symObjAddr: 0x2EEB4, symBinAddr: 0x100035164, symSize: 0x34 }
  - { offset: 0x87CD2, size: 0x8, addend: 0x0, symName: __ZNSt3__16vectorINS_10shared_ptrIN6spdlog5sinks4sinkEEENS_9allocatorIS5_EEEC2ERKS8_, symObjAddr: 0x2EEE8, symBinAddr: 0x100035198, symSize: 0x94 }
  - { offset: 0x87D0C, size: 0x8, addend: 0x0, symName: __ZNSt3__116allocator_traitsINS_9allocatorINS_10shared_ptrIN6spdlog5sinks4sinkEEEEEE37select_on_container_copy_constructionB8de190102IS7_vLi0EEES7_RKS7_, symObjAddr: 0x2EF7C, symBinAddr: 0x10003522C, symSize: 0x10 }
  - { offset: 0x87D46, size: 0x8, addend: 0x0, symName: __ZNSt3__117__compressed_pairIPNS_10shared_ptrIN6spdlog5sinks4sinkEEENS_9allocatorIS5_EEEC1B8de190102IDnS8_EEOT_OT0_, symObjAddr: 0x2EF8C, symBinAddr: 0x10003523C, symSize: 0x3C }
  - { offset: 0x87D9D, size: 0x8, addend: 0x0, symName: __ZNSt3__16vectorINS_10shared_ptrIN6spdlog5sinks4sinkEEENS_9allocatorIS5_EEE16__init_with_sizeB8de190102IPS5_SA_EEvT_T0_m, symObjAddr: 0x2EFC8, symBinAddr: 0x100035278, symSize: 0xB4 }
  - { offset: 0x87E10, size: 0x8, addend: 0x0, symName: __ZNKSt3__16vectorINS_10shared_ptrIN6spdlog5sinks4sinkEEENS_9allocatorIS5_EEE4sizeB8de190102Ev, symObjAddr: 0x2F07C, symBinAddr: 0x10003532C, symSize: 0x28 }
  - { offset: 0x87E35, size: 0x8, addend: 0x0, symName: __ZNSt3__117__compressed_pairIPNS_10shared_ptrIN6spdlog5sinks4sinkEEENS_9allocatorIS5_EEEC2B8de190102IDnS8_EEOT_OT0_, symObjAddr: 0x2F0A4, symBinAddr: 0x100035354, symSize: 0x44 }
  - { offset: 0x87E8C, size: 0x8, addend: 0x0, symName: __ZNSt3__122__compressed_pair_elemINS_9allocatorINS_10shared_ptrIN6spdlog5sinks4sinkEEEEELi1ELb1EEC2B8de190102IS7_Li0EEEOT_, symObjAddr: 0x2F0E8, symBinAddr: 0x100035398, symSize: 0x18 }
  - { offset: 0x87ED2, size: 0x8, addend: 0x0, symName: __ZNSt3__16vectorINS_10shared_ptrIN6spdlog5sinks4sinkEEENS_9allocatorIS5_EEE18__construct_at_endIPS5_SA_EEvT_T0_m, symObjAddr: 0x2F100, symBinAddr: 0x1000353B0, symSize: 0x8C }
  - { offset: 0x87F63, size: 0x8, addend: 0x0, symName: __ZNSt3__14pairIPNS_10shared_ptrIN6spdlog5sinks4sinkEEES6_EC1B8de190102IS6_S6_Li0EEEOT_OT0_, symObjAddr: 0x2F394, symBinAddr: 0x100035644, symSize: 0x3C }
  - { offset: 0x87FC0, size: 0x8, addend: 0x0, symName: __ZNSt3__14pairIPNS_10shared_ptrIN6spdlog5sinks4sinkEEES6_EC2B8de190102IS6_S6_Li0EEEOT_OT0_, symObjAddr: 0x2F3D0, symBinAddr: 0x100035680, symSize: 0x34 }
  - { offset: 0x8801D, size: 0x8, addend: 0x0, symName: __ZNSt3__116allocator_traitsINS_9allocatorINS_10shared_ptrIN6spdlog5sinks4sinkEEEEEE9constructB8de190102IS6_JRS6_ELi0EEEvRS7_PT_DpOT0_, symObjAddr: 0x2F404, symBinAddr: 0x1000356B4, symSize: 0x34 }
  - { offset: 0x8807B, size: 0x8, addend: 0x0, symName: __ZNSt3__19allocatorINS_10shared_ptrIN6spdlog5sinks4sinkEEEE9constructB8de190102IS5_JRS5_EEEvPT_DpOT0_, symObjAddr: 0x2F438, symBinAddr: 0x1000356E8, symSize: 0x30 }
  - { offset: 0x880D2, size: 0x8, addend: 0x0, symName: __ZNSt3__18functionIFvRKNS_12basic_stringIcNS_11char_traitsIcEENS_9allocatorIcEEEEEEC2ERKSA_, symObjAddr: 0x2F4E0, symBinAddr: 0x100035718, symSize: 0x34 }
  - { offset: 0x8810C, size: 0x8, addend: 0x0, symName: __ZNSt3__110__function12__value_funcIFvRKNS_12basic_stringIcNS_11char_traitsIcEENS_9allocatorIcEEEEEEC1B8de190102ERKSB_, symObjAddr: 0x2F514, symBinAddr: 0x10003574C, symSize: 0x34 }
  - { offset: 0x88144, size: 0x8, addend: 0x0, symName: __ZNSt3__110__function12__value_funcIFvRKNS_12basic_stringIcNS_11char_traitsIcEENS_9allocatorIcEEEEEEC2B8de190102ERKSB_, symObjAddr: 0x2F548, symBinAddr: 0x100035780, symSize: 0xB4 }
  - { offset: 0x8817C, size: 0x8, addend: 0x0, symName: __ZNSt3__110__function12__value_funcIFvRKNS_12basic_stringIcNS_11char_traitsIcEENS_9allocatorIcEEEEEE9__as_baseB8de190102EPv, symObjAddr: 0x2F5FC, symBinAddr: 0x100035834, symSize: 0x14 }
  - { offset: 0x8819F, size: 0x8, addend: 0x0, symName: __ZN6spdlog7details10backtracerC2ERKS1_, symObjAddr: 0x2F610, symBinAddr: 0x100035848, symSize: 0xE8 }
  - { offset: 0x881ED, size: 0x8, addend: 0x0, symName: __ZNSt3__16atomicIbEaSB8de190102Eb, symObjAddr: 0x2F724, symBinAddr: 0x100035930, symSize: 0x3C }
  - { offset: 0x88220, size: 0x8, addend: 0x0, symName: __ZN6spdlog7details10circular_qINS0_14log_msg_bufferEEaSERKS3_, symObjAddr: 0x2F760, symBinAddr: 0x10003596C, symSize: 0x50 }
  - { offset: 0x88250, size: 0x8, addend: 0x0, symName: __ZNSt3__113__atomic_baseIbLb0EE5storeB8de190102EbNS_12memory_orderE, symObjAddr: 0x2F858, symBinAddr: 0x1000359BC, symSize: 0x38 }
  - { offset: 0x88291, size: 0x8, addend: 0x0, symName: __ZNSt3__16vectorIN6spdlog7details14log_msg_bufferENS_9allocatorIS3_EEEaSB8de190102ERKS6_, symObjAddr: 0x2F910, symBinAddr: 0x100035A74, symSize: 0x64 }
  - { offset: 0x882C7, size: 0x8, addend: 0x0, symName: __ZNSt3__16vectorIN6spdlog7details14log_msg_bufferENS_9allocatorIS3_EEE19__copy_assign_allocB8de190102ERKS6_, symObjAddr: 0x2F974, symBinAddr: 0x100035AD8, symSize: 0x2C }
  - { offset: 0x882FB, size: 0x8, addend: 0x0, symName: __ZNSt3__16vectorIN6spdlog7details14log_msg_bufferENS_9allocatorIS3_EEE6assignIPS3_Li0EEEvT_S9_, symObjAddr: 0x2F9A0, symBinAddr: 0x100035B04, symSize: 0x5C }
  - { offset: 0x8834D, size: 0x8, addend: 0x0, symName: __ZNSt3__16vectorIN6spdlog7details14log_msg_bufferENS_9allocatorIS3_EEE19__copy_assign_allocB8de190102ERKS6_NS_17integral_constantIbLb0EEE, symObjAddr: 0x2F9FC, symBinAddr: 0x100035B60, symSize: 0x14 }
  - { offset: 0x8838A, size: 0x8, addend: 0x0, symName: __ZNSt3__16vectorIN6spdlog7details14log_msg_bufferENS_9allocatorIS3_EEE18__assign_with_sizeB8de190102IPS3_S8_EEvT_T0_l, symObjAddr: 0x2FA10, symBinAddr: 0x100035B74, symSize: 0x15C }
  - { offset: 0x88439, size: 0x8, addend: 0x0, symName: __ZNSt3__16vectorIN6spdlog7details14log_msg_bufferENS_9allocatorIS3_EEE18__construct_at_endIPS3_S8_EEvT_T0_m, symObjAddr: 0x2FC64, symBinAddr: 0x100035DA0, symSize: 0x8C }
  - { offset: 0x884AC, size: 0x8, addend: 0x0, symName: __ZNSt3__16vectorIN6spdlog7details14log_msg_bufferENS_9allocatorIS3_EEE17__destruct_at_endB8de190102EPS3_, symObjAddr: 0x2FD34, symBinAddr: 0x100035E70, symSize: 0x4C }
  - { offset: 0x884EF, size: 0x8, addend: 0x0, symName: __ZNSt3__16vectorIN6spdlog7details14log_msg_bufferENS_9allocatorIS3_EEE13__vdeallocateEv, symObjAddr: 0x2FD80, symBinAddr: 0x100035EBC, symSize: 0x8C }
  - { offset: 0x88516, size: 0x8, addend: 0x0, symName: __ZNSt3__16vectorIN6spdlog7details14log_msg_bufferENS_9allocatorIS3_EEE11__vallocateB8de190102Em, symObjAddr: 0x2FE0C, symBinAddr: 0x100035F48, symSize: 0xB0 }
  - { offset: 0x88559, size: 0x8, addend: 0x0, symName: __ZNKSt3__16vectorIN6spdlog7details14log_msg_bufferENS_9allocatorIS3_EEE11__recommendB8de190102Em, symObjAddr: 0x2FEBC, symBinAddr: 0x100035FF8, symSize: 0xAC }
  - { offset: 0x885C6, size: 0x8, addend: 0x0, symName: __ZNSt3__16vectorIN6spdlog7details14log_msg_bufferENS_9allocatorIS3_EEE21_ConstructTransactionC1B8de190102ERS6_m, symObjAddr: 0x30018, symBinAddr: 0x100036154, symSize: 0x3C }
  - { offset: 0x8860D, size: 0x8, addend: 0x0, symName: __ZNSt3__16vectorIN6spdlog7details14log_msg_bufferENS_9allocatorIS3_EEE21_ConstructTransactionD1B8de190102Ev, symObjAddr: 0x300D4, symBinAddr: 0x100036210, symSize: 0x2C }
  - { offset: 0x88636, size: 0x8, addend: 0x0, symName: __ZNSt3__16vectorIN6spdlog7details14log_msg_bufferENS_9allocatorIS3_EEE21_ConstructTransactionC2B8de190102ERS6_m, symObjAddr: 0x30100, symBinAddr: 0x10003623C, symSize: 0x4C }
  - { offset: 0x8869B, size: 0x8, addend: 0x0, symName: __ZNSt3__14pairIPN6spdlog7details14log_msg_bufferES4_EC1B8de190102IS4_S4_Li0EEEOT_OT0_, symObjAddr: 0x30334, symBinAddr: 0x100036470, symSize: 0x3C }
  - { offset: 0x886F8, size: 0x8, addend: 0x0, symName: __ZNSt3__14pairIPN6spdlog7details14log_msg_bufferES4_EC2B8de190102IS4_S4_Li0EEEOT_OT0_, symObjAddr: 0x30370, symBinAddr: 0x1000364AC, symSize: 0x34 }
  - { offset: 0x88755, size: 0x8, addend: 0x0, symName: __ZNSt3__129_AllocatorDestroyRangeReverseINS_9allocatorIN6spdlog7details14log_msg_bufferEEEPS4_EC1B8de190102ERS5_RS6_S9_, symObjAddr: 0x303F0, symBinAddr: 0x10003652C, symSize: 0x44 }
  - { offset: 0x887AB, size: 0x8, addend: 0x0, symName: __ZNSt3__116allocator_traitsINS_9allocatorIN6spdlog7details14log_msg_bufferEEEE9constructB8de190102IS4_JRS4_ELi0EEEvRS5_PT_DpOT0_, symObjAddr: 0x30434, symBinAddr: 0x100036570, symSize: 0x34 }
  - { offset: 0x88809, size: 0x8, addend: 0x0, symName: __ZNSt3__128__exception_guard_exceptionsINS_29_AllocatorDestroyRangeReverseINS_9allocatorIN6spdlog7details14log_msg_bufferEEEPS5_EEE10__completeB8de190102Ev, symObjAddr: 0x30468, symBinAddr: 0x1000365A4, symSize: 0x1C }
  - { offset: 0x8882E, size: 0x8, addend: 0x0, symName: __ZNSt3__128__exception_guard_exceptionsINS_29_AllocatorDestroyRangeReverseINS_9allocatorIN6spdlog7details14log_msg_bufferEEEPS5_EEED1B8de190102Ev, symObjAddr: 0x30484, symBinAddr: 0x1000365C0, symSize: 0x2C }
  - { offset: 0x88857, size: 0x8, addend: 0x0, symName: __ZNSt3__128__exception_guard_exceptionsINS_29_AllocatorDestroyRangeReverseINS_9allocatorIN6spdlog7details14log_msg_bufferEEEPS5_EEEC1B8de190102ES8_, symObjAddr: 0x304B0, symBinAddr: 0x1000365EC, symSize: 0x34 }
  - { offset: 0x8888F, size: 0x8, addend: 0x0, symName: __ZNSt3__128__exception_guard_exceptionsINS_29_AllocatorDestroyRangeReverseINS_9allocatorIN6spdlog7details14log_msg_bufferEEEPS5_EEEC2B8de190102ES8_, symObjAddr: 0x304E4, symBinAddr: 0x100036620, symSize: 0x30 }
  - { offset: 0x888C7, size: 0x8, addend: 0x0, symName: __ZNSt3__129_AllocatorDestroyRangeReverseINS_9allocatorIN6spdlog7details14log_msg_bufferEEEPS4_EC2B8de190102ERS5_RS6_S9_, symObjAddr: 0x30514, symBinAddr: 0x100036650, symSize: 0x38 }
  - { offset: 0x8891D, size: 0x8, addend: 0x0, symName: __ZNSt3__19allocatorIN6spdlog7details14log_msg_bufferEE9constructB8de190102IS3_JRS3_EEEvPT_DpOT0_, symObjAddr: 0x3054C, symBinAddr: 0x100036688, symSize: 0x30 }
  - { offset: 0x88973, size: 0x8, addend: 0x0, symName: __ZN6spdlog7details14log_msg_bufferC1ERKS1_, symObjAddr: 0x3057C, symBinAddr: 0x1000366B8, symSize: 0x34 }
  - { offset: 0x889AB, size: 0x8, addend: 0x0, symName: __ZN6spdlog7details14log_msg_bufferC2ERKS1_, symObjAddr: 0x305B0, symBinAddr: 0x1000366EC, symSize: 0xE4 }
  - { offset: 0x889E4, size: 0x8, addend: 0x0, symName: __ZNSt3__128__exception_guard_exceptionsINS_29_AllocatorDestroyRangeReverseINS_9allocatorIN6spdlog7details14log_msg_bufferEEEPS5_EEED2B8de190102Ev, symObjAddr: 0x30738, symBinAddr: 0x1000367D0, symSize: 0x50 }
  - { offset: 0x88A0D, size: 0x8, addend: 0x0, symName: __ZNKSt3__129_AllocatorDestroyRangeReverseINS_9allocatorIN6spdlog7details14log_msg_bufferEEEPS4_EclB8de190102Ev, symObjAddr: 0x30788, symBinAddr: 0x100036820, symSize: 0x68 }
  - { offset: 0x88A32, size: 0x8, addend: 0x0, symName: __ZNSt3__116reverse_iteratorIPN6spdlog7details14log_msg_bufferEEC1B8de190102ES4_, symObjAddr: 0x30860, symBinAddr: 0x1000368F8, symSize: 0x34 }
  - { offset: 0x88A69, size: 0x8, addend: 0x0, symName: __ZNSt3__116reverse_iteratorIPN6spdlog7details14log_msg_bufferEEppB8de190102Ev, symObjAddr: 0x308FC, symBinAddr: 0x100036994, symSize: 0x20 }
  - { offset: 0x88A8E, size: 0x8, addend: 0x0, symName: __ZNKSt3__116reverse_iteratorIPN6spdlog7details14log_msg_bufferEE4baseB8de190102Ev, symObjAddr: 0x3091C, symBinAddr: 0x1000369B4, symSize: 0x18 }
  - { offset: 0x88AB8, size: 0x8, addend: 0x0, symName: __ZNSt3__119__to_address_helperINS_16reverse_iteratorIPN6spdlog7details14log_msg_bufferEEEvE6__callB8de190102ERKS6_, symObjAddr: 0x30934, symBinAddr: 0x1000369CC, symSize: 0x38 }
  - { offset: 0x88ADB, size: 0x8, addend: 0x0, symName: __ZNKSt3__116reverse_iteratorIPN6spdlog7details14log_msg_bufferEEptB8de190102Ev, symObjAddr: 0x3096C, symBinAddr: 0x100036A04, symSize: 0x24 }
  - { offset: 0x88B00, size: 0x8, addend: 0x0, symName: __ZNKSt3__116reverse_iteratorIPN6spdlog7details14log_msg_bufferEEdeB8de190102Ev, symObjAddr: 0x30990, symBinAddr: 0x100036A28, symSize: 0x28 }
  - { offset: 0x88B34, size: 0x8, addend: 0x0, symName: __ZNSt3__116reverse_iteratorIPN6spdlog7details14log_msg_bufferEEC2B8de190102ES4_, symObjAddr: 0x309B8, symBinAddr: 0x100036A50, symSize: 0x28 }
  - { offset: 0x88B6B, size: 0x8, addend: 0x0, symName: __ZNSt3__118__unwrap_iter_implIPN6spdlog7details14log_msg_bufferELb1EE8__unwrapB8de190102ES4_, symObjAddr: 0x309E0, symBinAddr: 0x100036A78, symSize: 0x24 }
  - { offset: 0x88B8E, size: 0x8, addend: 0x0, symName: __ZNSt3__118__unwrap_iter_implIPN6spdlog7details14log_msg_bufferELb1EE8__rewrapB8de190102ES4_S4_, symObjAddr: 0x30A04, symBinAddr: 0x100036A9C, symSize: 0x58 }
